   1              		.file	"ds5300.c"
   9              	.Ltext0:
  10              		.align	2
  11              		.global	P1Init
  13              	P1Init:
  14              	.LFB2:
  15              		.file 1 "DigiShort/ds5300.c"
   1:DigiShort/ds5300.c **** /**
   2:DigiShort/ds5300.c ****  * \file    ds5300.c
   3:DigiShort/ds5300.c ****  * Implementation of DS customized W5300 I/O fucntions
   4:DigiShort/ds5300.c ****  *
   5:DigiShort/ds5300.c ****  * This file implements the basic I/O fucntions that access a register of W5300( IINCHIP_REG).
   6:DigiShort/ds5300.c ****  * 
   7:DigiShort/ds5300.c ****  * Revision History :
   8:DigiShort/ds5300.c ****  * ----------  -------  --------  --------------------------------------------------
   9:DigiShort/ds5300.c ****  * Date        Version  Author       Description
  10:DigiShort/ds5300.c ****  * ----------  -------  --------  --------------------------------------------------
  11:DigiShort/ds5300.c ****  * 7/05/2008  1.0.0    JD				  Release with W5300 launching
  12:DigiShort/ds5300.c ****  * 7/28/2009  1.1.0    JD				  Faster wiz_write_buf (linear block of 4 bytes) and
  13:DigiShort/ds5300.c **** 																		wiz_read_buf (linear block of 8 bytes)
  14:DigiShort/ds5300.c ****  * ----------  -------  --------  --------------------------------------------------
  15:DigiShort/ds5300.c ****  */
  16:DigiShort/ds5300.c **** #include	"../Wiznet/w5300.h"
  17:DigiShort/ds5300.c **** #include	"../ARM2148/lpc21xx.h"
  18:DigiShort/ds5300.c **** #include	"../ARM2148/processor.h"
  19:DigiShort/ds5300.c **** 
  20:DigiShort/ds5300.c **** #define IINCHIP_ISR_DISABLE()
  21:DigiShort/ds5300.c **** #define IINCHIP_ISR_ENABLE()	
  22:DigiShort/ds5300.c **** 
  23:DigiShort/ds5300.c **** 
  24:DigiShort/ds5300.c **** #define LATCH_STRB	(1 << 24)
  25:DigiShort/ds5300.c **** #define WIZ_CS			(1 << 25)
  26:DigiShort/ds5300.c **** #define WIZ_ON			(1 << 23)
  27:DigiShort/ds5300.c **** #define WIZ_RES			(1 << 21)
  28:DigiShort/ds5300.c **** #define WIZ_RD			(1 << 20)
  29:DigiShort/ds5300.c **** #define WIZ_WR			(1 << 19)
  30:DigiShort/ds5300.c **** #define WIZ_A0			(1 << 16)
  31:DigiShort/ds5300.c **** #define WIZ_A1			(1 << 17)
  32:DigiShort/ds5300.c **** #define WIZ_A2			(1 << 18)
  33:DigiShort/ds5300.c **** 
  34:DigiShort/ds5300.c **** #define MR0_REG			00
  35:DigiShort/ds5300.c **** #define MR1_REG			01
  36:DigiShort/ds5300.c **** 
  37:DigiShort/ds5300.c **** #define IDM_AR0_		02
  38:DigiShort/ds5300.c **** #define IDM_AR1_		03
  39:DigiShort/ds5300.c **** #define IDM_DR0_		04
  40:DigiShort/ds5300.c **** #define IDM_DR1_		05
  41:DigiShort/ds5300.c **** 
  42:DigiShort/ds5300.c **** #define WR5300_MR0	(MR0_REG<<16)|WIZ_RD|WIZ_RES|WIZ_ON
  43:DigiShort/ds5300.c **** #define W5300_MR0IDLE	(MR0_REG<<16)|WIZ_RD|WIZ_WR|WIZ_RES|WIZ_ON
  44:DigiShort/ds5300.c **** 
  45:DigiShort/ds5300.c **** #define WR5300_MR1	(MR1_REG<<16)|WIZ_RD|WIZ_RES|WIZ_ON
  46:DigiShort/ds5300.c **** #define W5300_MR1IDLE	(MR1_REG<<16)|WIZ_RD|WIZ_WR|WIZ_RES|WIZ_ON
  47:DigiShort/ds5300.c **** 
  48:DigiShort/ds5300.c **** #define WR5300_AR0	(IDM_AR0_<<16)|WIZ_RD|WIZ_RES|WIZ_ON
  49:DigiShort/ds5300.c **** #define W5300_AR0IDLE	(IDM_AR0_<<16)|WIZ_RD|WIZ_WR|WIZ_RES|WIZ_ON
  50:DigiShort/ds5300.c **** 
  51:DigiShort/ds5300.c **** #define WR5300_AR1	(IDM_AR1_<<16)|WIZ_RD|WIZ_RES|WIZ_ON
  52:DigiShort/ds5300.c **** #define W5300_AR1IDLE	(IDM_AR1_<<16)|WIZ_RD|WIZ_WR|WIZ_RES|WIZ_ON
  53:DigiShort/ds5300.c **** 
  54:DigiShort/ds5300.c **** #define WR5300_DR0	(IDM_DR0_<<16)|WIZ_RD|WIZ_RES|WIZ_ON
  55:DigiShort/ds5300.c **** #define W5300_DR0IDLE	(IDM_DR0_<<16)|WIZ_RD|WIZ_WR|WIZ_RES|WIZ_ON
  56:DigiShort/ds5300.c **** #define WR5300_DR1	(IDM_DR1_<<16)|WIZ_RD|WIZ_RES|WIZ_ON	
  57:DigiShort/ds5300.c **** #define W5300_DR1IDLE	(IDM_DR1_<<16)|WIZ_RD|WIZ_WR|WIZ_RES|WIZ_ON	
  58:DigiShort/ds5300.c **** 
  59:DigiShort/ds5300.c **** #define RD5300_DR0	(IDM_DR0_<<16)|WIZ_WR|WIZ_RES|WIZ_ON
  60:DigiShort/ds5300.c **** #define R5300_DR0IDLE	(IDM_DR0_<<16)|WIZ_RD|WIZ_WR|WIZ_RES|WIZ_ON
  61:DigiShort/ds5300.c **** #define RD5300_DR1	(IDM_DR1_<<16)|WIZ_WR|WIZ_RES|WIZ_ON	
  62:DigiShort/ds5300.c **** #define R5300_DR1IDLE	(IDM_DR1_<<16)|WIZ_RD|WIZ_WR|WIZ_RES|WIZ_ON	
  63:DigiShort/ds5300.c **** 
  64:DigiShort/ds5300.c **** #define RD5300_AR0	(IDM_AR0_<<16)|WIZ_WR|WIZ_RES|WIZ_ON
  65:DigiShort/ds5300.c **** #define RD5300_AR1	(IDM_AR1_<<16)|WIZ_WR|WIZ_RES|WIZ_ON	
  66:DigiShort/ds5300.c **** 
  67:DigiShort/ds5300.c **** #define LATCH_STRBa	(1 << 8)
  68:DigiShort/ds5300.c **** #define WIZ_CSa			(1 << 9)
  69:DigiShort/ds5300.c **** #define WIZ_ONa			(1 << 7)
  70:DigiShort/ds5300.c **** #define WIZ_RESa		(1 << 5)
  71:DigiShort/ds5300.c **** #define WIZ_RDa			(1 << 4)
  72:DigiShort/ds5300.c **** #define WIZ_WRa			(1 << 3)
  73:DigiShort/ds5300.c **** 
  74:DigiShort/ds5300.c **** #define LATCH_STRBb	(1 << 0)
  75:DigiShort/ds5300.c **** #define WIZ_CSb			(1 << 1)
  76:DigiShort/ds5300.c **** 
  77:DigiShort/ds5300.c **** #define W530_MR0a			MR0_REG|WIZ_RDa|WIZ_RESa|WIZ_ONa
  78:DigiShort/ds5300.c **** #define W530_MR0IDLEa	MR0_REG|WIZ_RDa|WIZ_WRa|WIZ_RESa|WIZ_ONa
  79:DigiShort/ds5300.c **** #define W530_MR1a			MR1_REG|WIZ_RDa|WIZ_RESa|WIZ_ONa
  80:DigiShort/ds5300.c **** #define W530_MR1IDLEa	MR1_REG|WIZ_RDa|WIZ_WRa|WIZ_RESa|WIZ_ONa
  81:DigiShort/ds5300.c **** 
  82:DigiShort/ds5300.c **** #define R530_MR0a			MR0_REG|WIZ_WRa|WIZ_RESa|WIZ_ONa
  83:DigiShort/ds5300.c **** #define R530_MR0IDLEa	MR0_REG|WIZ_RDa|WIZ_WRa|WIZ_RESa|WIZ_ONa
  84:DigiShort/ds5300.c **** #define R530_MR1a			MR1_REG|WIZ_WRa|WIZ_RESa|WIZ_ONa	
  85:DigiShort/ds5300.c **** #define R530_MR1IDLEa	MR1_REG|WIZ_RDa|WIZ_WRa|WIZ_RESa|WIZ_ONa	
  86:DigiShort/ds5300.c **** 
  87:DigiShort/ds5300.c **** #define W530_AR0a			IDM_AR0_|WIZ_RDa|WIZ_RESa|WIZ_ONa
  88:DigiShort/ds5300.c **** #define W530_AR0IDLEa	IDM_AR0_|WIZ_RDa|WIZ_WRa|WIZ_RESa|WIZ_ONa
  89:DigiShort/ds5300.c **** #define W530_AR1a			IDM_AR1_|WIZ_RDa|WIZ_RESa|WIZ_ONa
  90:DigiShort/ds5300.c **** #define W530_AR1IDLEa	IDM_AR1_|WIZ_RDa|WIZ_WRa|WIZ_RESa|WIZ_ONa
  91:DigiShort/ds5300.c **** 
  92:DigiShort/ds5300.c **** #define W530_DR0a			IDM_DR0_|WIZ_RDa|WIZ_RESa|WIZ_ONa
  93:DigiShort/ds5300.c **** #define W530_DR0IDLEa	IDM_DR0_|WIZ_RDa|WIZ_WRa|WIZ_RESa|WIZ_ONa
  94:DigiShort/ds5300.c **** #define W530_DR1a			IDM_DR1_|WIZ_RDa|WIZ_RESa|WIZ_ONa	
  95:DigiShort/ds5300.c **** #define W530_DR1IDLEa	IDM_DR1_|WIZ_RDa|WIZ_WRa|WIZ_RESa|WIZ_ONa	
  96:DigiShort/ds5300.c **** 
  97:DigiShort/ds5300.c **** #define R530_DR0a			IDM_DR0_|WIZ_WRa|WIZ_RESa|WIZ_ONa
  98:DigiShort/ds5300.c **** #define R530_DR0IDLEa	IDM_DR0_|WIZ_RDa|WIZ_WRa|WIZ_RESa|WIZ_ONa
  99:DigiShort/ds5300.c **** #define R530_DR1a			IDM_DR1_|WIZ_WRa|WIZ_RESa|WIZ_ONa	
 100:DigiShort/ds5300.c **** #define R530_DR1IDLEa	IDM_DR1_|WIZ_RDa|WIZ_WRa|WIZ_RESa|WIZ_ONa	
 101:DigiShort/ds5300.c **** 
 102:DigiShort/ds5300.c **** #define R530_AR0a			IDM_AR0_|WIZ_WRa|WIZ_RESa|WIZ_ONa
 103:DigiShort/ds5300.c **** #define R530_AR1a			IDM_AR1_|WIZ_WRa|WIZ_RESa|WIZ_ONa	
 104:DigiShort/ds5300.c **** #define R530_AR0IDLEa	IDM_AR0_|WIZ_RDa|WIZ_WRa|WIZ_RESa|WIZ_ONa
 105:DigiShort/ds5300.c **** #define R530_AR1IDLEa	IDM_AR1_|WIZ_RDa|WIZ_WRa|WIZ_RESa|WIZ_ONa
 106:DigiShort/ds5300.c **** 
 107:DigiShort/ds5300.c **** #define NOP_3	\
 108:DigiShort/ds5300.c **** 	asm volatile ("nop");\
 109:DigiShort/ds5300.c **** 	asm volatile ("nop");\
 110:DigiShort/ds5300.c **** 	asm volatile ("nop");
 111:DigiShort/ds5300.c **** 
 112:DigiShort/ds5300.c **** #define NOP_2	\
 113:DigiShort/ds5300.c **** 	asm volatile ("nop");\
 114:DigiShort/ds5300.c **** 	asm volatile ("nop");
 115:DigiShort/ds5300.c **** 
 116:DigiShort/ds5300.c **** 
 117:DigiShort/ds5300.c **** 
 118:DigiShort/ds5300.c **** extern 	int 		SpurIntCnt, CRdyMax;
 119:DigiShort/ds5300.c **** extern	int			W53ErFlg, Tst1Flag;
 120:DigiShort/ds5300.c **** 
 121:DigiShort/ds5300.c **** extern	uint8		EstbPhase[];
 122:DigiShort/ds5300.c **** extern 	int			ssrErr[];
 123:DigiShort/ds5300.c **** 
 124:DigiShort/ds5300.c **** extern	void	delay(unsigned long d);
 125:DigiShort/ds5300.c **** 
 126:DigiShort/ds5300.c **** extern	int printf(const char *format, ...);
 127:DigiShort/ds5300.c **** 
 128:DigiShort/ds5300.c **** //  Forward prototypes
 129:DigiShort/ds5300.c **** void 		P1Init(void);
 130:DigiShort/ds5300.c **** void    setMR(uint16 val);
 131:DigiShort/ds5300.c **** uint16  getMR(void);
 132:DigiShort/ds5300.c **** void  	iinchip_init(void);
 133:DigiShort/ds5300.c **** uint16  IINCHIP_READ(uint32 addr);
 134:DigiShort/ds5300.c **** void    IINCHIP_WRITE(uint32 addr,uint16 data);
 135:DigiShort/ds5300.c **** uint32  wiz_write_buf(SOCKET s, uint8* buf,uint32 len);
 136:DigiShort/ds5300.c **** uint32  wiz_read_buf(SOCKET s, uint8* buf,uint32 len);
 137:DigiShort/ds5300.c **** int 		Rd5300_bl(uint16 addr, uint8* buf, int len);
 138:DigiShort/ds5300.c **** void 		W5300PwrOn(void);
 139:DigiShort/ds5300.c **** void 		W5300PwrOff(void);
 140:DigiShort/ds5300.c **** void 		W5300Init2(void);
 141:DigiShort/ds5300.c **** 
 142:DigiShort/ds5300.c **** 
 143:DigiShort/ds5300.c **** 
 144:DigiShort/ds5300.c **** /***
 145:DigiShort/ds5300.c **** Digital Shortcut Proprietary Interface: LPC2148 to WZ5300
 146:DigiShort/ds5300.c **** 
 147:DigiShort/ds5300.c **** 	LPC2148																			 ___________							WizNet5300
 148:DigiShort/ds5300.c **** 																							|						|
 149:DigiShort/ds5300.c **** 		P1.16-------------------AD0-------------->|2				19|-------------> WizAddr0
 150:DigiShort/ds5300.c **** 																							|						|
 151:DigiShort/ds5300.c **** 		P1.17-------------------AD1-------------->|3				18|-------------> WizAddr1
 152:DigiShort/ds5300.c **** 																							|						|
 153:DigiShort/ds5300.c **** 		P1.18-------------------AD2-------------->|4				17|-------------> WizAddr2
 154:DigiShort/ds5300.c **** 																							|						|
 155:DigiShort/ds5300.c **** 		P1.19-(WIZ_WR)----------WD3-------------->|5				16|-------------> WizWr_L
 156:DigiShort/ds5300.c **** 																							|						|
 157:DigiShort/ds5300.c **** 		P1.20-(WIZ_RD)----------RD4-------------->|6				15|-------------> WizRd_L
 158:DigiShort/ds5300.c **** 																							|						|
 159:DigiShort/ds5300.c **** 		P1.21-(WIZ_RES)---------RsD5------------->|7				14|-------------> WizRes_L
 160:DigiShort/ds5300.c **** 																							|						|
 161:DigiShort/ds5300.c **** 																							|	 74C573		|
 162:DigiShort/ds5300.c **** 																							|						|
 163:DigiShort/ds5300.c **** 		P1.23-(WIZ_ON)----------SD7-------------->|9				12|-------------> WizPwrOn
 164:DigiShort/ds5300.c **** 																							|						|
 165:DigiShort/ds5300.c **** 																							|						|
 166:DigiShort/ds5300.c **** 		P1.24-(LATCH)-----------WLD---|>o---------|11					|
 167:DigiShort/ds5300.c **** 																							|___________|
 168:DigiShort/ds5300.c **** 
 169:DigiShort/ds5300.c **** 		P1.25-(WIZ_CS)----------------|>o----------------------------------->	WizCS_L	
 170:DigiShort/ds5300.c **** 		
 171:DigiShort/ds5300.c ****   Startup Defaults: WLD=0, WIZ_ON=1, WIZ_RES=1, WIZ_CS=0; WIZ_WR=1; WIZ_RD=1;																						
 172:DigiShort/ds5300.c **** 
 173:DigiShort/ds5300.c **** ***/    
 174:DigiShort/ds5300.c **** 
 175:DigiShort/ds5300.c **** void P1Init(void)
 176:DigiShort/ds5300.c **** {
  16              		.loc 1 176 0
  17              		@ Function supports interworking.
  18              		@ args = 0, pretend = 0, frame = 0
  19              		@ frame_needed = 0, uses_anonymous_args = 0
  20              		@ link register save eliminated.
 177:DigiShort/ds5300.c ****   // Initialize P1.16 .. P1.32
 178:DigiShort/ds5300.c ****   // P1.16-P1.24:GPIO or ETM Port, P1.24:GPIO, P1.26-P1.31: GPIO or JTAG Port
 179:DigiShort/ds5300.c ****   
 180:DigiShort/ds5300.c ****   PINSEL2    = 0x4;						// P1.16 .. P1.25 GPIOs, P1.26..P1.31 Jtag port
  21              		.loc 1 180 0
  22 0000 1C309FE5 		ldr	r3, .L3
  23 0004 0420A0E3 		mov	r2, #4
  24 0008 142083E5 		str	r2, [r3, #20]
 181:DigiShort/ds5300.c ****   FIO1DIR    = 0x03FF0000;				// P1.16 .. P1.25 Output
  25              		.loc 1 181 0
  26 000c 14109FE5 		ldr	r1, .L3+4
  27 0010 14309FE5 		ldr	r3, .L3+8
  28 0014 DF3F01E5 		str	r3, [r1, #-4063]
 182:DigiShort/ds5300.c ****   FIO1PIN    = WIZ_ON|WIZ_RD|WIZ_WR|WIZ_RES;		// WizOn=1, LATCH=0, CS=0, Rd=1, Wr=1, /RES=1
  29              		.loc 1 182 0
  30 0018 2E37A0E3 		mov	r3, #12058624
  31              		.loc 1 176 0
  32              		@ lr needed for prologue
  33              		.loc 1 182 0
  34 001c CB3F01E5 		str	r3, [r1, #-4043]
 183:DigiShort/ds5300.c **** }
  35              		.loc 1 183 0
  36 0020 1EFF2FE1 		bx	lr
  37              	.L4:
  38              		.align	2
  39              	.L3:
  40 0024 00C002E0 		.word	-536690688
  41 0028 FFCFFF3F 		.word	1073729535
  42 002c 0000FF03 		.word	67043328
  43              	.LFE2:
  45              		.align	2
  46              		.global	setMR
  48              	setMR:
  49              	.LFB3:
 184:DigiShort/ds5300.c **** 
 185:DigiShort/ds5300.c **** 
 186:DigiShort/ds5300.c **** /***********************
 187:DigiShort/ds5300.c ****  * DS customized I/O  Function *
 188:DigiShort/ds5300.c ****  ***********************/
 189:DigiShort/ds5300.c ****  
 190:DigiShort/ds5300.c **** void     setMR(uint16 val)
 191:DigiShort/ds5300.c **** {
  50              		.loc 1 191 0
  51              		@ Function supports interworking.
  52              		@ args = 0, pretend = 0, frame = 0
  53              		@ frame_needed = 0, uses_anonymous_args = 0
  54              		@ link register save eliminated.
  55              	.LVL0:
  56 0030 0008A0E1 		mov	r0, r0, asl #16
  57              	.LVL1:
  58 0034 2008A0E1 		mov	r0, r0, lsr #16
  59              	.LVL2:
 192:DigiShort/ds5300.c ****   //IINCHIP_CRITICAL_SECTION_ENTER();
 193:DigiShort/ds5300.c ****   
 194:DigiShort/ds5300.c **** 	//WizWrR0 (MR0, (U8)(data>>8));
 195:DigiShort/ds5300.c **** 	FIO1PINU  = W530_MR0a | LATCH_STRBa; // WLD Edge, Wr-0						
  60              		.loc 1 195 0
  61 0038 6C209FE5 		ldr	r2, .L7
 196:DigiShort/ds5300.c **** 	FIO1PINU  = ((val&0xff00)>>8) | WIZ_CSa | LATCH_STRBa; // CS-active, WLD-locked
  62              		.loc 1 196 0
  63 003c 2034A0E1 		mov	r3, r0, lsr #8
  64 0040 033C83E3 		orr	r3, r3, #768
  65              		.loc 1 195 0
  66 0044 1B1EA0E3 		mov	r1, #432	@ movhi
  67 0048 B91C42E1 		strh	r1, [r2, #-201]	@ movhi
  68              		.loc 1 191 0
  69              		@ lr needed for prologue
  70              		.loc 1 196 0
  71 004c B93C42E1 		strh	r3, [r2, #-201]	@ movhi
 197:DigiShort/ds5300.c **** 	asm volatile ("nop");
  72              		.loc 1 197 0
  73 0050 0000A0E1 		nop
 198:DigiShort/ds5300.c **** 	asm volatile ("nop");
  74              		.loc 1 198 0
  75 0054 0000A0E1 		nop
 199:DigiShort/ds5300.c **** 	asm volatile ("nop");
  76              		.loc 1 199 0
  77 0058 0000A0E1 		nop
 200:DigiShort/ds5300.c **** 	
 201:DigiShort/ds5300.c **** 	asm volatile ("nop");
  78              		.loc 1 201 0
  79 005c 0000A0E1 		nop
 202:DigiShort/ds5300.c **** 	asm volatile ("nop");
  80              		.loc 1 202 0
  81 0060 0000A0E1 		nop
 203:DigiShort/ds5300.c **** 	
 204:DigiShort/ds5300.c **** 	FIO1CLRU = WIZ_CSa;
  82              		.loc 1 204 0
  83 0064 021CA0E3 		mov	r1, #512
 205:DigiShort/ds5300.c **** 	FIO1PINU  = W530_MR0IDLEa;	// WLD-transparent Wr-1, CS-inactive 			
  84              		.loc 1 205 0
  85 0068 B830A0E3 		mov	r3, #184	@ movhi
  86              		.loc 1 204 0
  87 006c B11C42E1 		strh	r1, [r2, #-193]	@ movhi
 206:DigiShort/ds5300.c **** 	
 207:DigiShort/ds5300.c **** 	//WizWrR1 (MR1, (U8)(val));
 208:DigiShort/ds5300.c **** 	FIO1PINU  = W530_MR1a | LATCH_STRBa; // WLD Edge, Wr-0						
 209:DigiShort/ds5300.c **** 	FIO1PINU  = (val&0x00ff) | WIZ_CSa | LATCH_STRBa; // CS-active, WLD-locked
  88              		.loc 1 209 0
  89 0070 FF0000E2 		and	r0, r0, #255
  90              	.LVL3:
  91              		.loc 1 205 0
  92 0074 B93C42E1 		strh	r3, [r2, #-201]	@ movhi
  93              		.loc 1 208 0
  94 0078 30309FE5 		ldr	r3, .L7+4
  95              		.loc 1 209 0
  96 007c 030C80E3 		orr	r0, r0, #768
  97              		.loc 1 208 0
  98 0080 B93C42E1 		strh	r3, [r2, #-201]	@ movhi
  99              		.loc 1 209 0
 100 0084 B90C42E1 		strh	r0, [r2, #-201]	@ movhi
 210:DigiShort/ds5300.c **** 	asm volatile ("nop");
 101              		.loc 1 210 0
 102 0088 0000A0E1 		nop
 211:DigiShort/ds5300.c **** 	asm volatile ("nop");
 103              		.loc 1 211 0
 104 008c 0000A0E1 		nop
 212:DigiShort/ds5300.c **** 	asm volatile ("nop");
 105              		.loc 1 212 0
 106 0090 0000A0E1 		nop
 213:DigiShort/ds5300.c **** 	
 214:DigiShort/ds5300.c **** 	asm volatile ("nop");
 107              		.loc 1 214 0
 108 0094 0000A0E1 		nop
 215:DigiShort/ds5300.c **** 	asm volatile ("nop");
 109              		.loc 1 215 0
 110 0098 0000A0E1 		nop
 216:DigiShort/ds5300.c **** 	
 217:DigiShort/ds5300.c **** 	FIO1CLRU = WIZ_CSa;
 111              		.loc 1 217 0
 112 009c B11C42E1 		strh	r1, [r2, #-193]	@ movhi
 218:DigiShort/ds5300.c **** 	FIO1PINU  = W530_MR1IDLEa; // WLD-transparent Wr-1, CS-inactive 	
 113              		.loc 1 218 0
 114 00a0 B910A0E3 		mov	r1, #185	@ movhi
 115 00a4 B91C42E1 		strh	r1, [r2, #-201]	@ movhi
 219:DigiShort/ds5300.c ****       
 220:DigiShort/ds5300.c ****   //IINCHIP_CRITICAL_SECTION_EXIT();
 221:DigiShort/ds5300.c **** 	
 222:DigiShort/ds5300.c **** }
 116              		.loc 1 222 0
 117 00a8 1EFF2FE1 		bx	lr
 118              	.L8:
 119              		.align	2
 120              	.L7:
 121 00ac FFC0FF3F 		.word	1073725695
 122 00b0 B1010000 		.word	433
 123              	.LFE3:
 125              		.align	2
 126              		.global	getMR
 128              	getMR:
 129              	.LFB4:
 223:DigiShort/ds5300.c **** 
 224:DigiShort/ds5300.c **** 
 225:DigiShort/ds5300.c **** uint16   getMR(void)
 226:DigiShort/ds5300.c **** {
 130              		.loc 1 226 0
 131              		@ Function supports interworking.
 132              		@ args = 0, pretend = 0, frame = 0
 133              		@ frame_needed = 0, uses_anonymous_args = 0
 227:DigiShort/ds5300.c **** 	uint16 val;
 228:DigiShort/ds5300.c **** 	uint8 v1, v2;
 229:DigiShort/ds5300.c **** 	
 230:DigiShort/ds5300.c ****   //IINCHIP_CRITICAL_SECTION_ENTER();
 231:DigiShort/ds5300.c ****   
 232:DigiShort/ds5300.c **** 	//WizRdR0 (MR0, (U8)(val>>8));
 233:DigiShort/ds5300.c **** 	FIO1PINU  = R530_MR0a | LATCH_STRBa;	// WLD Edge, Rd-0
 134              		.loc 1 233 0
 135 00b4 8C209FE5 		ldr	r2, .L11
 136              		.loc 1 226 0
 137 00b8 10402DE9 		stmfd	sp!, {r4, lr}
 138              	.LCFI0:
 234:DigiShort/ds5300.c ****   FIO1DIR2  = 0x00;				// P1.16 .. P1.23 Input
 139              		.loc 1 234 0
 140 00bc 0000A0E3 		mov	r0, #0
 235:DigiShort/ds5300.c **** 	FIO1PIN3  = WIZ_CSb | LATCH_STRBb; // CS-active, WLD-locked
 141              		.loc 1 235 0
 142 00c0 0340A0E3 		mov	r4, #3
 143              		.loc 1 233 0
 144 00c4 6A3FA0E3 		mov	r3, #424	@ movhi
 145 00c8 B93C42E1 		strh	r3, [r2, #-201]	@ movhi
 146              		.loc 1 234 0
 147 00cc DD0042E5 		strb	r0, [r2, #-221]
 148              		.loc 1 235 0
 149 00d0 C84042E5 		strb	r4, [r2, #-200]
 236:DigiShort/ds5300.c **** 	asm volatile ("nop");			// Must be 3 NOPs here
 150              		.loc 1 236 0
 151 00d4 0000A0E1 		nop
 237:DigiShort/ds5300.c **** 	asm volatile ("nop");
 152              		.loc 1 237 0
 153 00d8 0000A0E1 		nop
 238:DigiShort/ds5300.c **** 	asm volatile ("nop");
 154              		.loc 1 238 0
 155 00dc 0000A0E1 		nop
 239:DigiShort/ds5300.c **** 	asm volatile ("nop");
 156              		.loc 1 239 0
 157 00e0 0000A0E1 		nop
 240:DigiShort/ds5300.c **** 	v1 = FIO1PIN2;
 158              		.loc 1 240 0
 159 00e4 C91052E5 		ldrb	r1, [r2, #-201]	@ zero_extendqisi2
 160 00e8 FF1001E2 		and	r1, r1, #255
 161              	.LVL4:
 241:DigiShort/ds5300.c **** 	asm volatile ("nop");
 162              		.loc 1 241 0
 163 00ec 0000A0E1 		nop
 242:DigiShort/ds5300.c **** 		
 243:DigiShort/ds5300.c **** 	FIO1PINU  = R530_MR0IDLEa | LATCH_STRBa;	// WLD Edge, Rd-1, CS-inactive 		
 164              		.loc 1 243 0
 165 00f0 6E3FA0E3 		mov	r3, #440	@ movhi
 166 00f4 B93C42E1 		strh	r3, [r2, #-201]	@ movhi
 244:DigiShort/ds5300.c ****   FIO1DIR2  = 0xFF;				// P1.16 .. P1.23 Output
 245:DigiShort/ds5300.c ****   FIO1CLR3 = LATCH_STRBb;
 246:DigiShort/ds5300.c **** 	
 247:DigiShort/ds5300.c **** 	//WizRdR1 (MR1, (U8)(val));
 248:DigiShort/ds5300.c **** 	FIO1PINU  = R530_MR1a | LATCH_STRBa;	// WLD Edge, Rd-0
 167              		.loc 1 248 0
 168 00f8 4C309FE5 		ldr	r3, .L11+4
 169              		.loc 1 244 0
 170 00fc 00C0E0E3 		mvn	ip, #0
 171              		.loc 1 245 0
 172 0100 01E0A0E3 		mov	lr, #1
 173              		.loc 1 244 0
 174 0104 DDC042E5 		strb	ip, [r2, #-221]
 175              		.loc 1 245 0
 176 0108 C0E042E5 		strb	lr, [r2, #-192]
 177              		.loc 1 248 0
 178 010c B93C42E1 		strh	r3, [r2, #-201]	@ movhi
 249:DigiShort/ds5300.c ****   FIO1DIR2  = 0x00;				// P1.16 .. P1.23 Input
 179              		.loc 1 249 0
 180 0110 DD0042E5 		strb	r0, [r2, #-221]
 250:DigiShort/ds5300.c **** 	FIO1PIN3  = WIZ_CSb | LATCH_STRBb; // CS-active, WLD-locked
 181              		.loc 1 250 0
 182 0114 C84042E5 		strb	r4, [r2, #-200]
 251:DigiShort/ds5300.c **** 	asm volatile ("nop");			// Must be 3 NOPs here
 183              		.loc 1 251 0
 184 0118 0000A0E1 		nop
 252:DigiShort/ds5300.c **** 	asm volatile ("nop");
 185              		.loc 1 252 0
 186 011c 0000A0E1 		nop
 253:DigiShort/ds5300.c **** 	asm volatile ("nop");
 187              		.loc 1 253 0
 188 0120 0000A0E1 		nop
 254:DigiShort/ds5300.c **** 	asm volatile ("nop");
 189              		.loc 1 254 0
 190 0124 0000A0E1 		nop
 255:DigiShort/ds5300.c **** 	v2 = FIO1PIN2;
 191              		.loc 1 255 0
 192 0128 C90052E5 		ldrb	r0, [r2, #-201]	@ zero_extendqisi2
 256:DigiShort/ds5300.c ****   
 257:DigiShort/ds5300.c **** 	FIO1PINU  = R530_MR1IDLEa | LATCH_STRBa;	// WLD-transparent Rd-1, CS-inactive 		
 193              		.loc 1 257 0
 194 012c 103083E2 		add	r3, r3, #16
 258:DigiShort/ds5300.c ****   FIO1DIR2  = 0xFF;				// P1.16 .. P1.23 Output
 259:DigiShort/ds5300.c ****   FIO1CLR3 = LATCH_STRBb;
 260:DigiShort/ds5300.c ****   val = (v1<<8)|v2;
 261:DigiShort/ds5300.c ****      
 262:DigiShort/ds5300.c ****   //IINCHIP_CRITICAL_SECTION_EXIT();
 263:DigiShort/ds5300.c ****   
 264:DigiShort/ds5300.c **** 	return val;
 265:DigiShort/ds5300.c **** }
 195              		.loc 1 265 0
 196 0130 010480E1 		orr	r0, r0, r1, asl #8
 197              		.loc 1 257 0
 198 0134 B93C42E1 		strh	r3, [r2, #-201]	@ movhi
 199              		.loc 1 258 0
 200 0138 DDC042E5 		strb	ip, [r2, #-221]
 201              		.loc 1 259 0
 202 013c C0E042E5 		strb	lr, [r2, #-192]
 203              		.loc 1 265 0
 204 0140 1040BDE8 		ldmfd	sp!, {r4, lr}
 205 0144 1EFF2FE1 		bx	lr
 206              	.L12:
 207              		.align	2
 208              	.L11:
 209 0148 FFC0FF3F 		.word	1073725695
 210 014c A9010000 		.word	425
 211              	.LFE4:
 213              		.align	2
 214              		.global	IINCHIP_READ
 216              	IINCHIP_READ:
 217              	.LFB6:
 266:DigiShort/ds5300.c **** 
 267:DigiShort/ds5300.c **** void  iinchip_init(void)
 268:DigiShort/ds5300.c **** {
 269:DigiShort/ds5300.c **** 	setMR( MR_RST );
 270:DigiShort/ds5300.c **** 	delay(2000000);				// wait 200msec 
 271:DigiShort/ds5300.c **** 	setMR( MR_IND );
 272:DigiShort/ds5300.c **** 
 273:DigiShort/ds5300.c **** }
 274:DigiShort/ds5300.c **** 
 275:DigiShort/ds5300.c ****  
 276:DigiShort/ds5300.c **** uint16  IINCHIP_READ(uint32 addr)
 277:DigiShort/ds5300.c **** {
 218              		.loc 1 277 0
 219              		@ Function supports interworking.
 220              		@ args = 0, pretend = 0, frame = 0
 221              		@ frame_needed = 0, uses_anonymous_args = 0
 222              	.LVL5:
 278:DigiShort/ds5300.c **** 	uint16 val;
 279:DigiShort/ds5300.c **** 
 280:DigiShort/ds5300.c ****   //IINCHIP_CRITICAL_SECTION_ENTER();
 281:DigiShort/ds5300.c ****   
 282:DigiShort/ds5300.c **** 	//WizWrR0 (IDM_AR0, (U8)(Addr>>8));
 283:DigiShort/ds5300.c **** 	FIO1PINU  = W530_AR0a | LATCH_STRBa; // WLD Edge, Wr-0				
 284:DigiShort/ds5300.c **** 	FIO1PINU  = ((addr&0xff00)>>8) | WIZ_CSa | LATCH_STRBa; // CS-active, WLD-locked
 223              		.loc 1 284 0
 224 0150 FF3C00E2 		and	r3, r0, #65280
 225              		.loc 1 283 0
 226 0154 C8109FE5 		ldr	r1, .L15
 227 0158 C8209FE5 		ldr	r2, .L15+4
 228              		.loc 1 284 0
 229 015c 2334A0E1 		mov	r3, r3, lsr #8
 230 0160 033C83E3 		orr	r3, r3, #768
 231              		.loc 1 283 0
 232 0164 B92C41E1 		strh	r2, [r1, #-201]	@ movhi
 233              		.loc 1 277 0
 234 0168 10402DE9 		stmfd	sp!, {r4, lr}
 235              	.LCFI1:
 236              		.loc 1 284 0
 237 016c B93C41E1 		strh	r3, [r1, #-201]	@ movhi
 285:DigiShort/ds5300.c **** 	// 2 NOPs here assures min 50ns CS (with LPC2148 run on 60MHz)
 286:DigiShort/ds5300.c **** 	NOP_2					
 238              		.loc 1 286 0
 239 0170 0000A0E1 		nop
 240 0174 0000A0E1 		nop
 287:DigiShort/ds5300.c **** 	FIO1PINU  = W530_AR0IDLEa;	// WLD-transparent Wr-1, CS-inactive 		
 241              		.loc 1 287 0
 242 0178 BA30A0E3 		mov	r3, #186	@ movhi
 243 017c B93C41E1 		strh	r3, [r1, #-201]	@ movhi
 288:DigiShort/ds5300.c **** 	
 289:DigiShort/ds5300.c **** 	//WizWrR0 (IDM_AR1, (U8)(Addr));
 290:DigiShort/ds5300.c **** 	FIO1PINU  = W530_AR1a | LATCH_STRBa; // WLD Edge, Wr-0						
 291:DigiShort/ds5300.c **** 	FIO1PINU  = (addr&0x00ff) | WIZ_CSa | LATCH_STRBa; // CS-active, WLD-locked
 244              		.loc 1 291 0
 245 0180 FF0000E2 		and	r0, r0, #255
 246              	.LVL6:
 247              		.loc 1 290 0
 248 0184 A0309FE5 		ldr	r3, .L15+8
 249              		.loc 1 291 0
 250 0188 030C80E3 		orr	r0, r0, #768
 251              		.loc 1 290 0
 252 018c B93C41E1 		strh	r3, [r1, #-201]	@ movhi
 253              		.loc 1 291 0
 254 0190 B90C41E1 		strh	r0, [r1, #-201]	@ movhi
 292:DigiShort/ds5300.c **** 	// 2 NOPs here assures min 50ns CS (with LPC2148 run on 60MHz)
 293:DigiShort/ds5300.c **** 	NOP_2					
 255              		.loc 1 293 0
 256 0194 0000A0E1 		nop
 257 0198 0000A0E1 		nop
 294:DigiShort/ds5300.c **** 	FIO1PINU  = W530_AR1IDLEa;	// WLD-transparent Wr-1, CS-inactive 		
 258              		.loc 1 294 0
 259 019c BB30A0E3 		mov	r3, #187	@ movhi
 260 01a0 B93C41E1 		strh	r3, [r1, #-201]	@ movhi
 295:DigiShort/ds5300.c **** 
 296:DigiShort/ds5300.c **** 	//WizRdR0 (IDM_DR0, (U8)(val>>8));
 297:DigiShort/ds5300.c **** 	FIO1PINU  = R530_DR0a | LATCH_STRBa;	// WLD Edge, Rd-0	
 298:DigiShort/ds5300.c ****   FIO1DIR2  = 0x00;				// P1.16 .. P1.23 Input
 261              		.loc 1 298 0
 262 01a4 0000A0E3 		mov	r0, #0
 299:DigiShort/ds5300.c **** 	FIO1PIN3  = WIZ_CSb | LATCH_STRBb; // CS-active, WLD-locked
 263              		.loc 1 299 0
 264 01a8 0340A0E3 		mov	r4, #3
 265              		.loc 1 297 0
 266 01ac 6B3FA0E3 		mov	r3, #428	@ movhi
 267 01b0 B93C41E1 		strh	r3, [r1, #-201]	@ movhi
 268              		.loc 1 298 0
 269 01b4 DD0041E5 		strb	r0, [r1, #-221]
 270              		.loc 1 299 0
 271 01b8 C84041E5 		strb	r4, [r1, #-200]
 300:DigiShort/ds5300.c **** 	NOP_3					// Must be 3 NOPs here
 272              		.loc 1 300 0
 273 01bc 0000A0E1 		nop
 274 01c0 0000A0E1 		nop
 275 01c4 0000A0E1 		nop
 301:DigiShort/ds5300.c **** 	val = FIO1PIN2<<8;
 302:DigiShort/ds5300.c **** 
 303:DigiShort/ds5300.c **** 	FIO1PINU  = R530_DR0IDLEa | LATCH_STRBa;	// WLD Edge, Rd-1, CS-inactive 		
 276              		.loc 1 303 0
 277 01c8 6F3FA0E3 		mov	r3, #444	@ movhi
 278              		.loc 1 301 0
 279 01cc C92051E5 		ldrb	r2, [r1, #-201]	@ zero_extendqisi2
 280              		.loc 1 303 0
 281 01d0 B93C41E1 		strh	r3, [r1, #-201]	@ movhi
 304:DigiShort/ds5300.c ****   FIO1DIR2  = 0xFF;				// P1.16 .. P1.23 Output
 305:DigiShort/ds5300.c ****   FIO1CLR3 = LATCH_STRBb;
 306:DigiShort/ds5300.c **** 	
 307:DigiShort/ds5300.c **** 	//WizRdR1 (IDM_DR1, (U8)(val));
 308:DigiShort/ds5300.c **** 	FIO1PINU  = R530_DR1a | LATCH_STRBa;	// WLD Edge, Rd-0
 282              		.loc 1 308 0
 283 01d4 54309FE5 		ldr	r3, .L15+12
 284              		.loc 1 304 0
 285 01d8 00C0E0E3 		mvn	ip, #0
 286              		.loc 1 305 0
 287 01dc 01E0A0E3 		mov	lr, #1
 288              		.loc 1 304 0
 289 01e0 DDC041E5 		strb	ip, [r1, #-221]
 290              		.loc 1 301 0
 291 01e4 0224A0E1 		mov	r2, r2, asl #8
 292              	.LVL7:
 293              		.loc 1 305 0
 294 01e8 C0E041E5 		strb	lr, [r1, #-192]
 295              		.loc 1 308 0
 296 01ec B93C41E1 		strh	r3, [r1, #-201]	@ movhi
 309:DigiShort/ds5300.c ****   FIO1DIR2  = 0x00;				// P1.16 .. P1.23 Input
 297              		.loc 1 309 0
 298 01f0 DD0041E5 		strb	r0, [r1, #-221]
 310:DigiShort/ds5300.c **** 	FIO1PIN3  = WIZ_CSb | LATCH_STRBb; // CS-active, WLD-locked
 299              		.loc 1 310 0
 300 01f4 C84041E5 		strb	r4, [r1, #-200]
 311:DigiShort/ds5300.c **** 	NOP_3					// Must be 3 NOPs here
 301              		.loc 1 311 0
 302 01f8 0000A0E1 		nop
 303 01fc 0000A0E1 		nop
 304 0200 0000A0E1 		nop
 312:DigiShort/ds5300.c **** 	val |= FIO1PIN2;
 305              		.loc 1 312 0
 306 0204 C90051E5 		ldrb	r0, [r1, #-201]	@ zero_extendqisi2
 313:DigiShort/ds5300.c **** 		
 314:DigiShort/ds5300.c **** 	FIO1PINU  = R530_DR1IDLEa | LATCH_STRBa;	// WLD-transparent Rd-1, CS-inactive 		
 307              		.loc 1 314 0
 308 0208 103083E2 		add	r3, r3, #16
 315:DigiShort/ds5300.c ****   FIO1DIR2  = 0xFF;				// P1.16 .. P1.23 Output
 316:DigiShort/ds5300.c ****   FIO1CLR3 = LATCH_STRBb;
 317:DigiShort/ds5300.c ****     
 318:DigiShort/ds5300.c ****   //IINCHIP_CRITICAL_SECTION_EXIT();
 319:DigiShort/ds5300.c ****   
 320:DigiShort/ds5300.c **** 	return val;
 321:DigiShort/ds5300.c **** }
 309              		.loc 1 321 0
 310 020c 000082E1 		orr	r0, r2, r0
 311              		.loc 1 314 0
 312 0210 B93C41E1 		strh	r3, [r1, #-201]	@ movhi
 313              		.loc 1 315 0
 314 0214 DDC041E5 		strb	ip, [r1, #-221]
 315              		.loc 1 316 0
 316 0218 C0E041E5 		strb	lr, [r1, #-192]
 317              		.loc 1 321 0
 318 021c 1040BDE8 		ldmfd	sp!, {r4, lr}
 319 0220 1EFF2FE1 		bx	lr
 320              	.L16:
 321              		.align	2
 322              	.L15:
 323 0224 FFC0FF3F 		.word	1073725695
 324 0228 B2010000 		.word	434
 325 022c B3010000 		.word	435
 326 0230 AD010000 		.word	429
 327              	.LFE6:
 329              		.align	2
 330              		.global	IINCHIP_WRITE
 332              	IINCHIP_WRITE:
 333              	.LFB7:
 322:DigiShort/ds5300.c **** 
 323:DigiShort/ds5300.c **** void  IINCHIP_WRITE(uint32 addr,uint16 data)
 324:DigiShort/ds5300.c **** {
 334              		.loc 1 324 0
 335              		@ Function supports interworking.
 336              		@ args = 0, pretend = 0, frame = 0
 337              		@ frame_needed = 0, uses_anonymous_args = 0
 338              		@ link register save eliminated.
 339              	.LVL8:
 325:DigiShort/ds5300.c ****   //IINCHIP_CRITICAL_SECTION_ENTER();
 326:DigiShort/ds5300.c ****   
 327:DigiShort/ds5300.c **** 	//WR5300_AR0	= (IDM_AR0_<<16)|WIZ_RD|WIZ_RES|WIZ_ON|LATCH_STRB
 328:DigiShort/ds5300.c **** 	FIO1PINU  = W530_AR0a | LATCH_STRBa; // WLD Edge, Wr-0				
 329:DigiShort/ds5300.c **** 	FIO1PINU  = ((addr&0xff00)>>8) | WIZ_CSa | LATCH_STRBa; // CS-active, WLD-locked
 340              		.loc 1 329 0
 341 0234 FF2C00E2 		and	r2, r0, #65280
 342              		.loc 1 328 0
 343 0238 98C09FE5 		ldr	ip, .L19
 344 023c 98309FE5 		ldr	r3, .L19+4
 345              		.loc 1 329 0
 346 0240 2224A0E1 		mov	r2, r2, lsr #8
 347 0244 032C82E3 		orr	r2, r2, #768
 348              		.loc 1 324 0
 349 0248 0118A0E1 		mov	r1, r1, asl #16
 350              	.LVL9:
 351              		.loc 1 328 0
 352 024c B93C4CE1 		strh	r3, [ip, #-201]	@ movhi
 353              		.loc 1 324 0
 354              		@ lr needed for prologue
 355              		.loc 1 329 0
 356 0250 B92C4CE1 		strh	r2, [ip, #-201]	@ movhi
 357              		.loc 1 324 0
 358 0254 2118A0E1 		mov	r1, r1, lsr #16
 359              	.LVL10:
 330:DigiShort/ds5300.c **** 	// 2 NOPs here assures min 50ns CS (with LPC2148 run on 60MHz)
 331:DigiShort/ds5300.c **** 	NOP_2					
 360              		.loc 1 331 0
 361 0258 0000A0E1 		nop
 362 025c 0000A0E1 		nop
 332:DigiShort/ds5300.c **** 	FIO1PINU  = W530_AR0IDLEa;	// WLD-transparent Wr-1, CS-inactive 		
 333:DigiShort/ds5300.c **** 	
 334:DigiShort/ds5300.c **** 	//WizWrR0 (IDM_AR1, (U8)(Addr));
 335:DigiShort/ds5300.c **** 	FIO1PINU  = W530_AR1a | LATCH_STRBa; // WLD Edge, Wr-0						
 336:DigiShort/ds5300.c **** 	FIO1PINU  = (addr&0x00ff) | WIZ_CSa | LATCH_STRBa; // CS-active, WLD-locked
 363              		.loc 1 336 0
 364 0260 FF0000E2 		and	r0, r0, #255
 365              	.LVL11:
 366 0264 030C80E3 		orr	r0, r0, #768
 367              		.loc 1 332 0
 368 0268 BA20A0E3 		mov	r2, #186	@ movhi
 369              		.loc 1 335 0
 370 026c 013083E2 		add	r3, r3, #1
 371              		.loc 1 332 0
 372 0270 B92C4CE1 		strh	r2, [ip, #-201]	@ movhi
 373              		.loc 1 335 0
 374 0274 B93C4CE1 		strh	r3, [ip, #-201]	@ movhi
 375              		.loc 1 336 0
 376 0278 B90C4CE1 		strh	r0, [ip, #-201]	@ movhi
 337:DigiShort/ds5300.c **** 	// 2 NOPs here assures min 50ns CS (with LPC2148 run on 60MHz)
 338:DigiShort/ds5300.c **** 	NOP_2					
 377              		.loc 1 338 0
 378 027c 0000A0E1 		nop
 379 0280 0000A0E1 		nop
 339:DigiShort/ds5300.c **** 	FIO1PINU  = W530_AR1IDLEa;	// WLD-transparent Wr-1, CS-inactive 		
 380              		.loc 1 339 0
 381 0284 BB20A0E3 		mov	r2, #187	@ movhi
 340:DigiShort/ds5300.c **** 	
 341:DigiShort/ds5300.c **** 	//WizWrR0 (IDM_DR0, (U8)(val>>8));
 342:DigiShort/ds5300.c **** 	FIO1PINU  = W530_DR0a | LATCH_STRBa; // WLD Edge, Wr-0						
 343:DigiShort/ds5300.c **** 	FIO1PINU  = ((data&0xff00)>>8) | WIZ_CSa | LATCH_STRBa; // CS-active, WLD-locked
 382              		.loc 1 343 0
 383 0288 2134A0E1 		mov	r3, r1, lsr #8
 384              		.loc 1 339 0
 385 028c B92C4CE1 		strh	r2, [ip, #-201]	@ movhi
 386              		.loc 1 343 0
 387 0290 033C83E3 		orr	r3, r3, #768
 388              		.loc 1 342 0
 389 0294 6D2FA0E3 		mov	r2, #436	@ movhi
 390 0298 B92C4CE1 		strh	r2, [ip, #-201]	@ movhi
 391              		.loc 1 343 0
 392 029c B93C4CE1 		strh	r3, [ip, #-201]	@ movhi
 344:DigiShort/ds5300.c **** 	// 2 NOPs here assures min 50ns CS (with LPC2148 run on 60MHz)
 345:DigiShort/ds5300.c **** 	NOP_2					
 393              		.loc 1 345 0
 394 02a0 0000A0E1 		nop
 395 02a4 0000A0E1 		nop
 346:DigiShort/ds5300.c **** 	FIO1PINU  = W530_DR0IDLEa;	// WLD-transparent Wr-1, CS-inactive 			
 396              		.loc 1 346 0
 397 02a8 BC30A0E3 		mov	r3, #188	@ movhi
 398 02ac B93C4CE1 		strh	r3, [ip, #-201]	@ movhi
 347:DigiShort/ds5300.c **** 	
 348:DigiShort/ds5300.c **** 	//WizWrR1 (IDM_DR1, (U8)(val));
 349:DigiShort/ds5300.c **** 	FIO1PINU  = W530_DR1a | LATCH_STRBa; // WLD Edge, Wr-0						
 350:DigiShort/ds5300.c **** 	FIO1PINU  = (data&0x00ff) | WIZ_CSa | LATCH_STRBa; // CS-active, WLD-locked
 399              		.loc 1 350 0
 400 02b0 FF1001E2 		and	r1, r1, #255
 401              	.LVL12:
 402              		.loc 1 349 0
 403 02b4 24309FE5 		ldr	r3, .L19+8
 404              		.loc 1 350 0
 405 02b8 031C81E3 		orr	r1, r1, #768
 406              		.loc 1 349 0
 407 02bc B93C4CE1 		strh	r3, [ip, #-201]	@ movhi
 408              		.loc 1 350 0
 409 02c0 B91C4CE1 		strh	r1, [ip, #-201]	@ movhi
 351:DigiShort/ds5300.c **** 	// 2 NOPs here assures min 50ns CS (with LPC2148 run on 60MHz)
 352:DigiShort/ds5300.c **** 	NOP_2					
 410              		.loc 1 352 0
 411 02c4 0000A0E1 		nop
 412 02c8 0000A0E1 		nop
 353:DigiShort/ds5300.c **** 	FIO1PINU  = W530_DR1IDLEa; // WLD-transparent Wr-1, CS-inactive 
 413              		.loc 1 353 0
 414 02cc BD20A0E3 		mov	r2, #189	@ movhi
 415 02d0 B92C4CE1 		strh	r2, [ip, #-201]	@ movhi
 354:DigiShort/ds5300.c **** 		
 355:DigiShort/ds5300.c ****   //IINCHIP_CRITICAL_SECTION_EXIT();
 356:DigiShort/ds5300.c **** 
 357:DigiShort/ds5300.c **** }
 416              		.loc 1 357 0
 417 02d4 1EFF2FE1 		bx	lr
 418              	.L20:
 419              		.align	2
 420              	.L19:
 421 02d8 FFC0FF3F 		.word	1073725695
 422 02dc B2010000 		.word	434
 423 02e0 B5010000 		.word	437
 424              	.LFE7:
 426              		.align	2
 427              		.global	wiz_write_buf
 429              	wiz_write_buf:
 430              	.LFB8:
 358:DigiShort/ds5300.c **** 
 359:DigiShort/ds5300.c **** 
 360:DigiShort/ds5300.c **** uint32   wiz_write_buf(SOCKET s, uint8* buf, uint32 len)
 361:DigiShort/ds5300.c **** {
 431              		.loc 1 361 0
 432              		@ Function supports interworking.
 433              		@ args = 0, pretend = 0, frame = 0
 434              		@ frame_needed = 0, uses_anonymous_args = 0
 435              	.LVL13:
 436 02e4 0003A0E1 		mov	r0, r0, asl #6
 362:DigiShort/ds5300.c ****   uint32 idx=0;
 363:DigiShort/ds5300.c ****   uint16 addr;
 364:DigiShort/ds5300.c ****   uint8	 data;
 365:DigiShort/ds5300.c ****   int	tcnt;
 366:DigiShort/ds5300.c ****   
 367:DigiShort/ds5300.c ****   //IINCHIP_CRITICAL_SECTION_ENTER();
 368:DigiShort/ds5300.c ****   
 369:DigiShort/ds5300.c ****   addr = Sn_TX_FIFOR(s);
 437              		.loc 1 369 0
 438 02e8 FF0D00E2 		and	r0, r0, #16320
 439              	.LVL14:
 440 02ec 8B0F80E2 		add	r0, r0, #556
 441              	.LVL15:
 442 02f0 020080E2 		add	r0, r0, #2
 443              		.loc 1 361 0
 444 02f4 70402DE9 		stmfd	sp!, {r4, r5, r6, lr}
 445              	.LCFI2:
 370:DigiShort/ds5300.c ****   
 371:DigiShort/ds5300.c ****   //WizWrR0 (IDM_AR0, (U8)(Addr>>8));
 372:DigiShort/ds5300.c **** 	FIO1PINU  = W530_AR0a | LATCH_STRBa; // WLD Edge, Wr-0				
 373:DigiShort/ds5300.c **** 	FIO1PINU  = ((addr&0xff00)>>8) | WIZ_CSa | LATCH_STRBa; // CS-active, WLD-locked
 446              		.loc 1 373 0
 447 02f8 2034A0E1 		mov	r3, r0, lsr #8
 448              		.loc 1 372 0
 449 02fc 44E19FE5 		ldr	lr, .L32
 450 0300 44C19FE5 		ldr	ip, .L32+4
 451              		.loc 1 373 0
 452 0304 033C83E3 		orr	r3, r3, #768
 453              		.loc 1 372 0
 454 0308 B9CC4EE1 		strh	ip, [lr, #-201]	@ movhi
 455              		.loc 1 361 0
 456 030c 0240A0E1 		mov	r4, r2
 457              		.loc 1 373 0
 458 0310 B93C4EE1 		strh	r3, [lr, #-201]	@ movhi
 374:DigiShort/ds5300.c **** 	// 2 NOPs here assures min 50ns CS (with LPC2148 run on 60MHz)
 375:DigiShort/ds5300.c **** 	NOP_2					
 459              		.loc 1 375 0
 460 0314 0000A0E1 		nop
 461 0318 0000A0E1 		nop
 376:DigiShort/ds5300.c **** 	FIO1PINU  = W530_AR0IDLEa;	// WLD-transparent Wr-1, CS-inactive 	
 377:DigiShort/ds5300.c **** 	
 378:DigiShort/ds5300.c **** 	//WizWrR0 (IDM_AR1, (U8)(Addr));
 379:DigiShort/ds5300.c **** 	FIO1PINU  = W530_AR1a | LATCH_STRBa; // WLD Edge, Wr-0						
 462              		.loc 1 379 0
 463 031c 2C319FE5 		ldr	r3, .L32+8
 380:DigiShort/ds5300.c **** 	FIO1PINU  = (addr&0x00ff) | WIZ_CSa | LATCH_STRBa;; // CS-active, WLD-locked
 464              		.loc 1 380 0
 465 0320 FF0000E2 		and	r0, r0, #255
 466              	.LVL16:
 467 0324 030C80E3 		orr	r0, r0, #768
 468              		.loc 1 376 0
 469 0328 BA20A0E3 		mov	r2, #186	@ movhi
 470              	.LVL17:
 471 032c B92C4EE1 		strh	r2, [lr, #-201]	@ movhi
 472              		.loc 1 379 0
 473 0330 B93C4EE1 		strh	r3, [lr, #-201]	@ movhi
 474              		.loc 1 380 0
 475 0334 B90C4EE1 		strh	r0, [lr, #-201]	@ movhi
 381:DigiShort/ds5300.c **** 	// 2 NOPs here assures min 50ns CS (with LPC2148 run on 60MHz)
 382:DigiShort/ds5300.c **** 	NOP_2					
 476              		.loc 1 382 0
 477 0338 0000A0E1 		nop
 478 033c 0000A0E1 		nop
 383:DigiShort/ds5300.c **** 	FIO1PINU  = W530_AR1IDLEa;	// WLD-transparent Wr-1, CS-inactive 		
 479              		.loc 1 383 0
 480 0340 BB30A0E3 		mov	r3, #187	@ movhi
 384:DigiShort/ds5300.c ****   
 385:DigiShort/ds5300.c ****   idx = 0;
 386:DigiShort/ds5300.c ****   data = *(buf+idx);
 387:DigiShort/ds5300.c **** 	// For speed purpose write linear block 4-byte long
 388:DigiShort/ds5300.c **** 	if ( len > 4 )	{
 481              		.loc 1 388 0
 482 0344 040054E3 		cmp	r4, #4
 483              		.loc 1 383 0
 484 0348 B93C4EE1 		strh	r3, [lr, #-201]	@ movhi
 389:DigiShort/ds5300.c **** 		tcnt = len >> 2;	// len/4
 485              		.loc 1 389 0
 486 034c 2451A081 		movhi	r5, r4, lsr #2
 487              		.loc 1 386 0
 488 0350 00E0D1E5 		ldrb	lr, [r1, #0]	@ zero_extendqisi2
 489              	.LVL18:
 490              		.loc 1 388 0
 491 0354 00C0A093 		movls	ip, #0
 492              	.LVL19:
 493              		.loc 1 389 0
 494 0358 0520A081 		movhi	r2, r5
 495              	.LVL20:
 496 035c 01C0A081 		movhi	ip, r1
 497              	.LVL21:
 498              		.loc 1 388 0
 499 0360 1A00008A 		bhi	.L25
 500 0364 200000EA 		b	.L24
 501              	.L26:
 390:DigiShort/ds5300.c **** 	  while ( tcnt>0 ) {
 391:DigiShort/ds5300.c **** 			//WizWrR0 (IDM_DR0, (U8)(data>>8));
 392:DigiShort/ds5300.c **** 			FIO1PINU  = W530_DR0a | LATCH_STRBa; // WLD Edge, Wr-0						
 502              		.loc 1 392 0
 503 0368 6DEFA0E3 		mov	lr, #436	@ movhi
 504              	.LVL22:
 505 036c B9EC40E1 		strh	lr, [r0, #-201]	@ movhi
 393:DigiShort/ds5300.c **** 			FIO1PINU  =  data | WIZ_CSa | LATCH_STRBa; // CS-active, WLD-locked
 506              		.loc 1 393 0
 507 0370 B93C40E1 		strh	r3, [r0, #-201]	@ movhi
 394:DigiShort/ds5300.c **** 			idx++;
 395:DigiShort/ds5300.c **** 			data = *(buf+idx);
 396:DigiShort/ds5300.c **** 			FIO1PINU  = W530_DR0IDLEa;	// WLD-transparent Wr-1, CS-inactive
 508              		.loc 1 396 0
 509 0374 BC30A0E3 		mov	r3, #188	@ movhi
 510 0378 B93C40E1 		strh	r3, [r0, #-201]	@ movhi
 397:DigiShort/ds5300.c **** 		
 398:DigiShort/ds5300.c **** 			//WizWrR1 (IDM_DR1, (U8)(data));
 399:DigiShort/ds5300.c **** 			FIO1PINU  = W530_DR1a | LATCH_STRBa; // WLD Edge, Wr-0						
 511              		.loc 1 399 0
 512 037c B96C40E1 		strh	r6, [r0, #-201]	@ movhi
 400:DigiShort/ds5300.c **** 			FIO1PINU  = data | WIZ_CSa | LATCH_STRBa; // CS-active, WLD-locked
 513              		.loc 1 400 0
 514 0380 0130DCE5 		ldrb	r3, [ip, #1]	@ zero_extendqisi2
 515 0384 033C83E3 		orr	r3, r3, #768
 516 0388 B93C40E1 		strh	r3, [r0, #-201]	@ movhi
 401:DigiShort/ds5300.c **** 			idx++;
 402:DigiShort/ds5300.c **** 			data = *(buf+idx);
 403:DigiShort/ds5300.c **** 			FIO1PINU  = W530_DR1IDLEa; // WLD-transparent Wr-1, CS-inactive 
 517              		.loc 1 403 0
 518 038c BDE0A0E3 		mov	lr, #189	@ movhi
 404:DigiShort/ds5300.c **** 				
 405:DigiShort/ds5300.c **** 			//WizWrR0 (IDM_DR0, (U8)(data>>8));
 406:DigiShort/ds5300.c **** 			FIO1PINU  = W530_DR0a | LATCH_STRBa; // WLD Edge, Wr-0						
 519              		.loc 1 406 0
 520 0390 6D3FA0E3 		mov	r3, #436	@ movhi
 521              		.loc 1 403 0
 522 0394 B9EC40E1 		strh	lr, [r0, #-201]	@ movhi
 523              		.loc 1 406 0
 524 0398 B93C40E1 		strh	r3, [r0, #-201]	@ movhi
 407:DigiShort/ds5300.c **** 			FIO1PINU  =  data | WIZ_CSa | LATCH_STRBa; // CS-active, WLD-locked
 525              		.loc 1 407 0
 526 039c 0230DCE5 		ldrb	r3, [ip, #2]	@ zero_extendqisi2
 408:DigiShort/ds5300.c **** 			idx++;
 409:DigiShort/ds5300.c **** 			data = *(buf+idx);
 410:DigiShort/ds5300.c **** 			FIO1PINU  = W530_DR0IDLEa;	// WLD-transparent Wr-1, CS-inactive
 527              		.loc 1 410 0
 528 03a0 BCE0A0E3 		mov	lr, #188	@ movhi
 529              		.loc 1 407 0
 530 03a4 033C83E3 		orr	r3, r3, #768
 531 03a8 B93C40E1 		strh	r3, [r0, #-201]	@ movhi
 532              		.loc 1 410 0
 533 03ac B9EC40E1 		strh	lr, [r0, #-201]	@ movhi
 411:DigiShort/ds5300.c **** 		
 412:DigiShort/ds5300.c **** 			//WizWrR1 (IDM_DR1, (U8)(data));
 413:DigiShort/ds5300.c **** 			FIO1PINU  = W530_DR1a | LATCH_STRBa; // WLD Edge, Wr-0						
 534              		.loc 1 413 0
 535 03b0 B96C40E1 		strh	r6, [r0, #-201]	@ movhi
 414:DigiShort/ds5300.c **** 			FIO1PINU  = data | WIZ_CSa | LATCH_STRBa; // CS-active, WLD-locked
 536              		.loc 1 414 0
 537 03b4 0330DCE5 		ldrb	r3, [ip, #3]	@ zero_extendqisi2
 538 03b8 033C83E3 		orr	r3, r3, #768
 539 03bc B93C40E1 		strh	r3, [r0, #-201]	@ movhi
 415:DigiShort/ds5300.c **** 			idx++;
 416:DigiShort/ds5300.c **** 			data = *(buf+idx);
 417:DigiShort/ds5300.c **** 			FIO1PINU  = W530_DR1IDLEa; // WLD-transparent Wr-1, CS-inactive 
 540              		.loc 1 417 0
 541 03c0 BD30A0E3 		mov	r3, #189	@ movhi
 542              		.loc 1 416 0
 543 03c4 04E0FCE5 		ldrb	lr, [ip, #4]!	@ zero_extendqisi2
 544              	.LVL23:
 545              		.loc 1 417 0
 546 03c8 B93C40E1 		strh	r3, [r0, #-201]	@ movhi
 418:DigiShort/ds5300.c **** 			
 419:DigiShort/ds5300.c **** 			tcnt--;	
 547              		.loc 1 419 0
 548 03cc 012042E2 		sub	r2, r2, #1
 549              	.L25:
 550              		.loc 1 390 0
 551 03d0 000052E3 		cmp	r2, #0
 552              		.loc 1 392 0
 553 03d4 6C009FE5 		ldr	r0, .L32
 554              		.loc 1 399 0
 555 03d8 74609FE5 		ldr	r6, .L32+12
 556              		.loc 1 393 0
 557 03dc 033C8EE3 		orr	r3, lr, #768
 558              		.loc 1 390 0
 559 03e0 E0FFFFCA 		bgt	.L26
 560 03e4 053062E0 		rsb	r3, r2, r5
 561 03e8 03C1A0E1 		mov	ip, r3, asl #2
 562              	.LVL24:
 563              	.L24:
 564 03ec 0C1081E0 		add	r1, r1, ip
 565              	.LVL25:
 566 03f0 0C0000EA 		b	.L28
 567              	.L29:
 420:DigiShort/ds5300.c **** 		}
 421:DigiShort/ds5300.c **** 	}
 422:DigiShort/ds5300.c ****   
 423:DigiShort/ds5300.c ****   while ( idx < len ) {
 424:DigiShort/ds5300.c **** 		//WizWrR0 (IDM_DR0, (U8)(data>>8));
 425:DigiShort/ds5300.c **** 		FIO1PINU  = W530_DR0a | LATCH_STRBa; // WLD Edge, Wr-0						
 568              		.loc 1 425 0
 569 03f4 6DEFA0E3 		mov	lr, #436	@ movhi
 570              	.LVL26:
 571 03f8 B9EC40E1 		strh	lr, [r0, #-201]	@ movhi
 426:DigiShort/ds5300.c **** 		FIO1PINU  =  data | WIZ_CSa | LATCH_STRBa; // CS-active, WLD-locked
 572              		.loc 1 426 0
 573 03fc B93C40E1 		strh	r3, [r0, #-201]	@ movhi
 427:DigiShort/ds5300.c **** 		idx++;
 428:DigiShort/ds5300.c **** 		data = *(buf+idx);
 429:DigiShort/ds5300.c **** 		FIO1PINU  = W530_DR0IDLEa;	// WLD-transparent Wr-1, CS-inactive
 430:DigiShort/ds5300.c **** 		
 431:DigiShort/ds5300.c **** 		//WizWrR1 (IDM_DR1, (U8)(data));
 432:DigiShort/ds5300.c **** 		FIO1PINU  = W530_DR1a | LATCH_STRBa; // WLD Edge, Wr-0						
 574              		.loc 1 432 0
 575 0400 4C309FE5 		ldr	r3, .L32+12
 576              		.loc 1 429 0
 577 0404 BC20A0E3 		mov	r2, #188	@ movhi
 578              	.LVL27:
 579 0408 B92C40E1 		strh	r2, [r0, #-201]	@ movhi
 580              		.loc 1 432 0
 581 040c B93C40E1 		strh	r3, [r0, #-201]	@ movhi
 433:DigiShort/ds5300.c **** 		FIO1PINU  = data | WIZ_CSa | LATCH_STRBa; // CS-active, WLD-locked
 582              		.loc 1 433 0
 583 0410 0130D1E5 		ldrb	r3, [r1, #1]	@ zero_extendqisi2
 584 0414 033C83E3 		orr	r3, r3, #768
 585 0418 B93C40E1 		strh	r3, [r0, #-201]	@ movhi
 434:DigiShort/ds5300.c **** 		idx++;
 435:DigiShort/ds5300.c **** 		data = *(buf+idx);
 436:DigiShort/ds5300.c **** 		FIO1PINU  = W530_DR1IDLEa; // WLD-transparent Wr-1, CS-inactive 	
 586              		.loc 1 436 0
 587 041c BD30A0E3 		mov	r3, #189	@ movhi
 588              		.loc 1 435 0
 589 0420 02E0F1E5 		ldrb	lr, [r1, #2]!	@ zero_extendqisi2
 590              	.LVL28:
 591              		.loc 1 436 0
 592 0424 B93C40E1 		strh	r3, [r0, #-201]	@ movhi
 593              	.LVL29:
 594              	.L28:
 595              		.loc 1 423 0
 596 0428 04005CE1 		cmp	ip, r4
 597              		.loc 1 425 0
 598 042c 14009FE5 		ldr	r0, .L32
 599              		.loc 1 426 0
 600 0430 033C8EE3 		orr	r3, lr, #768
 601              		.loc 1 433 0
 602 0434 02C08CE2 		add	ip, ip, #2
 603              		.loc 1 423 0
 604 0438 EDFFFF3A 		bcc	.L29
 437:DigiShort/ds5300.c **** 	}
 438:DigiShort/ds5300.c ****   //IINCHIP_CRITICAL_SECTION_EXIT();
 439:DigiShort/ds5300.c **** 	
 440:DigiShort/ds5300.c ****   return len;   
 441:DigiShort/ds5300.c **** 
 442:DigiShort/ds5300.c **** }
 605              		.loc 1 442 0
 606 043c 0400A0E1 		mov	r0, r4
 607 0440 7040BDE8 		ldmfd	sp!, {r4, r5, r6, lr}
 608 0444 1EFF2FE1 		bx	lr
 609              	.L33:
 610              		.align	2
 611              	.L32:
 612 0448 FFC0FF3F 		.word	1073725695
 613 044c B2010000 		.word	434
 614 0450 B3010000 		.word	435
 615 0454 B5010000 		.word	437
 616              	.LFE8:
 618              		.align	2
 619              		.global	wiz_read_buf
 621              	wiz_read_buf:
 622              	.LFB9:
 443:DigiShort/ds5300.c **** 
 444:DigiShort/ds5300.c **** 
 445:DigiShort/ds5300.c **** uint32   wiz_read_buf(SOCKET s, uint8* buf, uint32 len)
 446:DigiShort/ds5300.c **** {
 623              		.loc 1 446 0
 624              		@ Function supports interworking.
 625              		@ args = 0, pretend = 0, frame = 0
 626              		@ frame_needed = 0, uses_anonymous_args = 0
 627              	.LVL30:
 628 0458 0003A0E1 		mov	r0, r0, asl #6
 447:DigiShort/ds5300.c ****   uint32 idx=0;
 448:DigiShort/ds5300.c ****   uint16 addr;
 449:DigiShort/ds5300.c ****   int	tcnt;
 450:DigiShort/ds5300.c ****   
 451:DigiShort/ds5300.c ****   addr = Sn_RX_FIFOR(s);		// Socket(s) RX_FIFO_REG addr
 629              		.loc 1 451 0
 630 045c FF0D00E2 		and	r0, r0, #16320
 631              	.LVL31:
 632 0460 230E80E2 		add	r0, r0, #560
 633              	.LVL32:
 634              		.loc 1 446 0
 635 0464 F0472DE9 		stmfd	sp!, {r4, r5, r6, r7, r8, r9, sl, lr}
 636              	.LCFI3:
 452:DigiShort/ds5300.c ****   
 453:DigiShort/ds5300.c ****   //WizWrR0 (IDM_AR0, (U8)(Addr>>8));
 454:DigiShort/ds5300.c **** 	FIO1PINU  = W530_AR0a | LATCH_STRBa; // WLD Edge, Wr-0				
 455:DigiShort/ds5300.c **** 	FIO1PINU  = ((addr&0xff00)>>8) | WIZ_CSa | LATCH_STRBa; // CS-active, WLD-locked
 637              		.loc 1 455 0
 638 0468 2034A0E1 		mov	r3, r0, lsr #8
 639              		.loc 1 454 0
 640 046c B4E29FE5 		ldr	lr, .L45
 641 0470 B4C29FE5 		ldr	ip, .L45+4
 642              		.loc 1 455 0
 643 0474 033C83E3 		orr	r3, r3, #768
 644              		.loc 1 454 0
 645 0478 B9CC4EE1 		strh	ip, [lr, #-201]	@ movhi
 646              		.loc 1 446 0
 647 047c 0190A0E1 		mov	r9, r1
 648              		.loc 1 455 0
 649 0480 B93C4EE1 		strh	r3, [lr, #-201]	@ movhi
 650              		.loc 1 446 0
 651 0484 0280A0E1 		mov	r8, r2
 456:DigiShort/ds5300.c **** 	// 2 NOPs here assures min 50ns CS (with LPC2148 run on 60MHz)
 457:DigiShort/ds5300.c **** 	NOP_2					
 652              		.loc 1 457 0
 653 0488 0000A0E1 		nop
 654 048c 0000A0E1 		nop
 458:DigiShort/ds5300.c **** 	FIO1PINU  = W530_AR0IDLEa;	// WLD-transparent Wr-1, CS-inactive 	
 655              		.loc 1 458 0
 656 0490 BA30A0E3 		mov	r3, #186	@ movhi
 657 0494 B93C4EE1 		strh	r3, [lr, #-201]	@ movhi
 459:DigiShort/ds5300.c **** 	
 460:DigiShort/ds5300.c **** 	//WizWrR0 (IDM_AR1, (U8)(Addr));
 461:DigiShort/ds5300.c **** 	FIO1PINU  = W530_AR1a | LATCH_STRBa; // WLD Edge, Wr-0						
 462:DigiShort/ds5300.c **** 	FIO1PINU  = (addr&0x00ff) | WIZ_CSa | LATCH_STRBa;; // CS-active, WLD-locked
 658              		.loc 1 462 0
 659 0498 FF0000E2 		and	r0, r0, #255
 660              	.LVL33:
 661              		.loc 1 461 0
 662 049c 8C329FE5 		ldr	r3, .L45+8
 663              		.loc 1 462 0
 664 04a0 030C80E3 		orr	r0, r0, #768
 665              		.loc 1 461 0
 666 04a4 B93C4EE1 		strh	r3, [lr, #-201]	@ movhi
 667              		.loc 1 462 0
 668 04a8 B90C4EE1 		strh	r0, [lr, #-201]	@ movhi
 463:DigiShort/ds5300.c **** 	// 2 NOPs here assures min 50ns CS (with LPC2148 run on 60MHz)
 464:DigiShort/ds5300.c **** 	NOP_2					
 669              		.loc 1 464 0
 670 04ac 0000A0E1 		nop
 671 04b0 0000A0E1 		nop
 465:DigiShort/ds5300.c **** 	FIO1PINU  = W530_AR1IDLEa;	// WLD-transparent Wr-1, CS-inactive 
 466:DigiShort/ds5300.c **** 	
 467:DigiShort/ds5300.c **** 	idx = 0;
 468:DigiShort/ds5300.c **** 	// For speed purpose read linear block 8-byte long
 469:DigiShort/ds5300.c **** 	if ( len > 8 )	{
 672              		.loc 1 469 0
 673 04b4 080052E3 		cmp	r2, #8
 674              		.loc 1 465 0
 675 04b8 BB30A0E3 		mov	r3, #187	@ movhi
 470:DigiShort/ds5300.c **** 		tcnt = len >> 3;	// len/8
 676              		.loc 1 470 0
 677 04bc A2A1A081 		movhi	sl, r2, lsr #3
 678              		.loc 1 465 0
 679 04c0 B93C4EE1 		strh	r3, [lr, #-201]	@ movhi
 680              		.loc 1 470 0
 681 04c4 0A70A081 		movhi	r7, sl
 682              	.LVL34:
 683              		.loc 1 469 0
 684 04c8 00E0A093 		movls	lr, #0
 685              	.LVL35:
 686              		.loc 1 470 0
 687 04cc 0140A081 		movhi	r4, r1
 688              		.loc 1 469 0
 689 04d0 6500008A 		bhi	.L38
 690 04d4 6B0000EA 		b	.L37
 691              	.LVL36:
 692              	.L39:
 471:DigiShort/ds5300.c **** 	  while ( tcnt>0 ) {
 472:DigiShort/ds5300.c ****    		//WizRdR0 (IDM_DR0, (U8)(val>>8));
 473:DigiShort/ds5300.c **** 			FIO1PINU  = R530_DR0a | LATCH_STRBa;	// WLD Edge, Rd-0	
 693              		.loc 1 473 0
 694 04d8 6B3FA0E3 		mov	r3, #428	@ movhi
 695 04dc B93C4EE1 		strh	r3, [lr, #-201]	@ movhi
 474:DigiShort/ds5300.c ****   		FIO1DIR2  = 0x00;				// P1.16 .. P1.23 Input
 696              		.loc 1 474 0
 697 04e0 DD504EE5 		strb	r5, [lr, #-221]
 475:DigiShort/ds5300.c **** 			FIO1PIN3  = WIZ_CSb | LATCH_STRBb; // CS-active, WLD-locked
 698              		.loc 1 475 0
 699 04e4 C8604EE5 		strb	r6, [lr, #-200]
 476:DigiShort/ds5300.c **** 			NOP_3					// Must be 3 NOPs here
 700              		.loc 1 476 0
 701 04e8 0000A0E1 		nop
 702 04ec 0000A0E1 		nop
 703 04f0 0000A0E1 		nop
 477:DigiShort/ds5300.c **** 			*((uint8*)(buf+idx)) = FIO1PIN2;
 704              		.loc 1 477 0
 705 04f4 C9305EE5 		ldrb	r3, [lr, #-201]	@ zero_extendqisi2
 478:DigiShort/ds5300.c **** 		
 479:DigiShort/ds5300.c **** 			FIO1PINU  = R530_DR0IDLEa | LATCH_STRBa;	// WLD-transparent Rd-1, CS-inactive 		
 480:DigiShort/ds5300.c **** 	  	FIO1DIR2  = 0xFF;				// P1.16 .. P1.23 Output
 481:DigiShort/ds5300.c **** 	  	FIO1CLR3 = LATCH_STRBb;
 482:DigiShort/ds5300.c **** 		
 483:DigiShort/ds5300.c **** 			//WizRdR1 (IDM_DR1, (U8)(val));
 484:DigiShort/ds5300.c **** 			FIO1PINU  = R530_DR1a | LATCH_STRBa;	// WLD Edge, Rd-0
 706              		.loc 1 484 0
 707 04f8 34C29FE5 		ldr	ip, .L45+12
 708              		.loc 1 477 0
 709 04fc 0030C4E5 		strb	r3, [r4, #0]
 710              		.loc 1 480 0
 711 0500 0020E0E3 		mvn	r2, #0
 712              	.LVL37:
 713              		.loc 1 481 0
 714 0504 0110A0E3 		mov	r1, #1
 715              	.LVL38:
 716              		.loc 1 479 0
 717 0508 6F3FA0E3 		mov	r3, #444	@ movhi
 718 050c B93C4EE1 		strh	r3, [lr, #-201]	@ movhi
 719              		.loc 1 480 0
 720 0510 DD204EE5 		strb	r2, [lr, #-221]
 721              		.loc 1 481 0
 722 0514 C0104EE5 		strb	r1, [lr, #-192]
 723              		.loc 1 484 0
 724 0518 B9CC4EE1 		strh	ip, [lr, #-201]	@ movhi
 485:DigiShort/ds5300.c ****   		FIO1DIR2  = 0x00;				// P1.16 .. P1.23 Input
 725              		.loc 1 485 0
 726 051c DD504EE5 		strb	r5, [lr, #-221]
 486:DigiShort/ds5300.c **** 			FIO1PIN3  = WIZ_CSb | LATCH_STRBb; // CS-active, WLD-locked
 727              		.loc 1 486 0
 728 0520 C8604EE5 		strb	r6, [lr, #-200]
 487:DigiShort/ds5300.c **** 			NOP_3					// Must be 3 NOPs here
 729              		.loc 1 487 0
 730 0524 0000A0E1 		nop
 731 0528 0000A0E1 		nop
 732 052c 0000A0E1 		nop
 488:DigiShort/ds5300.c **** 			*((uint8*)(buf+idx+1)) = FIO1PIN2;
 733              		.loc 1 488 0
 734 0530 C9305EE5 		ldrb	r3, [lr, #-201]	@ zero_extendqisi2
 489:DigiShort/ds5300.c **** 		
 490:DigiShort/ds5300.c **** 			FIO1PINU  = R530_DR1IDLEa | LATCH_STRBa;	// WLD-transparent Rd-1, CS-inactive 		
 735              		.loc 1 490 0
 736 0534 FC019FE5 		ldr	r0, .L45+16
 737              		.loc 1 488 0
 738 0538 0130C4E5 		strb	r3, [r4, #1]
 491:DigiShort/ds5300.c **** 	  	FIO1DIR2  = 0xFF;				// P1.16 .. P1.23 Output
 492:DigiShort/ds5300.c **** 	  	FIO1CLR3 = LATCH_STRBb;
 493:DigiShort/ds5300.c **** 
 494:DigiShort/ds5300.c ****    		//WizRdR0 (IDM_DR0, (U8)(val>>8));
 495:DigiShort/ds5300.c **** 			FIO1PINU  = R530_DR0a | LATCH_STRBa;	// WLD Edge, Rd-0	
 739              		.loc 1 495 0
 740 053c 6B3FA0E3 		mov	r3, #428	@ movhi
 741              		.loc 1 490 0
 742 0540 B90C4EE1 		strh	r0, [lr, #-201]	@ movhi
 743              		.loc 1 491 0
 744 0544 DD204EE5 		strb	r2, [lr, #-221]
 745              		.loc 1 492 0
 746 0548 C0104EE5 		strb	r1, [lr, #-192]
 747              		.loc 1 495 0
 748 054c B93C4EE1 		strh	r3, [lr, #-201]	@ movhi
 496:DigiShort/ds5300.c ****   		FIO1DIR2  = 0x00;				// P1.16 .. P1.23 Input
 749              		.loc 1 496 0
 750 0550 DD504EE5 		strb	r5, [lr, #-221]
 497:DigiShort/ds5300.c **** 			FIO1PIN3  = WIZ_CSb | LATCH_STRBb; // CS-active, WLD-locked
 751              		.loc 1 497 0
 752 0554 C8604EE5 		strb	r6, [lr, #-200]
 498:DigiShort/ds5300.c **** 			NOP_3					// Must be 3 NOPs here
 753              		.loc 1 498 0
 754 0558 0000A0E1 		nop
 755 055c 0000A0E1 		nop
 756 0560 0000A0E1 		nop
 499:DigiShort/ds5300.c **** 			*((uint8*)(buf+idx+2)) = FIO1PIN2;
 757              		.loc 1 499 0
 758 0564 C9305EE5 		ldrb	r3, [lr, #-201]	@ zero_extendqisi2
 759 0568 0230C4E5 		strb	r3, [r4, #2]
 500:DigiShort/ds5300.c **** 		
 501:DigiShort/ds5300.c **** 			FIO1PINU  = R530_DR0IDLEa | LATCH_STRBa;	// WLD-transparent Rd-1, CS-inactive 		
 760              		.loc 1 501 0
 761 056c 6F3FA0E3 		mov	r3, #444	@ movhi
 762 0570 B93C4EE1 		strh	r3, [lr, #-201]	@ movhi
 502:DigiShort/ds5300.c **** 	  	FIO1DIR2  = 0xFF;				// P1.16 .. P1.23 Output
 763              		.loc 1 502 0
 764 0574 DD204EE5 		strb	r2, [lr, #-221]
 503:DigiShort/ds5300.c **** 	  	FIO1CLR3 = LATCH_STRBb;
 765              		.loc 1 503 0
 766 0578 C0104EE5 		strb	r1, [lr, #-192]
 504:DigiShort/ds5300.c **** 		
 505:DigiShort/ds5300.c **** 			//WizRdR1 (IDM_DR1, (U8)(val));
 506:DigiShort/ds5300.c **** 			FIO1PINU  = R530_DR1a | LATCH_STRBa;	// WLD Edge, Rd-0
 767              		.loc 1 506 0
 768 057c B9CC4EE1 		strh	ip, [lr, #-201]	@ movhi
 507:DigiShort/ds5300.c ****   		FIO1DIR2  = 0x00;				// P1.16 .. P1.23 Input
 769              		.loc 1 507 0
 770 0580 DD504EE5 		strb	r5, [lr, #-221]
 508:DigiShort/ds5300.c **** 			FIO1PIN3  = WIZ_CSb | LATCH_STRBb; // CS-active, WLD-locked
 771              		.loc 1 508 0
 772 0584 C8604EE5 		strb	r6, [lr, #-200]
 509:DigiShort/ds5300.c **** 			NOP_3					// Must be 3 NOPs here
 773              		.loc 1 509 0
 774 0588 0000A0E1 		nop
 775 058c 0000A0E1 		nop
 776 0590 0000A0E1 		nop
 510:DigiShort/ds5300.c **** 			*((uint8*)(buf+idx+3)) = FIO1PIN2;
 777              		.loc 1 510 0
 778 0594 C9305EE5 		ldrb	r3, [lr, #-201]	@ zero_extendqisi2
 779 0598 0330C4E5 		strb	r3, [r4, #3]
 511:DigiShort/ds5300.c **** 		
 512:DigiShort/ds5300.c **** 			FIO1PINU  = R530_DR1IDLEa | LATCH_STRBa;	// WLD-transparent Rd-1, CS-inactive 		
 513:DigiShort/ds5300.c **** 	  	FIO1DIR2  = 0xFF;				// P1.16 .. P1.23 Output
 514:DigiShort/ds5300.c **** 	  	FIO1CLR3 = LATCH_STRBb;
 515:DigiShort/ds5300.c **** 	  	
 516:DigiShort/ds5300.c ****    		//WizRdR0 (IDM_DR0, (U8)(val>>8));
 517:DigiShort/ds5300.c **** 			FIO1PINU  = R530_DR0a | LATCH_STRBa;	// WLD Edge, Rd-0	
 780              		.loc 1 517 0
 781 059c 6B3FA0E3 		mov	r3, #428	@ movhi
 782              		.loc 1 512 0
 783 05a0 B90C4EE1 		strh	r0, [lr, #-201]	@ movhi
 784              		.loc 1 513 0
 785 05a4 DD204EE5 		strb	r2, [lr, #-221]
 786              		.loc 1 514 0
 787 05a8 C0104EE5 		strb	r1, [lr, #-192]
 788              		.loc 1 517 0
 789 05ac B93C4EE1 		strh	r3, [lr, #-201]	@ movhi
 518:DigiShort/ds5300.c ****   		FIO1DIR2  = 0x00;				// P1.16 .. P1.23 Input
 790              		.loc 1 518 0
 791 05b0 DD504EE5 		strb	r5, [lr, #-221]
 519:DigiShort/ds5300.c **** 			FIO1PIN3  = WIZ_CSb | LATCH_STRBb; // CS-active, WLD-locked
 792              		.loc 1 519 0
 793 05b4 C8604EE5 		strb	r6, [lr, #-200]
 520:DigiShort/ds5300.c **** 			NOP_3					// Must be 3 NOPs here
 794              		.loc 1 520 0
 795 05b8 0000A0E1 		nop
 796 05bc 0000A0E1 		nop
 797 05c0 0000A0E1 		nop
 521:DigiShort/ds5300.c **** 			//asm volatile ("nop");
 522:DigiShort/ds5300.c **** 			*((uint8*)(buf+idx+4)) = FIO1PIN2;
 798              		.loc 1 522 0
 799 05c4 C9305EE5 		ldrb	r3, [lr, #-201]	@ zero_extendqisi2
 800 05c8 0430C4E5 		strb	r3, [r4, #4]
 523:DigiShort/ds5300.c **** 		
 524:DigiShort/ds5300.c **** 			FIO1PINU  = R530_DR0IDLEa | LATCH_STRBa;	// WLD-transparent Rd-1, CS-inactive 		
 801              		.loc 1 524 0
 802 05cc 6F3FA0E3 		mov	r3, #444	@ movhi
 803 05d0 B93C4EE1 		strh	r3, [lr, #-201]	@ movhi
 525:DigiShort/ds5300.c **** 	  	FIO1DIR2  = 0xFF;				// P1.16 .. P1.23 Output
 804              		.loc 1 525 0
 805 05d4 DD204EE5 		strb	r2, [lr, #-221]
 526:DigiShort/ds5300.c **** 	  	FIO1CLR3 = LATCH_STRBb;
 806              		.loc 1 526 0
 807 05d8 C0104EE5 		strb	r1, [lr, #-192]
 527:DigiShort/ds5300.c **** 		
 528:DigiShort/ds5300.c **** 			//WizRdR1 (IDM_DR1, (U8)(val));
 529:DigiShort/ds5300.c **** 			FIO1PINU  = R530_DR1a | LATCH_STRBa;	// WLD Edge, Rd-0
 808              		.loc 1 529 0
 809 05dc B9CC4EE1 		strh	ip, [lr, #-201]	@ movhi
 530:DigiShort/ds5300.c ****   		FIO1DIR2  = 0x00;				// P1.16 .. P1.23 Input
 810              		.loc 1 530 0
 811 05e0 DD504EE5 		strb	r5, [lr, #-221]
 531:DigiShort/ds5300.c **** 			FIO1PIN3  = WIZ_CSb | LATCH_STRBb; // CS-active, WLD-locked
 812              		.loc 1 531 0
 813 05e4 C8604EE5 		strb	r6, [lr, #-200]
 532:DigiShort/ds5300.c **** 			NOP_3					// Must be 3 NOPs here
 814              		.loc 1 532 0
 815 05e8 0000A0E1 		nop
 816 05ec 0000A0E1 		nop
 817 05f0 0000A0E1 		nop
 533:DigiShort/ds5300.c **** 			*((uint8*)(buf+idx+5)) = FIO1PIN2;
 818              		.loc 1 533 0
 819 05f4 C9305EE5 		ldrb	r3, [lr, #-201]	@ zero_extendqisi2
 820 05f8 0530C4E5 		strb	r3, [r4, #5]
 534:DigiShort/ds5300.c **** 		
 535:DigiShort/ds5300.c **** 			FIO1PINU  = R530_DR1IDLEa | LATCH_STRBa;	// WLD-transparent Rd-1, CS-inactive 		
 536:DigiShort/ds5300.c **** 	  	FIO1DIR2  = 0xFF;				// P1.16 .. P1.23 Output
 537:DigiShort/ds5300.c **** 	  	FIO1CLR3 = LATCH_STRBb;
 538:DigiShort/ds5300.c **** 
 539:DigiShort/ds5300.c ****    		//WizRdR0 (IDM_DR0, (U8)(val>>8));
 540:DigiShort/ds5300.c **** 			FIO1PINU  = R530_DR0a | LATCH_STRBa;	// WLD Edge, Rd-0	
 821              		.loc 1 540 0
 822 05fc 6B3FA0E3 		mov	r3, #428	@ movhi
 823              		.loc 1 535 0
 824 0600 B90C4EE1 		strh	r0, [lr, #-201]	@ movhi
 825              		.loc 1 536 0
 826 0604 DD204EE5 		strb	r2, [lr, #-221]
 827              		.loc 1 537 0
 828 0608 C0104EE5 		strb	r1, [lr, #-192]
 829              		.loc 1 540 0
 830 060c B93C4EE1 		strh	r3, [lr, #-201]	@ movhi
 541:DigiShort/ds5300.c ****   		FIO1DIR2  = 0x00;				// P1.16 .. P1.23 Input
 831              		.loc 1 541 0
 832 0610 DD504EE5 		strb	r5, [lr, #-221]
 542:DigiShort/ds5300.c **** 			FIO1PIN3  = WIZ_CSb | LATCH_STRBb; // CS-active, WLD-locked
 833              		.loc 1 542 0
 834 0614 C8604EE5 		strb	r6, [lr, #-200]
 543:DigiShort/ds5300.c **** 			NOP_3					// Must be 3 NOPs here
 835              		.loc 1 543 0
 836 0618 0000A0E1 		nop
 837 061c 0000A0E1 		nop
 838 0620 0000A0E1 		nop
 544:DigiShort/ds5300.c **** 			*((uint8*)(buf+idx+6)) = FIO1PIN2;
 839              		.loc 1 544 0
 840 0624 C9305EE5 		ldrb	r3, [lr, #-201]	@ zero_extendqisi2
 841 0628 0630C4E5 		strb	r3, [r4, #6]
 545:DigiShort/ds5300.c **** 		
 546:DigiShort/ds5300.c **** 			FIO1PINU  = R530_DR0IDLEa | LATCH_STRBa;	// WLD-transparent Rd-1, CS-inactive 		
 842              		.loc 1 546 0
 843 062c 6F3FA0E3 		mov	r3, #444	@ movhi
 844 0630 B93C4EE1 		strh	r3, [lr, #-201]	@ movhi
 547:DigiShort/ds5300.c **** 	  	FIO1DIR2  = 0xFF;				// P1.16 .. P1.23 Output
 845              		.loc 1 547 0
 846 0634 DD204EE5 		strb	r2, [lr, #-221]
 548:DigiShort/ds5300.c **** 	  	FIO1CLR3 = LATCH_STRBb;
 847              		.loc 1 548 0
 848 0638 C0104EE5 		strb	r1, [lr, #-192]
 549:DigiShort/ds5300.c **** 		
 550:DigiShort/ds5300.c **** 			//WizRdR1 (IDM_DR1, (U8)(val));
 551:DigiShort/ds5300.c **** 			FIO1PINU  = R530_DR1a | LATCH_STRBa;	// WLD Edge, Rd-0
 849              		.loc 1 551 0
 850 063c B9CC4EE1 		strh	ip, [lr, #-201]	@ movhi
 552:DigiShort/ds5300.c ****   		FIO1DIR2  = 0x00;				// P1.16 .. P1.23 Input
 851              		.loc 1 552 0
 852 0640 DD504EE5 		strb	r5, [lr, #-221]
 553:DigiShort/ds5300.c **** 			FIO1PIN3  = WIZ_CSb | LATCH_STRBb; // CS-active, WLD-locked
 853              		.loc 1 553 0
 854 0644 C8604EE5 		strb	r6, [lr, #-200]
 554:DigiShort/ds5300.c **** 			asm volatile ("nop");			// Must be 3 instrustions here
 855              		.loc 1 554 0
 856 0648 0000A0E1 		nop
 555:DigiShort/ds5300.c **** 			tcnt--;
 857              		.loc 1 555 0
 858 064c 027087E0 		add	r7, r7, r2
 556:DigiShort/ds5300.c **** 			asm volatile ("nop");
 859              		.loc 1 556 0
 860 0650 0000A0E1 		nop
 557:DigiShort/ds5300.c **** 			*((uint8*)(buf+idx+7)) = FIO1PIN2;
 861              		.loc 1 557 0
 862 0654 C9305EE5 		ldrb	r3, [lr, #-201]	@ zero_extendqisi2
 863 0658 0730C4E5 		strb	r3, [r4, #7]
 558:DigiShort/ds5300.c **** 		
 559:DigiShort/ds5300.c **** 			FIO1PINU  = R530_DR1IDLEa | LATCH_STRBa;	// WLD-transparent Rd-1, CS-inactive 		
 864              		.loc 1 559 0
 865 065c B90C4EE1 		strh	r0, [lr, #-201]	@ movhi
 560:DigiShort/ds5300.c **** 	  	FIO1DIR2  = 0xFF;				// P1.16 .. P1.23 Output
 866              		.loc 1 560 0
 867 0660 DD204EE5 		strb	r2, [lr, #-221]
 561:DigiShort/ds5300.c **** 	  	FIO1CLR3 = LATCH_STRBb;
 868              		.loc 1 561 0
 869 0664 C0104EE5 		strb	r1, [lr, #-192]
 870 0668 084084E2 		add	r4, r4, #8
 871              	.LVL39:
 872              	.L38:
 873              		.loc 1 474 0
 874 066c 0050A0E3 		mov	r5, #0
 875              		.loc 1 471 0
 876 0670 050057E1 		cmp	r7, r5
 877              		.loc 1 473 0
 878 0674 ACE09FE5 		ldr	lr, .L45
 879              	.LVL40:
 880              		.loc 1 475 0
 881 0678 0360A0E3 		mov	r6, #3
 882              		.loc 1 471 0
 883 067c 95FFFFCA 		bgt	.L39
 884              	.LVL41:
 885 0680 0A3067E0 		rsb	r3, r7, sl
 886 0684 13E6A0E1 		mov	lr, r3, asl r6
 887              	.LVL42:
 888              	.L37:
 889 0688 0EC089E0 		add	ip, r9, lr
 890 068c 1D0000EA 		b	.L41
 891              	.LVL43:
 892              	.L42:
 562:DigiShort/ds5300.c **** 	  	
 563:DigiShort/ds5300.c **** 			idx += 8;
 564:DigiShort/ds5300.c **** 
 565:DigiShort/ds5300.c **** 		}
 566:DigiShort/ds5300.c **** 	}
 567:DigiShort/ds5300.c **** 
 568:DigiShort/ds5300.c ****   while ( idx < len ) {
 569:DigiShort/ds5300.c ****    	//WizRdR0 (IDM_DR0, (U8)(val>>8));
 570:DigiShort/ds5300.c **** 		FIO1PINU  = R530_DR0a | LATCH_STRBa;	// WLD Edge, Rd-0	
 893              		.loc 1 570 0
 894 0690 6B3FA0E3 		mov	r3, #428	@ movhi
 895 0694 B93C40E1 		strh	r3, [r0, #-201]	@ movhi
 571:DigiShort/ds5300.c ****   	FIO1DIR2  = 0x00;				// P1.16 .. P1.23 Input
 896              		.loc 1 571 0
 897 0698 DD4040E5 		strb	r4, [r0, #-221]
 572:DigiShort/ds5300.c **** 		FIO1PIN3  = WIZ_CSb | LATCH_STRBb; // CS-active, WLD-locked
 898              		.loc 1 572 0
 899 069c C85040E5 		strb	r5, [r0, #-200]
 573:DigiShort/ds5300.c **** 		NOP_3					// Must be 3 NOPs here
 900              		.loc 1 573 0
 901 06a0 0000A0E1 		nop
 902 06a4 0000A0E1 		nop
 903 06a8 0000A0E1 		nop
 574:DigiShort/ds5300.c **** 		*((uint8*)(buf+idx)) = FIO1PIN2;
 904              		.loc 1 574 0
 905 06ac C93050E5 		ldrb	r3, [r0, #-201]	@ zero_extendqisi2
 906 06b0 0030CCE5 		strb	r3, [ip, #0]
 575:DigiShort/ds5300.c **** 		
 576:DigiShort/ds5300.c **** 		FIO1PINU  = R530_DR0IDLEa | LATCH_STRBa;	// WLD-transparent Rd-1, CS-inactive 		
 907              		.loc 1 576 0
 908 06b4 6F3FA0E3 		mov	r3, #444	@ movhi
 909 06b8 B93C40E1 		strh	r3, [r0, #-201]	@ movhi
 577:DigiShort/ds5300.c **** 	  FIO1DIR2  = 0xFF;				// P1.16 .. P1.23 Output
 578:DigiShort/ds5300.c **** 	  FIO1CLR3 = LATCH_STRBb;
 579:DigiShort/ds5300.c ****   	idx++;
 580:DigiShort/ds5300.c **** 		
 581:DigiShort/ds5300.c **** 		//WizRdR1 (IDM_DR1, (U8)(val));
 582:DigiShort/ds5300.c **** 		FIO1PINU  = R530_DR1a | LATCH_STRBa;	// WLD Edge, Rd-0
 910              		.loc 1 582 0
 911 06bc 70309FE5 		ldr	r3, .L45+12
 912              		.loc 1 577 0
 913 06c0 0020E0E3 		mvn	r2, #0
 914              		.loc 1 578 0
 915 06c4 0110A0E3 		mov	r1, #1
 916              		.loc 1 577 0
 917 06c8 DD2040E5 		strb	r2, [r0, #-221]
 918              		.loc 1 578 0
 919 06cc C01040E5 		strb	r1, [r0, #-192]
 920              		.loc 1 582 0
 921 06d0 B93C40E1 		strh	r3, [r0, #-201]	@ movhi
 583:DigiShort/ds5300.c ****   	FIO1DIR2  = 0x00;				// P1.16 .. P1.23 Input
 922              		.loc 1 583 0
 923 06d4 DD4040E5 		strb	r4, [r0, #-221]
 584:DigiShort/ds5300.c **** 		FIO1PIN3  = WIZ_CSb | LATCH_STRBb; // CS-active, WLD-locked
 924              		.loc 1 584 0
 925 06d8 C85040E5 		strb	r5, [r0, #-200]
 585:DigiShort/ds5300.c **** 		NOP_3					// Must be 3 NOPs here
 926              		.loc 1 585 0
 927 06dc 0000A0E1 		nop
 928 06e0 0000A0E1 		nop
 929 06e4 0000A0E1 		nop
 586:DigiShort/ds5300.c **** 		*((uint8*)(buf+idx)) = FIO1PIN2;
 930              		.loc 1 586 0
 931 06e8 C93050E5 		ldrb	r3, [r0, #-201]	@ zero_extendqisi2
 932 06ec 0130CCE5 		strb	r3, [ip, #1]
 587:DigiShort/ds5300.c **** 		
 588:DigiShort/ds5300.c **** 		FIO1PINU  = R530_DR1IDLEa | LATCH_STRBa;	// WLD-transparent Rd-1, CS-inactive 		
 933              		.loc 1 588 0
 934 06f0 40309FE5 		ldr	r3, .L45+16
 935 06f4 B93C40E1 		strh	r3, [r0, #-201]	@ movhi
 589:DigiShort/ds5300.c **** 	  FIO1DIR2  = 0xFF;				// P1.16 .. P1.23 Output
 936              		.loc 1 589 0
 937 06f8 DD2040E5 		strb	r2, [r0, #-221]
 590:DigiShort/ds5300.c **** 	  FIO1CLR3 = LATCH_STRBb;
 938              		.loc 1 590 0
 939 06fc C01040E5 		strb	r1, [r0, #-192]
 940 0700 02E08EE2 		add	lr, lr, #2
 941 0704 02C08CE2 		add	ip, ip, #2
 942              	.LVL44:
 943              	.L41:
 944              		.loc 1 568 0
 945 0708 08005EE1 		cmp	lr, r8
 946              		.loc 1 570 0
 947 070c 14009FE5 		ldr	r0, .L45
 948              		.loc 1 571 0
 949 0710 0040A0E3 		mov	r4, #0
 950              		.loc 1 572 0
 951 0714 0350A0E3 		mov	r5, #3
 952              		.loc 1 568 0
 953 0718 DCFFFF3A 		bcc	.L42
 591:DigiShort/ds5300.c ****   	idx++;
 592:DigiShort/ds5300.c **** 	}	
 593:DigiShort/ds5300.c **** 			
 594:DigiShort/ds5300.c ****   //IINCHIP_CRITICAL_SECTION_EXIT();
 595:DigiShort/ds5300.c **** 	
 596:DigiShort/ds5300.c ****   return len;
 597:DigiShort/ds5300.c **** }
 954              		.loc 1 597 0
 955 071c 0800A0E1 		mov	r0, r8
 956 0720 F047BDE8 		ldmfd	sp!, {r4, r5, r6, r7, r8, r9, sl, lr}
 957 0724 1EFF2FE1 		bx	lr
 958              	.L46:
 959              		.align	2
 960              	.L45:
 961 0728 FFC0FF3F 		.word	1073725695
 962 072c B2010000 		.word	434
 963 0730 B3010000 		.word	435
 964 0734 AD010000 		.word	429
 965 0738 BD010000 		.word	445
 966              	.LFE9:
 968              		.align	2
 969              		.global	Rd5300_bl
 971              	Rd5300_bl:
 972              	.LFB13:
 598:DigiShort/ds5300.c **** 
 599:DigiShort/ds5300.c **** void W5300PwrOn(void)
 600:DigiShort/ds5300.c **** {
 601:DigiShort/ds5300.c ****   FIO1PIN    = WIZ_ON|WIZ_RD|WIZ_WR|WIZ_RES;		// WizOn=1, LATCH=0, CS=0, Rd=1, Wr=1, /RES=1
 602:DigiShort/ds5300.c ****   delay(2000000);
 603:DigiShort/ds5300.c ****   
 604:DigiShort/ds5300.c ****   // Activate WIZ_RESET
 605:DigiShort/ds5300.c **** 	FIO1CLR    = WIZ_RES;	  
 606:DigiShort/ds5300.c ****   delay(50);
 607:DigiShort/ds5300.c **** 	FIO1SET    = WIZ_RES;	  
 608:DigiShort/ds5300.c ****   delay(200000);
 609:DigiShort/ds5300.c **** }
 610:DigiShort/ds5300.c **** 
 611:DigiShort/ds5300.c **** void W5300PwrOff(void)
 612:DigiShort/ds5300.c **** {
 613:DigiShort/ds5300.c **** 	// Set all W5300 signals at "0"
 614:DigiShort/ds5300.c ****   FIO1CLR3 = LATCH_STRBb;			// Latch Transparent
 615:DigiShort/ds5300.c ****   delay(100);
 616:DigiShort/ds5300.c ****   FIO1CLR  = WIZ_A0|WIZ_A1|WIZ_A2|WIZ_RD|WIZ_WR|WIZ_RES;
 617:DigiShort/ds5300.c ****   delay(100);
 618:DigiShort/ds5300.c ****   FIO1SET3 = WIZ_CSb;
 619:DigiShort/ds5300.c ****   delay(100);
 620:DigiShort/ds5300.c ****   
 621:DigiShort/ds5300.c **** 	FIO1CLR  = WIZ_ON;		// WizOn=0
 622:DigiShort/ds5300.c ****   delay(100);
 623:DigiShort/ds5300.c **** }
 624:DigiShort/ds5300.c **** 
 625:DigiShort/ds5300.c **** void W5300Init2(void)
 626:DigiShort/ds5300.c **** {
 627:DigiShort/ds5300.c **** 	int i;
 628:DigiShort/ds5300.c **** 	
 629:DigiShort/ds5300.c ****   CRdyMax = 0;
 630:DigiShort/ds5300.c ****   
 631:DigiShort/ds5300.c **** 	for (i = 0; i < MAX_SOCK_NUM; i++) {
 632:DigiShort/ds5300.c **** 		// Enable	only SENDOK & TIMEOUT Ints
 633:DigiShort/ds5300.c **** 		setSn_IMR(i, 0x10);
 634:DigiShort/ds5300.c **** 		
 635:DigiShort/ds5300.c **** 		ssrErr[i] = 0;
 636:DigiShort/ds5300.c **** 		EstbPhase[i] = 0;
 637:DigiShort/ds5300.c **** 	}	
 638:DigiShort/ds5300.c **** }
 639:DigiShort/ds5300.c **** 
 640:DigiShort/ds5300.c **** int Rd5300_bl(uint16 addr, uint8* buf, int len)
 641:DigiShort/ds5300.c **** {
 973              		.loc 1 641 0
 974              		@ Function supports interworking.
 975              		@ args = 0, pretend = 0, frame = 0
 976              		@ frame_needed = 0, uses_anonymous_args = 0
 977              	.LVL45:
 978 073c F0412DE9 		stmfd	sp!, {r4, r5, r6, r7, r8, lr}
 979              	.LCFI4:
 980              		.loc 1 641 0
 981 0740 0008A0E1 		mov	r0, r0, asl #16
 982              	.LVL46:
 983 0744 0180A0E1 		mov	r8, r1
 984 0748 0270A0E1 		mov	r7, r2
 985 074c 2048A0E1 		mov	r4, r0, lsr #16
 986              	.LVL47:
 987 0750 0150A0E1 		mov	r5, r1
 988 0754 0060A0E3 		mov	r6, #0
 989              	.LVL48:
 990 0758 070000EA 		b	.L48
 991              	.LVL49:
 992              	.L49:
 642:DigiShort/ds5300.c ****   int idx = 0;
 643:DigiShort/ds5300.c ****   uint16 v;
 644:DigiShort/ds5300.c **** 
 645:DigiShort/ds5300.c ****   for (idx = 0; idx < len; idx++ ) {
 646:DigiShort/ds5300.c **** 	  v = IINCHIP_READ( addr );
 993              		.loc 1 646 0
 994 075c FEFFFFEB 		bl	IINCHIP_READ
 995              	.LVL50:
 647:DigiShort/ds5300.c **** 	  *((uint8*)(buf+idx)) = (v&0xff00)>>8;
 648:DigiShort/ds5300.c **** 	  idx++;
 649:DigiShort/ds5300.c **** 		*((uint8*)(buf+idx)) = v&0xff;
 650:DigiShort/ds5300.c ****   	addr += 2;
 996              		.loc 1 650 0
 997 0760 022084E2 		add	r2, r4, #2
 998              		.loc 1 647 0
 999 0764 2034A0E1 		mov	r3, r0, lsr #8
 1000 0768 0830C6E7 		strb	r3, [r6, r8]
 1001              		.loc 1 650 0
 1002 076c 0228A0E1 		mov	r2, r2, asl #16
 1003              		.loc 1 649 0
 1004 0770 010045E5 		strb	r0, [r5, #-1]
 1005              		.loc 1 650 0
 1006 0774 2248A0E1 		mov	r4, r2, lsr #16
 1007 0778 026086E2 		add	r6, r6, #2
 1008              	.LVL51:
 1009              	.L48:
 1010              		.loc 1 645 0
 1011 077c 070056E1 		cmp	r6, r7
 1012              		.loc 1 646 0
 1013 0780 0400A0E1 		mov	r0, r4
 1014              		.loc 1 650 0
 1015 0784 025085E2 		add	r5, r5, #2
 1016              		.loc 1 645 0
 1017 0788 F3FFFFBA 		blt	.L49
 1018              	.LVL52:
 651:DigiShort/ds5300.c **** 	}
 652:DigiShort/ds5300.c **** 	return len;
 653:DigiShort/ds5300.c **** }
 1019              		.loc 1 653 0
 1020 078c 0700A0E1 		mov	r0, r7
 1021              	.LVL53:
 1022 0790 F041BDE8 		ldmfd	sp!, {r4, r5, r6, r7, r8, lr}
 1023 0794 1EFF2FE1 		bx	lr
 1024              	.LFE13:
 1026              		.align	2
 1027              		.global	W5300Init2
 1029              	W5300Init2:
 1030              	.LFB12:
 1031              		.loc 1 626 0
 1032              		@ Function supports interworking.
 1033              		@ args = 0, pretend = 0, frame = 0
 1034              		@ frame_needed = 0, uses_anonymous_args = 0
 1035              		.loc 1 629 0
 1036 0798 40309FE5 		ldr	r3, .L58
 1037 079c 0020A0E3 		mov	r2, #0
 1038              		.loc 1 626 0
 1039 07a0 70402DE9 		stmfd	sp!, {r4, r5, r6, lr}
 1040              	.LCFI5:
 1041              		.loc 1 629 0
 1042 07a4 002083E5 		str	r2, [r3, #0]
 1043 07a8 34609FE5 		ldr	r6, .L58+4
 1044 07ac 34509FE5 		ldr	r5, .L58+8
 1045 07b0 0240A0E1 		mov	r4, r2
 1046              	.LVL54:
 1047              	.L53:
 1048              		.loc 1 633 0
 1049 07b4 0400A0E1 		mov	r0, r4
 1050 07b8 1010A0E3 		mov	r1, #16
 1051              		.loc 1 631 0
 1052 07bc 014084E2 		add	r4, r4, #1
 1053              		.loc 1 633 0
 1054 07c0 FEFFFFEB 		bl	setSn_IMR
 1055              		.loc 1 635 0
 1056 07c4 0030A0E3 		mov	r3, #0
 1057              		.loc 1 631 0
 1058 07c8 080054E3 		cmp	r4, #8
 1059              		.loc 1 636 0
 1060 07cc 0130C5E4 		strb	r3, [r5], #1
 1061              		.loc 1 635 0
 1062 07d0 043086E4 		str	r3, [r6], #4
 1063              		.loc 1 631 0
 1064 07d4 F6FFFF1A 		bne	.L53
 1065              		.loc 1 638 0
 1066 07d8 7040BDE8 		ldmfd	sp!, {r4, r5, r6, lr}
 1067 07dc 1EFF2FE1 		bx	lr
 1068              	.L59:
 1069              		.align	2
 1070              	.L58:
 1071 07e0 00000000 		.word	CRdyMax
 1072 07e4 00000000 		.word	ssrErr
 1073 07e8 00000000 		.word	EstbPhase
 1074              	.LFE12:
 1076              		.align	2
 1077              		.global	W5300PwrOff
 1079              	W5300PwrOff:
 1080              	.LFB11:
 1081              		.loc 1 612 0
 1082              		@ Function supports interworking.
 1083              		@ args = 0, pretend = 0, frame = 0
 1084              		@ frame_needed = 0, uses_anonymous_args = 0
 1085 07ec 30402DE9 		stmfd	sp!, {r4, r5, lr}
 1086              	.LCFI6:
 1087              		.loc 1 614 0
 1088 07f0 48409FE5 		ldr	r4, .L62
 1089 07f4 0130A0E3 		mov	r3, #1
 1090              		.loc 1 616 0
 1091 07f8 44509FE5 		ldr	r5, .L62+4
 1092              		.loc 1 614 0
 1093 07fc C03044E5 		strb	r3, [r4, #-192]
 1094              		.loc 1 615 0
 1095 0800 6400A0E3 		mov	r0, #100
 1096 0804 FEFFFFEB 		bl	delay
 1097              		.loc 1 616 0
 1098 0808 3F38A0E3 		mov	r3, #4128768
 1099 080c C33F05E5 		str	r3, [r5, #-4035]
 1100              		.loc 1 617 0
 1101 0810 6400A0E3 		mov	r0, #100
 1102 0814 FEFFFFEB 		bl	delay
 1103              		.loc 1 618 0
 1104 0818 0230A0E3 		mov	r3, #2
 1105 081c C43044E5 		strb	r3, [r4, #-196]
 1106              		.loc 1 619 0
 1107 0820 6400A0E3 		mov	r0, #100
 1108 0824 FEFFFFEB 		bl	delay
 1109              		.loc 1 621 0
 1110 0828 0235A0E3 		mov	r3, #8388608
 1111              		.loc 1 622 0
 1112 082c 6400A0E3 		mov	r0, #100
 1113              		.loc 1 621 0
 1114 0830 C33F05E5 		str	r3, [r5, #-4035]
 1115              		.loc 1 622 0
 1116 0834 FEFFFFEB 		bl	delay
 1117              		.loc 1 623 0
 1118 0838 3040BDE8 		ldmfd	sp!, {r4, r5, lr}
 1119 083c 1EFF2FE1 		bx	lr
 1120              	.L63:
 1121              		.align	2
 1122              	.L62:
 1123 0840 FFC0FF3F 		.word	1073725695
 1124 0844 FFCFFF3F 		.word	1073729535
 1125              	.LFE11:
 1127              		.align	2
 1128              		.global	W5300PwrOn
 1130              	W5300PwrOn:
 1131              	.LFB10:
 1132              		.loc 1 600 0
 1133              		@ Function supports interworking.
 1134              		@ args = 0, pretend = 0, frame = 0
 1135              		@ frame_needed = 0, uses_anonymous_args = 0
 1136 0848 30402DE9 		stmfd	sp!, {r4, r5, lr}
 1137              	.LCFI7:
 1138              		.loc 1 601 0
 1139 084c 30409FE5 		ldr	r4, .L66
 1140 0850 2E37A0E3 		mov	r3, #12058624
 1141 0854 CB3F04E5 		str	r3, [r4, #-4043]
 1142              		.loc 1 605 0
 1143 0858 0256A0E3 		mov	r5, #2097152
 1144              		.loc 1 602 0
 1145 085c 24009FE5 		ldr	r0, .L66+4
 1146 0860 FEFFFFEB 		bl	delay
 1147              		.loc 1 606 0
 1148 0864 3200A0E3 		mov	r0, #50
 1149              		.loc 1 605 0
 1150 0868 C35F04E5 		str	r5, [r4, #-4035]
 1151              		.loc 1 606 0
 1152 086c FEFFFFEB 		bl	delay
 1153              		.loc 1 608 0
 1154 0870 14009FE5 		ldr	r0, .L66+8
 1155              		.loc 1 607 0
 1156 0874 C75F04E5 		str	r5, [r4, #-4039]
 1157              		.loc 1 608 0
 1158 0878 FEFFFFEB 		bl	delay
 1159              		.loc 1 609 0
 1160 087c 3040BDE8 		ldmfd	sp!, {r4, r5, lr}
 1161 0880 1EFF2FE1 		bx	lr
 1162              	.L67:
 1163              		.align	2
 1164              	.L66:
 1165 0884 FFCFFF3F 		.word	1073729535
 1166 0888 80841E00 		.word	2000000
 1167 088c 400D0300 		.word	200000
 1168              	.LFE10:
 1170              		.align	2
 1171              		.global	iinchip_init
 1173              	iinchip_init:
 1174              	.LFB5:
 1175              		.loc 1 268 0
 1176              		@ Function supports interworking.
 1177              		@ args = 0, pretend = 0, frame = 0
 1178              		@ frame_needed = 0, uses_anonymous_args = 0
 1179 0890 04E02DE5 		str	lr, [sp, #-4]!
 1180              	.LCFI8:
 1181              		.loc 1 269 0
 1182 0894 8000A0E3 		mov	r0, #128
 1183 0898 FEFFFFEB 		bl	setMR
 1184              		.loc 1 270 0
 1185 089c 0C009FE5 		ldr	r0, .L70
 1186 08a0 FEFFFFEB 		bl	delay
 1187              		.loc 1 271 0
 1188 08a4 0100A0E3 		mov	r0, #1
 1189              		.loc 1 273 0
 1190 08a8 04E09DE4 		ldr	lr, [sp], #4
 1191              		.loc 1 271 0
 1192 08ac FEFFFFEA 		b	setMR
 1193              	.L71:
 1194              		.align	2
 1195              	.L70:
 1196 08b0 80841E00 		.word	2000000
 1197              	.LFE5:
 1414              	.Letext0: