
runtime_syms.exe:     file format pe-i386

Disassembly of section .text:

0000000000000000 <.s_init>:
       0:	0f 01 15 00 90 00 70 	lgdtl  0x70009000
       7:	66 b8 10 00          	mov    $0x10,%ax
       b:	8e d8                	mov    %eax,%ds
       d:	8e c0                	mov    %eax,%es
       f:	8e e0                	mov    %eax,%fs
      11:	8e e8                	mov    %eax,%gs
      13:	8e d0                	mov    %eax,%ss
      15:	ea 1c 00 00 70 08 00 	ljmp   $0x8,$0x7000001c
      1c:	bc 00 80 94 71       	mov    $0x71948000,%esp
      21:	6a 00                	push   $0x0
      23:	9d                   	popf   
      24:	52                   	push   %edx
      25:	51                   	push   %ecx
      26:	53                   	push   %ebx
      27:	56                   	push   %esi
      28:	e8 27 2e 00 00       	call   2e54 <cstartup>

000000000000002d <halt>:
      2d:	f4                   	hlt    
      2e:	eb fd                	jmp    2d <halt>

0000000000000030 <runtime_idtstub0>:
      30:	60                   	pusha  
      31:	66 b8 10 00          	mov    $0x10,%ax
      35:	8e d8                	mov    %eax,%ds
      37:	89 e0                	mov    %esp,%eax
      39:	50                   	push   %eax
      3a:	6a 00                	push   $0x0
      3c:	e8 b0 29 00 00       	call   29f1 <runtime_idtexceptionhandler>
      41:	83 c4 08             	add    $0x8,%esp
      44:	61                   	popa   
      45:	cf                   	iret   

0000000000000046 <runtime_idtstub1>:
      46:	60                   	pusha  
      47:	66 b8 10 00          	mov    $0x10,%ax
      4b:	8e d8                	mov    %eax,%ds
      4d:	89 e0                	mov    %esp,%eax
      4f:	50                   	push   %eax
      50:	6a 01                	push   $0x1
      52:	e8 9a 29 00 00       	call   29f1 <runtime_idtexceptionhandler>
      57:	83 c4 08             	add    $0x8,%esp
      5a:	61                   	popa   
      5b:	cf                   	iret   

000000000000005c <runtime_idtstub2>:
      5c:	60                   	pusha  
      5d:	66 b8 10 00          	mov    $0x10,%ax
      61:	8e d8                	mov    %eax,%ds
      63:	89 e0                	mov    %esp,%eax
      65:	50                   	push   %eax
      66:	6a 02                	push   $0x2
      68:	e8 84 29 00 00       	call   29f1 <runtime_idtexceptionhandler>
      6d:	83 c4 08             	add    $0x8,%esp
      70:	61                   	popa   
      71:	cf                   	iret   

0000000000000072 <runtime_idtstub3>:
      72:	60                   	pusha  
      73:	66 b8 10 00          	mov    $0x10,%ax
      77:	8e d8                	mov    %eax,%ds
      79:	89 e0                	mov    %esp,%eax
      7b:	50                   	push   %eax
      7c:	6a 03                	push   $0x3
      7e:	e8 6e 29 00 00       	call   29f1 <runtime_idtexceptionhandler>
      83:	83 c4 08             	add    $0x8,%esp
      86:	61                   	popa   
      87:	cf                   	iret   

0000000000000088 <runtime_idtstub4>:
      88:	60                   	pusha  
      89:	66 b8 10 00          	mov    $0x10,%ax
      8d:	8e d8                	mov    %eax,%ds
      8f:	89 e0                	mov    %esp,%eax
      91:	50                   	push   %eax
      92:	6a 04                	push   $0x4
      94:	e8 58 29 00 00       	call   29f1 <runtime_idtexceptionhandler>
      99:	83 c4 08             	add    $0x8,%esp
      9c:	61                   	popa   
      9d:	cf                   	iret   

000000000000009e <runtime_idtstub5>:
      9e:	60                   	pusha  
      9f:	66 b8 10 00          	mov    $0x10,%ax
      a3:	8e d8                	mov    %eax,%ds
      a5:	89 e0                	mov    %esp,%eax
      a7:	50                   	push   %eax
      a8:	6a 05                	push   $0x5
      aa:	e8 42 29 00 00       	call   29f1 <runtime_idtexceptionhandler>
      af:	83 c4 08             	add    $0x8,%esp
      b2:	61                   	popa   
      b3:	cf                   	iret   

00000000000000b4 <runtime_idtstub6>:
      b4:	60                   	pusha  
      b5:	66 b8 10 00          	mov    $0x10,%ax
      b9:	8e d8                	mov    %eax,%ds
      bb:	89 e0                	mov    %esp,%eax
      bd:	50                   	push   %eax
      be:	6a 06                	push   $0x6
      c0:	e8 2c 29 00 00       	call   29f1 <runtime_idtexceptionhandler>
      c5:	83 c4 08             	add    $0x8,%esp
      c8:	61                   	popa   
      c9:	cf                   	iret   

00000000000000ca <runtime_idtstub7>:
      ca:	60                   	pusha  
      cb:	66 b8 10 00          	mov    $0x10,%ax
      cf:	8e d8                	mov    %eax,%ds
      d1:	89 e0                	mov    %esp,%eax
      d3:	50                   	push   %eax
      d4:	6a 07                	push   $0x7
      d6:	e8 16 29 00 00       	call   29f1 <runtime_idtexceptionhandler>
      db:	83 c4 08             	add    $0x8,%esp
      de:	61                   	popa   
      df:	cf                   	iret   

00000000000000e0 <runtime_idtstub8>:
      e0:	60                   	pusha  
      e1:	66 b8 10 00          	mov    $0x10,%ax
      e5:	8e d8                	mov    %eax,%ds
      e7:	89 e0                	mov    %esp,%eax
      e9:	50                   	push   %eax
      ea:	6a 08                	push   $0x8
      ec:	e8 00 29 00 00       	call   29f1 <runtime_idtexceptionhandler>
      f1:	83 c4 08             	add    $0x8,%esp
      f4:	61                   	popa   
      f5:	cf                   	iret   

00000000000000f6 <runtime_idtstub9>:
      f6:	60                   	pusha  
      f7:	66 b8 10 00          	mov    $0x10,%ax
      fb:	8e d8                	mov    %eax,%ds
      fd:	89 e0                	mov    %esp,%eax
      ff:	50                   	push   %eax
     100:	6a 09                	push   $0x9
     102:	e8 ea 28 00 00       	call   29f1 <runtime_idtexceptionhandler>
     107:	83 c4 08             	add    $0x8,%esp
     10a:	61                   	popa   
     10b:	cf                   	iret   

000000000000010c <runtime_idtstuba>:
     10c:	60                   	pusha  
     10d:	66 b8 10 00          	mov    $0x10,%ax
     111:	8e d8                	mov    %eax,%ds
     113:	89 e0                	mov    %esp,%eax
     115:	50                   	push   %eax
     116:	6a 0a                	push   $0xa
     118:	e8 d4 28 00 00       	call   29f1 <runtime_idtexceptionhandler>
     11d:	83 c4 08             	add    $0x8,%esp
     120:	61                   	popa   
     121:	cf                   	iret   

0000000000000122 <runtime_idtstubb>:
     122:	60                   	pusha  
     123:	66 b8 10 00          	mov    $0x10,%ax
     127:	8e d8                	mov    %eax,%ds
     129:	89 e0                	mov    %esp,%eax
     12b:	50                   	push   %eax
     12c:	6a 0b                	push   $0xb
     12e:	e8 be 28 00 00       	call   29f1 <runtime_idtexceptionhandler>
     133:	83 c4 08             	add    $0x8,%esp
     136:	61                   	popa   
     137:	cf                   	iret   

0000000000000138 <runtime_idtstubc>:
     138:	60                   	pusha  
     139:	66 b8 10 00          	mov    $0x10,%ax
     13d:	8e d8                	mov    %eax,%ds
     13f:	89 e0                	mov    %esp,%eax
     141:	50                   	push   %eax
     142:	6a 0c                	push   $0xc
     144:	e8 a8 28 00 00       	call   29f1 <runtime_idtexceptionhandler>
     149:	83 c4 08             	add    $0x8,%esp
     14c:	61                   	popa   
     14d:	cf                   	iret   

000000000000014e <runtime_idtstubd>:
     14e:	60                   	pusha  
     14f:	66 b8 10 00          	mov    $0x10,%ax
     153:	8e d8                	mov    %eax,%ds
     155:	89 e0                	mov    %esp,%eax
     157:	50                   	push   %eax
     158:	6a 0d                	push   $0xd
     15a:	e8 92 28 00 00       	call   29f1 <runtime_idtexceptionhandler>
     15f:	83 c4 08             	add    $0x8,%esp
     162:	61                   	popa   
     163:	cf                   	iret   

0000000000000164 <runtime_idtstube>:
     164:	60                   	pusha  
     165:	66 b8 10 00          	mov    $0x10,%ax
     169:	8e d8                	mov    %eax,%ds
     16b:	89 e0                	mov    %esp,%eax
     16d:	50                   	push   %eax
     16e:	6a 0e                	push   $0xe
     170:	e8 7c 28 00 00       	call   29f1 <runtime_idtexceptionhandler>
     175:	83 c4 08             	add    $0x8,%esp
     178:	61                   	popa   
     179:	cf                   	iret   

000000000000017a <runtime_idtstubf>:
     17a:	60                   	pusha  
     17b:	66 b8 10 00          	mov    $0x10,%ax
     17f:	8e d8                	mov    %eax,%ds
     181:	89 e0                	mov    %esp,%eax
     183:	50                   	push   %eax
     184:	6a 0f                	push   $0xf
     186:	e8 66 28 00 00       	call   29f1 <runtime_idtexceptionhandler>
     18b:	83 c4 08             	add    $0x8,%esp
     18e:	61                   	popa   
     18f:	cf                   	iret   

0000000000000190 <runtime_idtstub10>:
     190:	60                   	pusha  
     191:	66 b8 10 00          	mov    $0x10,%ax
     195:	8e d8                	mov    %eax,%ds
     197:	89 e0                	mov    %esp,%eax
     199:	50                   	push   %eax
     19a:	6a 10                	push   $0x10
     19c:	e8 50 28 00 00       	call   29f1 <runtime_idtexceptionhandler>
     1a1:	83 c4 08             	add    $0x8,%esp
     1a4:	61                   	popa   
     1a5:	cf                   	iret   

00000000000001a6 <runtime_idtstub11>:
     1a6:	60                   	pusha  
     1a7:	66 b8 10 00          	mov    $0x10,%ax
     1ab:	8e d8                	mov    %eax,%ds
     1ad:	89 e0                	mov    %esp,%eax
     1af:	50                   	push   %eax
     1b0:	6a 11                	push   $0x11
     1b2:	e8 3a 28 00 00       	call   29f1 <runtime_idtexceptionhandler>
     1b7:	83 c4 08             	add    $0x8,%esp
     1ba:	61                   	popa   
     1bb:	cf                   	iret   

00000000000001bc <runtime_idtstub12>:
     1bc:	60                   	pusha  
     1bd:	66 b8 10 00          	mov    $0x10,%ax
     1c1:	8e d8                	mov    %eax,%ds
     1c3:	89 e0                	mov    %esp,%eax
     1c5:	50                   	push   %eax
     1c6:	6a 12                	push   $0x12
     1c8:	e8 24 28 00 00       	call   29f1 <runtime_idtexceptionhandler>
     1cd:	83 c4 08             	add    $0x8,%esp
     1d0:	61                   	popa   
     1d1:	cf                   	iret   

00000000000001d2 <runtime_idtstub13>:
     1d2:	60                   	pusha  
     1d3:	66 b8 10 00          	mov    $0x10,%ax
     1d7:	8e d8                	mov    %eax,%ds
     1d9:	89 e0                	mov    %esp,%eax
     1db:	50                   	push   %eax
     1dc:	6a 13                	push   $0x13
     1de:	e8 0e 28 00 00       	call   29f1 <runtime_idtexceptionhandler>
     1e3:	83 c4 08             	add    $0x8,%esp
     1e6:	61                   	popa   
     1e7:	cf                   	iret   

00000000000001e8 <runtime_idtstub14>:
     1e8:	60                   	pusha  
     1e9:	66 b8 10 00          	mov    $0x10,%ax
     1ed:	8e d8                	mov    %eax,%ds
     1ef:	89 e0                	mov    %esp,%eax
     1f1:	50                   	push   %eax
     1f2:	6a 14                	push   $0x14
     1f4:	e8 f8 27 00 00       	call   29f1 <runtime_idtexceptionhandler>
     1f9:	83 c4 08             	add    $0x8,%esp
     1fc:	61                   	popa   
     1fd:	cf                   	iret   

00000000000001fe <runtime_idtstub15>:
     1fe:	60                   	pusha  
     1ff:	66 b8 10 00          	mov    $0x10,%ax
     203:	8e d8                	mov    %eax,%ds
     205:	89 e0                	mov    %esp,%eax
     207:	50                   	push   %eax
     208:	6a 15                	push   $0x15
     20a:	e8 e2 27 00 00       	call   29f1 <runtime_idtexceptionhandler>
     20f:	83 c4 08             	add    $0x8,%esp
     212:	61                   	popa   
     213:	cf                   	iret   

0000000000000214 <runtime_idtstub16>:
     214:	60                   	pusha  
     215:	66 b8 10 00          	mov    $0x10,%ax
     219:	8e d8                	mov    %eax,%ds
     21b:	89 e0                	mov    %esp,%eax
     21d:	50                   	push   %eax
     21e:	6a 16                	push   $0x16
     220:	e8 cc 27 00 00       	call   29f1 <runtime_idtexceptionhandler>
     225:	83 c4 08             	add    $0x8,%esp
     228:	61                   	popa   
     229:	cf                   	iret   

000000000000022a <runtime_idtstub17>:
     22a:	60                   	pusha  
     22b:	66 b8 10 00          	mov    $0x10,%ax
     22f:	8e d8                	mov    %eax,%ds
     231:	89 e0                	mov    %esp,%eax
     233:	50                   	push   %eax
     234:	6a 17                	push   $0x17
     236:	e8 b6 27 00 00       	call   29f1 <runtime_idtexceptionhandler>
     23b:	83 c4 08             	add    $0x8,%esp
     23e:	61                   	popa   
     23f:	cf                   	iret   

0000000000000240 <runtime_idtstub18>:
     240:	60                   	pusha  
     241:	66 b8 10 00          	mov    $0x10,%ax
     245:	8e d8                	mov    %eax,%ds
     247:	89 e0                	mov    %esp,%eax
     249:	50                   	push   %eax
     24a:	6a 18                	push   $0x18
     24c:	e8 a0 27 00 00       	call   29f1 <runtime_idtexceptionhandler>
     251:	83 c4 08             	add    $0x8,%esp
     254:	61                   	popa   
     255:	cf                   	iret   

0000000000000256 <runtime_idtstub19>:
     256:	60                   	pusha  
     257:	66 b8 10 00          	mov    $0x10,%ax
     25b:	8e d8                	mov    %eax,%ds
     25d:	89 e0                	mov    %esp,%eax
     25f:	50                   	push   %eax
     260:	6a 19                	push   $0x19
     262:	e8 8a 27 00 00       	call   29f1 <runtime_idtexceptionhandler>
     267:	83 c4 08             	add    $0x8,%esp
     26a:	61                   	popa   
     26b:	cf                   	iret   

000000000000026c <runtime_idtstub1a>:
     26c:	60                   	pusha  
     26d:	66 b8 10 00          	mov    $0x10,%ax
     271:	8e d8                	mov    %eax,%ds
     273:	89 e0                	mov    %esp,%eax
     275:	50                   	push   %eax
     276:	6a 1a                	push   $0x1a
     278:	e8 74 27 00 00       	call   29f1 <runtime_idtexceptionhandler>
     27d:	83 c4 08             	add    $0x8,%esp
     280:	61                   	popa   
     281:	cf                   	iret   

0000000000000282 <runtime_idtstub1b>:
     282:	60                   	pusha  
     283:	66 b8 10 00          	mov    $0x10,%ax
     287:	8e d8                	mov    %eax,%ds
     289:	89 e0                	mov    %esp,%eax
     28b:	50                   	push   %eax
     28c:	6a 1b                	push   $0x1b
     28e:	e8 5e 27 00 00       	call   29f1 <runtime_idtexceptionhandler>
     293:	83 c4 08             	add    $0x8,%esp
     296:	61                   	popa   
     297:	cf                   	iret   

0000000000000298 <runtime_idtstub1c>:
     298:	60                   	pusha  
     299:	66 b8 10 00          	mov    $0x10,%ax
     29d:	8e d8                	mov    %eax,%ds
     29f:	89 e0                	mov    %esp,%eax
     2a1:	50                   	push   %eax
     2a2:	6a 1c                	push   $0x1c
     2a4:	e8 48 27 00 00       	call   29f1 <runtime_idtexceptionhandler>
     2a9:	83 c4 08             	add    $0x8,%esp
     2ac:	61                   	popa   
     2ad:	cf                   	iret   

00000000000002ae <runtime_idtstub1d>:
     2ae:	60                   	pusha  
     2af:	66 b8 10 00          	mov    $0x10,%ax
     2b3:	8e d8                	mov    %eax,%ds
     2b5:	89 e0                	mov    %esp,%eax
     2b7:	50                   	push   %eax
     2b8:	6a 1d                	push   $0x1d
     2ba:	e8 32 27 00 00       	call   29f1 <runtime_idtexceptionhandler>
     2bf:	83 c4 08             	add    $0x8,%esp
     2c2:	61                   	popa   
     2c3:	cf                   	iret   

00000000000002c4 <runtime_idtstub1e>:
     2c4:	60                   	pusha  
     2c5:	66 b8 10 00          	mov    $0x10,%ax
     2c9:	8e d8                	mov    %eax,%ds
     2cb:	89 e0                	mov    %esp,%eax
     2cd:	50                   	push   %eax
     2ce:	6a 1e                	push   $0x1e
     2d0:	e8 1c 27 00 00       	call   29f1 <runtime_idtexceptionhandler>
     2d5:	83 c4 08             	add    $0x8,%esp
     2d8:	61                   	popa   
     2d9:	cf                   	iret   

00000000000002da <runtime_idtstub1f>:
     2da:	60                   	pusha  
     2db:	66 b8 10 00          	mov    $0x10,%ax
     2df:	8e d8                	mov    %eax,%ds
     2e1:	89 e0                	mov    %esp,%eax
     2e3:	50                   	push   %eax
     2e4:	6a 1f                	push   $0x1f
     2e6:	e8 06 27 00 00       	call   29f1 <runtime_idtexceptionhandler>
     2eb:	83 c4 08             	add    $0x8,%esp
     2ee:	61                   	popa   
     2ef:	cf                   	iret   

00000000000002f0 <__runtime_v86_idtstub0>:
     2f0:	54                   	push   %esp
     2f1:	50                   	push   %eax
     2f2:	53                   	push   %ebx
     2f3:	51                   	push   %ecx
     2f4:	52                   	push   %edx
     2f5:	56                   	push   %esi
     2f6:	57                   	push   %edi
     2f7:	55                   	push   %ebp
     2f8:	66 b8 1c 00          	mov    $0x1c,%ax
     2fc:	8e d8                	mov    %eax,%ds
     2fe:	89 e0                	mov    %esp,%eax
     300:	50                   	push   %eax
     301:	6a 00                	push   $0x0
     303:	e8 0b 33 00 00       	call   3613 <v86_handleinterrupt>
     308:	83 c4 08             	add    $0x8,%esp
     30b:	5d                   	pop    %ebp
     30c:	5f                   	pop    %edi
     30d:	5e                   	pop    %esi
     30e:	5a                   	pop    %edx
     30f:	59                   	pop    %ecx
     310:	5b                   	pop    %ebx
     311:	58                   	pop    %eax
     312:	5c                   	pop    %esp
     313:	cf                   	iret   

0000000000000314 <__runtime_v86_idtstub1>:
     314:	54                   	push   %esp
     315:	50                   	push   %eax
     316:	53                   	push   %ebx
     317:	51                   	push   %ecx
     318:	52                   	push   %edx
     319:	56                   	push   %esi
     31a:	57                   	push   %edi
     31b:	55                   	push   %ebp
     31c:	66 b8 1c 00          	mov    $0x1c,%ax
     320:	8e d8                	mov    %eax,%ds
     322:	89 e0                	mov    %esp,%eax
     324:	50                   	push   %eax
     325:	6a 01                	push   $0x1
     327:	e8 e7 32 00 00       	call   3613 <v86_handleinterrupt>
     32c:	83 c4 08             	add    $0x8,%esp
     32f:	5d                   	pop    %ebp
     330:	5f                   	pop    %edi
     331:	5e                   	pop    %esi
     332:	5a                   	pop    %edx
     333:	59                   	pop    %ecx
     334:	5b                   	pop    %ebx
     335:	58                   	pop    %eax
     336:	5c                   	pop    %esp
     337:	cf                   	iret   

0000000000000338 <__runtime_v86_idtstub2>:
     338:	54                   	push   %esp
     339:	50                   	push   %eax
     33a:	53                   	push   %ebx
     33b:	51                   	push   %ecx
     33c:	52                   	push   %edx
     33d:	56                   	push   %esi
     33e:	57                   	push   %edi
     33f:	55                   	push   %ebp
     340:	66 b8 1c 00          	mov    $0x1c,%ax
     344:	8e d8                	mov    %eax,%ds
     346:	89 e0                	mov    %esp,%eax
     348:	50                   	push   %eax
     349:	6a 02                	push   $0x2
     34b:	e8 c3 32 00 00       	call   3613 <v86_handleinterrupt>
     350:	83 c4 08             	add    $0x8,%esp
     353:	5d                   	pop    %ebp
     354:	5f                   	pop    %edi
     355:	5e                   	pop    %esi
     356:	5a                   	pop    %edx
     357:	59                   	pop    %ecx
     358:	5b                   	pop    %ebx
     359:	58                   	pop    %eax
     35a:	5c                   	pop    %esp
     35b:	cf                   	iret   

000000000000035c <__runtime_v86_idtstub3>:
     35c:	54                   	push   %esp
     35d:	50                   	push   %eax
     35e:	53                   	push   %ebx
     35f:	51                   	push   %ecx
     360:	52                   	push   %edx
     361:	56                   	push   %esi
     362:	57                   	push   %edi
     363:	55                   	push   %ebp
     364:	66 b8 1c 00          	mov    $0x1c,%ax
     368:	8e d8                	mov    %eax,%ds
     36a:	89 e0                	mov    %esp,%eax
     36c:	50                   	push   %eax
     36d:	6a 03                	push   $0x3
     36f:	e8 9f 32 00 00       	call   3613 <v86_handleinterrupt>
     374:	83 c4 08             	add    $0x8,%esp
     377:	5d                   	pop    %ebp
     378:	5f                   	pop    %edi
     379:	5e                   	pop    %esi
     37a:	5a                   	pop    %edx
     37b:	59                   	pop    %ecx
     37c:	5b                   	pop    %ebx
     37d:	58                   	pop    %eax
     37e:	5c                   	pop    %esp
     37f:	cf                   	iret   

0000000000000380 <__runtime_v86_idtstub4>:
     380:	54                   	push   %esp
     381:	50                   	push   %eax
     382:	53                   	push   %ebx
     383:	51                   	push   %ecx
     384:	52                   	push   %edx
     385:	56                   	push   %esi
     386:	57                   	push   %edi
     387:	55                   	push   %ebp
     388:	66 b8 1c 00          	mov    $0x1c,%ax
     38c:	8e d8                	mov    %eax,%ds
     38e:	89 e0                	mov    %esp,%eax
     390:	50                   	push   %eax
     391:	6a 04                	push   $0x4
     393:	e8 7b 32 00 00       	call   3613 <v86_handleinterrupt>
     398:	83 c4 08             	add    $0x8,%esp
     39b:	5d                   	pop    %ebp
     39c:	5f                   	pop    %edi
     39d:	5e                   	pop    %esi
     39e:	5a                   	pop    %edx
     39f:	59                   	pop    %ecx
     3a0:	5b                   	pop    %ebx
     3a1:	58                   	pop    %eax
     3a2:	5c                   	pop    %esp
     3a3:	cf                   	iret   

00000000000003a4 <__runtime_v86_idtstub5>:
     3a4:	54                   	push   %esp
     3a5:	50                   	push   %eax
     3a6:	53                   	push   %ebx
     3a7:	51                   	push   %ecx
     3a8:	52                   	push   %edx
     3a9:	56                   	push   %esi
     3aa:	57                   	push   %edi
     3ab:	55                   	push   %ebp
     3ac:	66 b8 1c 00          	mov    $0x1c,%ax
     3b0:	8e d8                	mov    %eax,%ds
     3b2:	89 e0                	mov    %esp,%eax
     3b4:	50                   	push   %eax
     3b5:	6a 05                	push   $0x5
     3b7:	e8 57 32 00 00       	call   3613 <v86_handleinterrupt>
     3bc:	83 c4 08             	add    $0x8,%esp
     3bf:	5d                   	pop    %ebp
     3c0:	5f                   	pop    %edi
     3c1:	5e                   	pop    %esi
     3c2:	5a                   	pop    %edx
     3c3:	59                   	pop    %ecx
     3c4:	5b                   	pop    %ebx
     3c5:	58                   	pop    %eax
     3c6:	5c                   	pop    %esp
     3c7:	cf                   	iret   

00000000000003c8 <__runtime_v86_idtstub6>:
     3c8:	54                   	push   %esp
     3c9:	50                   	push   %eax
     3ca:	53                   	push   %ebx
     3cb:	51                   	push   %ecx
     3cc:	52                   	push   %edx
     3cd:	56                   	push   %esi
     3ce:	57                   	push   %edi
     3cf:	55                   	push   %ebp
     3d0:	66 b8 1c 00          	mov    $0x1c,%ax
     3d4:	8e d8                	mov    %eax,%ds
     3d6:	89 e0                	mov    %esp,%eax
     3d8:	50                   	push   %eax
     3d9:	6a 06                	push   $0x6
     3db:	e8 33 32 00 00       	call   3613 <v86_handleinterrupt>
     3e0:	83 c4 08             	add    $0x8,%esp
     3e3:	5d                   	pop    %ebp
     3e4:	5f                   	pop    %edi
     3e5:	5e                   	pop    %esi
     3e6:	5a                   	pop    %edx
     3e7:	59                   	pop    %ecx
     3e8:	5b                   	pop    %ebx
     3e9:	58                   	pop    %eax
     3ea:	5c                   	pop    %esp
     3eb:	cf                   	iret   

00000000000003ec <__runtime_v86_idtstub7>:
     3ec:	54                   	push   %esp
     3ed:	50                   	push   %eax
     3ee:	53                   	push   %ebx
     3ef:	51                   	push   %ecx
     3f0:	52                   	push   %edx
     3f1:	56                   	push   %esi
     3f2:	57                   	push   %edi
     3f3:	55                   	push   %ebp
     3f4:	66 b8 1c 00          	mov    $0x1c,%ax
     3f8:	8e d8                	mov    %eax,%ds
     3fa:	89 e0                	mov    %esp,%eax
     3fc:	50                   	push   %eax
     3fd:	6a 07                	push   $0x7
     3ff:	e8 0f 32 00 00       	call   3613 <v86_handleinterrupt>
     404:	83 c4 08             	add    $0x8,%esp
     407:	5d                   	pop    %ebp
     408:	5f                   	pop    %edi
     409:	5e                   	pop    %esi
     40a:	5a                   	pop    %edx
     40b:	59                   	pop    %ecx
     40c:	5b                   	pop    %ebx
     40d:	58                   	pop    %eax
     40e:	5c                   	pop    %esp
     40f:	cf                   	iret   

0000000000000410 <__runtime_v86_idtstub8>:
     410:	54                   	push   %esp
     411:	50                   	push   %eax
     412:	53                   	push   %ebx
     413:	51                   	push   %ecx
     414:	52                   	push   %edx
     415:	56                   	push   %esi
     416:	57                   	push   %edi
     417:	55                   	push   %ebp
     418:	66 b8 1c 00          	mov    $0x1c,%ax
     41c:	8e d8                	mov    %eax,%ds
     41e:	89 e0                	mov    %esp,%eax
     420:	50                   	push   %eax
     421:	6a 08                	push   $0x8
     423:	e8 eb 31 00 00       	call   3613 <v86_handleinterrupt>
     428:	83 c4 08             	add    $0x8,%esp
     42b:	5d                   	pop    %ebp
     42c:	5f                   	pop    %edi
     42d:	5e                   	pop    %esi
     42e:	5a                   	pop    %edx
     42f:	59                   	pop    %ecx
     430:	5b                   	pop    %ebx
     431:	58                   	pop    %eax
     432:	5c                   	pop    %esp
     433:	cf                   	iret   

0000000000000434 <__runtime_v86_idtstub9>:
     434:	54                   	push   %esp
     435:	50                   	push   %eax
     436:	53                   	push   %ebx
     437:	51                   	push   %ecx
     438:	52                   	push   %edx
     439:	56                   	push   %esi
     43a:	57                   	push   %edi
     43b:	55                   	push   %ebp
     43c:	66 b8 1c 00          	mov    $0x1c,%ax
     440:	8e d8                	mov    %eax,%ds
     442:	89 e0                	mov    %esp,%eax
     444:	50                   	push   %eax
     445:	6a 09                	push   $0x9
     447:	e8 c7 31 00 00       	call   3613 <v86_handleinterrupt>
     44c:	83 c4 08             	add    $0x8,%esp
     44f:	5d                   	pop    %ebp
     450:	5f                   	pop    %edi
     451:	5e                   	pop    %esi
     452:	5a                   	pop    %edx
     453:	59                   	pop    %ecx
     454:	5b                   	pop    %ebx
     455:	58                   	pop    %eax
     456:	5c                   	pop    %esp
     457:	cf                   	iret   

0000000000000458 <__runtime_v86_idtstub10>:
     458:	54                   	push   %esp
     459:	50                   	push   %eax
     45a:	53                   	push   %ebx
     45b:	51                   	push   %ecx
     45c:	52                   	push   %edx
     45d:	56                   	push   %esi
     45e:	57                   	push   %edi
     45f:	55                   	push   %ebp
     460:	66 b8 1c 00          	mov    $0x1c,%ax
     464:	8e d8                	mov    %eax,%ds
     466:	89 e0                	mov    %esp,%eax
     468:	50                   	push   %eax
     469:	6a 0a                	push   $0xa
     46b:	e8 a3 31 00 00       	call   3613 <v86_handleinterrupt>
     470:	83 c4 08             	add    $0x8,%esp
     473:	5d                   	pop    %ebp
     474:	5f                   	pop    %edi
     475:	5e                   	pop    %esi
     476:	5a                   	pop    %edx
     477:	59                   	pop    %ecx
     478:	5b                   	pop    %ebx
     479:	58                   	pop    %eax
     47a:	5c                   	pop    %esp
     47b:	cf                   	iret   

000000000000047c <__runtime_v86_idtstub11>:
     47c:	54                   	push   %esp
     47d:	50                   	push   %eax
     47e:	53                   	push   %ebx
     47f:	51                   	push   %ecx
     480:	52                   	push   %edx
     481:	56                   	push   %esi
     482:	57                   	push   %edi
     483:	55                   	push   %ebp
     484:	66 b8 1c 00          	mov    $0x1c,%ax
     488:	8e d8                	mov    %eax,%ds
     48a:	89 e0                	mov    %esp,%eax
     48c:	50                   	push   %eax
     48d:	6a 0b                	push   $0xb
     48f:	e8 7f 31 00 00       	call   3613 <v86_handleinterrupt>
     494:	83 c4 08             	add    $0x8,%esp
     497:	5d                   	pop    %ebp
     498:	5f                   	pop    %edi
     499:	5e                   	pop    %esi
     49a:	5a                   	pop    %edx
     49b:	59                   	pop    %ecx
     49c:	5b                   	pop    %ebx
     49d:	58                   	pop    %eax
     49e:	5c                   	pop    %esp
     49f:	cf                   	iret   

00000000000004a0 <__runtime_v86_idtstub12>:
     4a0:	54                   	push   %esp
     4a1:	50                   	push   %eax
     4a2:	53                   	push   %ebx
     4a3:	51                   	push   %ecx
     4a4:	52                   	push   %edx
     4a5:	56                   	push   %esi
     4a6:	57                   	push   %edi
     4a7:	55                   	push   %ebp
     4a8:	66 b8 1c 00          	mov    $0x1c,%ax
     4ac:	8e d8                	mov    %eax,%ds
     4ae:	89 e0                	mov    %esp,%eax
     4b0:	50                   	push   %eax
     4b1:	6a 0c                	push   $0xc
     4b3:	e8 5b 31 00 00       	call   3613 <v86_handleinterrupt>
     4b8:	83 c4 08             	add    $0x8,%esp
     4bb:	5d                   	pop    %ebp
     4bc:	5f                   	pop    %edi
     4bd:	5e                   	pop    %esi
     4be:	5a                   	pop    %edx
     4bf:	59                   	pop    %ecx
     4c0:	5b                   	pop    %ebx
     4c1:	58                   	pop    %eax
     4c2:	5c                   	pop    %esp
     4c3:	cf                   	iret   

00000000000004c4 <__runtime_v86_idtstub13>:
     4c4:	54                   	push   %esp
     4c5:	50                   	push   %eax
     4c6:	53                   	push   %ebx
     4c7:	51                   	push   %ecx
     4c8:	52                   	push   %edx
     4c9:	56                   	push   %esi
     4ca:	57                   	push   %edi
     4cb:	55                   	push   %ebp
     4cc:	66 b8 1c 00          	mov    $0x1c,%ax
     4d0:	8e d8                	mov    %eax,%ds
     4d2:	89 e0                	mov    %esp,%eax
     4d4:	50                   	push   %eax
     4d5:	6a 0d                	push   $0xd
     4d7:	e8 37 31 00 00       	call   3613 <v86_handleinterrupt>
     4dc:	83 c4 08             	add    $0x8,%esp
     4df:	5d                   	pop    %ebp
     4e0:	5f                   	pop    %edi
     4e1:	5e                   	pop    %esi
     4e2:	5a                   	pop    %edx
     4e3:	59                   	pop    %ecx
     4e4:	5b                   	pop    %ebx
     4e5:	58                   	pop    %eax
     4e6:	5c                   	pop    %esp
     4e7:	cf                   	iret   

00000000000004e8 <__runtime_v86_idtstub14>:
     4e8:	54                   	push   %esp
     4e9:	50                   	push   %eax
     4ea:	53                   	push   %ebx
     4eb:	51                   	push   %ecx
     4ec:	52                   	push   %edx
     4ed:	56                   	push   %esi
     4ee:	57                   	push   %edi
     4ef:	55                   	push   %ebp
     4f0:	66 b8 1c 00          	mov    $0x1c,%ax
     4f4:	8e d8                	mov    %eax,%ds
     4f6:	89 e0                	mov    %esp,%eax
     4f8:	50                   	push   %eax
     4f9:	6a 0e                	push   $0xe
     4fb:	e8 13 31 00 00       	call   3613 <v86_handleinterrupt>
     500:	83 c4 08             	add    $0x8,%esp
     503:	5d                   	pop    %ebp
     504:	5f                   	pop    %edi
     505:	5e                   	pop    %esi
     506:	5a                   	pop    %edx
     507:	59                   	pop    %ecx
     508:	5b                   	pop    %ebx
     509:	58                   	pop    %eax
     50a:	5c                   	pop    %esp
     50b:	cf                   	iret   

000000000000050c <__runtime_v86_idtstub15>:
     50c:	54                   	push   %esp
     50d:	50                   	push   %eax
     50e:	53                   	push   %ebx
     50f:	51                   	push   %ecx
     510:	52                   	push   %edx
     511:	56                   	push   %esi
     512:	57                   	push   %edi
     513:	55                   	push   %ebp
     514:	66 b8 1c 00          	mov    $0x1c,%ax
     518:	8e d8                	mov    %eax,%ds
     51a:	89 e0                	mov    %esp,%eax
     51c:	50                   	push   %eax
     51d:	6a 0f                	push   $0xf
     51f:	e8 ef 30 00 00       	call   3613 <v86_handleinterrupt>
     524:	83 c4 08             	add    $0x8,%esp
     527:	5d                   	pop    %ebp
     528:	5f                   	pop    %edi
     529:	5e                   	pop    %esi
     52a:	5a                   	pop    %edx
     52b:	59                   	pop    %ecx
     52c:	5b                   	pop    %ebx
     52d:	58                   	pop    %eax
     52e:	5c                   	pop    %esp
     52f:	cf                   	iret   

0000000000000530 <__runtime_v86_idtstub16>:
     530:	54                   	push   %esp
     531:	50                   	push   %eax
     532:	53                   	push   %ebx
     533:	51                   	push   %ecx
     534:	52                   	push   %edx
     535:	56                   	push   %esi
     536:	57                   	push   %edi
     537:	55                   	push   %ebp
     538:	66 b8 1c 00          	mov    $0x1c,%ax
     53c:	8e d8                	mov    %eax,%ds
     53e:	89 e0                	mov    %esp,%eax
     540:	50                   	push   %eax
     541:	6a 10                	push   $0x10
     543:	e8 cb 30 00 00       	call   3613 <v86_handleinterrupt>
     548:	83 c4 08             	add    $0x8,%esp
     54b:	5d                   	pop    %ebp
     54c:	5f                   	pop    %edi
     54d:	5e                   	pop    %esi
     54e:	5a                   	pop    %edx
     54f:	59                   	pop    %ecx
     550:	5b                   	pop    %ebx
     551:	58                   	pop    %eax
     552:	5c                   	pop    %esp
     553:	cf                   	iret   

0000000000000554 <__runtime_v86_idtstub17>:
     554:	54                   	push   %esp
     555:	50                   	push   %eax
     556:	53                   	push   %ebx
     557:	51                   	push   %ecx
     558:	52                   	push   %edx
     559:	56                   	push   %esi
     55a:	57                   	push   %edi
     55b:	55                   	push   %ebp
     55c:	66 b8 1c 00          	mov    $0x1c,%ax
     560:	8e d8                	mov    %eax,%ds
     562:	89 e0                	mov    %esp,%eax
     564:	50                   	push   %eax
     565:	6a 11                	push   $0x11
     567:	e8 a7 30 00 00       	call   3613 <v86_handleinterrupt>
     56c:	83 c4 08             	add    $0x8,%esp
     56f:	5d                   	pop    %ebp
     570:	5f                   	pop    %edi
     571:	5e                   	pop    %esi
     572:	5a                   	pop    %edx
     573:	59                   	pop    %ecx
     574:	5b                   	pop    %ebx
     575:	58                   	pop    %eax
     576:	5c                   	pop    %esp
     577:	cf                   	iret   

0000000000000578 <__runtime_v86_idtstub18>:
     578:	54                   	push   %esp
     579:	50                   	push   %eax
     57a:	53                   	push   %ebx
     57b:	51                   	push   %ecx
     57c:	52                   	push   %edx
     57d:	56                   	push   %esi
     57e:	57                   	push   %edi
     57f:	55                   	push   %ebp
     580:	66 b8 1c 00          	mov    $0x1c,%ax
     584:	8e d8                	mov    %eax,%ds
     586:	89 e0                	mov    %esp,%eax
     588:	50                   	push   %eax
     589:	6a 12                	push   $0x12
     58b:	e8 83 30 00 00       	call   3613 <v86_handleinterrupt>
     590:	83 c4 08             	add    $0x8,%esp
     593:	5d                   	pop    %ebp
     594:	5f                   	pop    %edi
     595:	5e                   	pop    %esi
     596:	5a                   	pop    %edx
     597:	59                   	pop    %ecx
     598:	5b                   	pop    %ebx
     599:	58                   	pop    %eax
     59a:	5c                   	pop    %esp
     59b:	cf                   	iret   

000000000000059c <__runtime_v86_idtstub19>:
     59c:	54                   	push   %esp
     59d:	50                   	push   %eax
     59e:	53                   	push   %ebx
     59f:	51                   	push   %ecx
     5a0:	52                   	push   %edx
     5a1:	56                   	push   %esi
     5a2:	57                   	push   %edi
     5a3:	55                   	push   %ebp
     5a4:	66 b8 1c 00          	mov    $0x1c,%ax
     5a8:	8e d8                	mov    %eax,%ds
     5aa:	89 e0                	mov    %esp,%eax
     5ac:	50                   	push   %eax
     5ad:	6a 13                	push   $0x13
     5af:	e8 5f 30 00 00       	call   3613 <v86_handleinterrupt>
     5b4:	83 c4 08             	add    $0x8,%esp
     5b7:	5d                   	pop    %ebp
     5b8:	5f                   	pop    %edi
     5b9:	5e                   	pop    %esi
     5ba:	5a                   	pop    %edx
     5bb:	59                   	pop    %ecx
     5bc:	5b                   	pop    %ebx
     5bd:	58                   	pop    %eax
     5be:	5c                   	pop    %esp
     5bf:	cf                   	iret   

00000000000005c0 <__runtime_v86_idtstub20>:
     5c0:	54                   	push   %esp
     5c1:	50                   	push   %eax
     5c2:	53                   	push   %ebx
     5c3:	51                   	push   %ecx
     5c4:	52                   	push   %edx
     5c5:	56                   	push   %esi
     5c6:	57                   	push   %edi
     5c7:	55                   	push   %ebp
     5c8:	66 b8 1c 00          	mov    $0x1c,%ax
     5cc:	8e d8                	mov    %eax,%ds
     5ce:	89 e0                	mov    %esp,%eax
     5d0:	50                   	push   %eax
     5d1:	6a 14                	push   $0x14
     5d3:	e8 3b 30 00 00       	call   3613 <v86_handleinterrupt>
     5d8:	83 c4 08             	add    $0x8,%esp
     5db:	5d                   	pop    %ebp
     5dc:	5f                   	pop    %edi
     5dd:	5e                   	pop    %esi
     5de:	5a                   	pop    %edx
     5df:	59                   	pop    %ecx
     5e0:	5b                   	pop    %ebx
     5e1:	58                   	pop    %eax
     5e2:	5c                   	pop    %esp
     5e3:	cf                   	iret   

00000000000005e4 <__runtime_v86_idtstub21>:
     5e4:	54                   	push   %esp
     5e5:	50                   	push   %eax
     5e6:	53                   	push   %ebx
     5e7:	51                   	push   %ecx
     5e8:	52                   	push   %edx
     5e9:	56                   	push   %esi
     5ea:	57                   	push   %edi
     5eb:	55                   	push   %ebp
     5ec:	66 b8 1c 00          	mov    $0x1c,%ax
     5f0:	8e d8                	mov    %eax,%ds
     5f2:	89 e0                	mov    %esp,%eax
     5f4:	50                   	push   %eax
     5f5:	6a 15                	push   $0x15
     5f7:	e8 17 30 00 00       	call   3613 <v86_handleinterrupt>
     5fc:	83 c4 08             	add    $0x8,%esp
     5ff:	5d                   	pop    %ebp
     600:	5f                   	pop    %edi
     601:	5e                   	pop    %esi
     602:	5a                   	pop    %edx
     603:	59                   	pop    %ecx
     604:	5b                   	pop    %ebx
     605:	58                   	pop    %eax
     606:	5c                   	pop    %esp
     607:	cf                   	iret   

0000000000000608 <__runtime_v86_idtstub22>:
     608:	54                   	push   %esp
     609:	50                   	push   %eax
     60a:	53                   	push   %ebx
     60b:	51                   	push   %ecx
     60c:	52                   	push   %edx
     60d:	56                   	push   %esi
     60e:	57                   	push   %edi
     60f:	55                   	push   %ebp
     610:	66 b8 1c 00          	mov    $0x1c,%ax
     614:	8e d8                	mov    %eax,%ds
     616:	89 e0                	mov    %esp,%eax
     618:	50                   	push   %eax
     619:	6a 16                	push   $0x16
     61b:	e8 f3 2f 00 00       	call   3613 <v86_handleinterrupt>
     620:	83 c4 08             	add    $0x8,%esp
     623:	5d                   	pop    %ebp
     624:	5f                   	pop    %edi
     625:	5e                   	pop    %esi
     626:	5a                   	pop    %edx
     627:	59                   	pop    %ecx
     628:	5b                   	pop    %ebx
     629:	58                   	pop    %eax
     62a:	5c                   	pop    %esp
     62b:	cf                   	iret   

000000000000062c <__runtime_v86_idtstub23>:
     62c:	54                   	push   %esp
     62d:	50                   	push   %eax
     62e:	53                   	push   %ebx
     62f:	51                   	push   %ecx
     630:	52                   	push   %edx
     631:	56                   	push   %esi
     632:	57                   	push   %edi
     633:	55                   	push   %ebp
     634:	66 b8 1c 00          	mov    $0x1c,%ax
     638:	8e d8                	mov    %eax,%ds
     63a:	89 e0                	mov    %esp,%eax
     63c:	50                   	push   %eax
     63d:	6a 17                	push   $0x17
     63f:	e8 cf 2f 00 00       	call   3613 <v86_handleinterrupt>
     644:	83 c4 08             	add    $0x8,%esp
     647:	5d                   	pop    %ebp
     648:	5f                   	pop    %edi
     649:	5e                   	pop    %esi
     64a:	5a                   	pop    %edx
     64b:	59                   	pop    %ecx
     64c:	5b                   	pop    %ebx
     64d:	58                   	pop    %eax
     64e:	5c                   	pop    %esp
     64f:	cf                   	iret   

0000000000000650 <__runtime_v86_idtstub24>:
     650:	54                   	push   %esp
     651:	50                   	push   %eax
     652:	53                   	push   %ebx
     653:	51                   	push   %ecx
     654:	52                   	push   %edx
     655:	56                   	push   %esi
     656:	57                   	push   %edi
     657:	55                   	push   %ebp
     658:	66 b8 1c 00          	mov    $0x1c,%ax
     65c:	8e d8                	mov    %eax,%ds
     65e:	89 e0                	mov    %esp,%eax
     660:	50                   	push   %eax
     661:	6a 18                	push   $0x18
     663:	e8 ab 2f 00 00       	call   3613 <v86_handleinterrupt>
     668:	83 c4 08             	add    $0x8,%esp
     66b:	5d                   	pop    %ebp
     66c:	5f                   	pop    %edi
     66d:	5e                   	pop    %esi
     66e:	5a                   	pop    %edx
     66f:	59                   	pop    %ecx
     670:	5b                   	pop    %ebx
     671:	58                   	pop    %eax
     672:	5c                   	pop    %esp
     673:	cf                   	iret   

0000000000000674 <__runtime_v86_idtstub25>:
     674:	54                   	push   %esp
     675:	50                   	push   %eax
     676:	53                   	push   %ebx
     677:	51                   	push   %ecx
     678:	52                   	push   %edx
     679:	56                   	push   %esi
     67a:	57                   	push   %edi
     67b:	55                   	push   %ebp
     67c:	66 b8 1c 00          	mov    $0x1c,%ax
     680:	8e d8                	mov    %eax,%ds
     682:	89 e0                	mov    %esp,%eax
     684:	50                   	push   %eax
     685:	6a 19                	push   $0x19
     687:	e8 87 2f 00 00       	call   3613 <v86_handleinterrupt>
     68c:	83 c4 08             	add    $0x8,%esp
     68f:	5d                   	pop    %ebp
     690:	5f                   	pop    %edi
     691:	5e                   	pop    %esi
     692:	5a                   	pop    %edx
     693:	59                   	pop    %ecx
     694:	5b                   	pop    %ebx
     695:	58                   	pop    %eax
     696:	5c                   	pop    %esp
     697:	cf                   	iret   

0000000000000698 <__runtime_v86_idtstub26>:
     698:	54                   	push   %esp
     699:	50                   	push   %eax
     69a:	53                   	push   %ebx
     69b:	51                   	push   %ecx
     69c:	52                   	push   %edx
     69d:	56                   	push   %esi
     69e:	57                   	push   %edi
     69f:	55                   	push   %ebp
     6a0:	66 b8 1c 00          	mov    $0x1c,%ax
     6a4:	8e d8                	mov    %eax,%ds
     6a6:	89 e0                	mov    %esp,%eax
     6a8:	50                   	push   %eax
     6a9:	6a 1a                	push   $0x1a
     6ab:	e8 63 2f 00 00       	call   3613 <v86_handleinterrupt>
     6b0:	83 c4 08             	add    $0x8,%esp
     6b3:	5d                   	pop    %ebp
     6b4:	5f                   	pop    %edi
     6b5:	5e                   	pop    %esi
     6b6:	5a                   	pop    %edx
     6b7:	59                   	pop    %ecx
     6b8:	5b                   	pop    %ebx
     6b9:	58                   	pop    %eax
     6ba:	5c                   	pop    %esp
     6bb:	cf                   	iret   

00000000000006bc <__runtime_v86_idtstub27>:
     6bc:	54                   	push   %esp
     6bd:	50                   	push   %eax
     6be:	53                   	push   %ebx
     6bf:	51                   	push   %ecx
     6c0:	52                   	push   %edx
     6c1:	56                   	push   %esi
     6c2:	57                   	push   %edi
     6c3:	55                   	push   %ebp
     6c4:	66 b8 1c 00          	mov    $0x1c,%ax
     6c8:	8e d8                	mov    %eax,%ds
     6ca:	89 e0                	mov    %esp,%eax
     6cc:	50                   	push   %eax
     6cd:	6a 1b                	push   $0x1b
     6cf:	e8 3f 2f 00 00       	call   3613 <v86_handleinterrupt>
     6d4:	83 c4 08             	add    $0x8,%esp
     6d7:	5d                   	pop    %ebp
     6d8:	5f                   	pop    %edi
     6d9:	5e                   	pop    %esi
     6da:	5a                   	pop    %edx
     6db:	59                   	pop    %ecx
     6dc:	5b                   	pop    %ebx
     6dd:	58                   	pop    %eax
     6de:	5c                   	pop    %esp
     6df:	cf                   	iret   

00000000000006e0 <__runtime_v86_idtstub28>:
     6e0:	54                   	push   %esp
     6e1:	50                   	push   %eax
     6e2:	53                   	push   %ebx
     6e3:	51                   	push   %ecx
     6e4:	52                   	push   %edx
     6e5:	56                   	push   %esi
     6e6:	57                   	push   %edi
     6e7:	55                   	push   %ebp
     6e8:	66 b8 1c 00          	mov    $0x1c,%ax
     6ec:	8e d8                	mov    %eax,%ds
     6ee:	89 e0                	mov    %esp,%eax
     6f0:	50                   	push   %eax
     6f1:	6a 1c                	push   $0x1c
     6f3:	e8 1b 2f 00 00       	call   3613 <v86_handleinterrupt>
     6f8:	83 c4 08             	add    $0x8,%esp
     6fb:	5d                   	pop    %ebp
     6fc:	5f                   	pop    %edi
     6fd:	5e                   	pop    %esi
     6fe:	5a                   	pop    %edx
     6ff:	59                   	pop    %ecx
     700:	5b                   	pop    %ebx
     701:	58                   	pop    %eax
     702:	5c                   	pop    %esp
     703:	cf                   	iret   

0000000000000704 <__runtime_v86_idtstub29>:
     704:	54                   	push   %esp
     705:	50                   	push   %eax
     706:	53                   	push   %ebx
     707:	51                   	push   %ecx
     708:	52                   	push   %edx
     709:	56                   	push   %esi
     70a:	57                   	push   %edi
     70b:	55                   	push   %ebp
     70c:	66 b8 1c 00          	mov    $0x1c,%ax
     710:	8e d8                	mov    %eax,%ds
     712:	89 e0                	mov    %esp,%eax
     714:	50                   	push   %eax
     715:	6a 1d                	push   $0x1d
     717:	e8 f7 2e 00 00       	call   3613 <v86_handleinterrupt>
     71c:	83 c4 08             	add    $0x8,%esp
     71f:	5d                   	pop    %ebp
     720:	5f                   	pop    %edi
     721:	5e                   	pop    %esi
     722:	5a                   	pop    %edx
     723:	59                   	pop    %ecx
     724:	5b                   	pop    %ebx
     725:	58                   	pop    %eax
     726:	5c                   	pop    %esp
     727:	cf                   	iret   

0000000000000728 <__runtime_v86_idtstub30>:
     728:	54                   	push   %esp
     729:	50                   	push   %eax
     72a:	53                   	push   %ebx
     72b:	51                   	push   %ecx
     72c:	52                   	push   %edx
     72d:	56                   	push   %esi
     72e:	57                   	push   %edi
     72f:	55                   	push   %ebp
     730:	66 b8 1c 00          	mov    $0x1c,%ax
     734:	8e d8                	mov    %eax,%ds
     736:	89 e0                	mov    %esp,%eax
     738:	50                   	push   %eax
     739:	6a 1e                	push   $0x1e
     73b:	e8 d3 2e 00 00       	call   3613 <v86_handleinterrupt>
     740:	83 c4 08             	add    $0x8,%esp
     743:	5d                   	pop    %ebp
     744:	5f                   	pop    %edi
     745:	5e                   	pop    %esi
     746:	5a                   	pop    %edx
     747:	59                   	pop    %ecx
     748:	5b                   	pop    %ebx
     749:	58                   	pop    %eax
     74a:	5c                   	pop    %esp
     74b:	cf                   	iret   

000000000000074c <__runtime_v86_idtstub31>:
     74c:	54                   	push   %esp
     74d:	50                   	push   %eax
     74e:	53                   	push   %ebx
     74f:	51                   	push   %ecx
     750:	52                   	push   %edx
     751:	56                   	push   %esi
     752:	57                   	push   %edi
     753:	55                   	push   %ebp
     754:	66 b8 1c 00          	mov    $0x1c,%ax
     758:	8e d8                	mov    %eax,%ds
     75a:	89 e0                	mov    %esp,%eax
     75c:	50                   	push   %eax
     75d:	6a 1f                	push   $0x1f
     75f:	e8 af 2e 00 00       	call   3613 <v86_handleinterrupt>
     764:	83 c4 08             	add    $0x8,%esp
     767:	5d                   	pop    %ebp
     768:	5f                   	pop    %edi
     769:	5e                   	pop    %esi
     76a:	5a                   	pop    %edx
     76b:	59                   	pop    %ecx
     76c:	5b                   	pop    %ebx
     76d:	58                   	pop    %eax
     76e:	5c                   	pop    %esp
     76f:	cf                   	iret   

0000000000000770 <__runtime_v86_idtstub32>:
     770:	54                   	push   %esp
     771:	50                   	push   %eax
     772:	53                   	push   %ebx
     773:	51                   	push   %ecx
     774:	52                   	push   %edx
     775:	56                   	push   %esi
     776:	57                   	push   %edi
     777:	55                   	push   %ebp
     778:	66 b8 1c 00          	mov    $0x1c,%ax
     77c:	8e d8                	mov    %eax,%ds
     77e:	89 e0                	mov    %esp,%eax
     780:	50                   	push   %eax
     781:	6a 20                	push   $0x20
     783:	e8 8b 2e 00 00       	call   3613 <v86_handleinterrupt>
     788:	83 c4 08             	add    $0x8,%esp
     78b:	5d                   	pop    %ebp
     78c:	5f                   	pop    %edi
     78d:	5e                   	pop    %esi
     78e:	5a                   	pop    %edx
     78f:	59                   	pop    %ecx
     790:	5b                   	pop    %ebx
     791:	58                   	pop    %eax
     792:	5c                   	pop    %esp
     793:	cf                   	iret   

0000000000000794 <__runtime_v86_idtstub33>:
     794:	54                   	push   %esp
     795:	50                   	push   %eax
     796:	53                   	push   %ebx
     797:	51                   	push   %ecx
     798:	52                   	push   %edx
     799:	56                   	push   %esi
     79a:	57                   	push   %edi
     79b:	55                   	push   %ebp
     79c:	66 b8 1c 00          	mov    $0x1c,%ax
     7a0:	8e d8                	mov    %eax,%ds
     7a2:	89 e0                	mov    %esp,%eax
     7a4:	50                   	push   %eax
     7a5:	6a 21                	push   $0x21
     7a7:	e8 67 2e 00 00       	call   3613 <v86_handleinterrupt>
     7ac:	83 c4 08             	add    $0x8,%esp
     7af:	5d                   	pop    %ebp
     7b0:	5f                   	pop    %edi
     7b1:	5e                   	pop    %esi
     7b2:	5a                   	pop    %edx
     7b3:	59                   	pop    %ecx
     7b4:	5b                   	pop    %ebx
     7b5:	58                   	pop    %eax
     7b6:	5c                   	pop    %esp
     7b7:	cf                   	iret   

00000000000007b8 <__runtime_v86_idtstub34>:
     7b8:	54                   	push   %esp
     7b9:	50                   	push   %eax
     7ba:	53                   	push   %ebx
     7bb:	51                   	push   %ecx
     7bc:	52                   	push   %edx
     7bd:	56                   	push   %esi
     7be:	57                   	push   %edi
     7bf:	55                   	push   %ebp
     7c0:	66 b8 1c 00          	mov    $0x1c,%ax
     7c4:	8e d8                	mov    %eax,%ds
     7c6:	89 e0                	mov    %esp,%eax
     7c8:	50                   	push   %eax
     7c9:	6a 22                	push   $0x22
     7cb:	e8 43 2e 00 00       	call   3613 <v86_handleinterrupt>
     7d0:	83 c4 08             	add    $0x8,%esp
     7d3:	5d                   	pop    %ebp
     7d4:	5f                   	pop    %edi
     7d5:	5e                   	pop    %esi
     7d6:	5a                   	pop    %edx
     7d7:	59                   	pop    %ecx
     7d8:	5b                   	pop    %ebx
     7d9:	58                   	pop    %eax
     7da:	5c                   	pop    %esp
     7db:	cf                   	iret   

00000000000007dc <__runtime_v86_idtstub35>:
     7dc:	54                   	push   %esp
     7dd:	50                   	push   %eax
     7de:	53                   	push   %ebx
     7df:	51                   	push   %ecx
     7e0:	52                   	push   %edx
     7e1:	56                   	push   %esi
     7e2:	57                   	push   %edi
     7e3:	55                   	push   %ebp
     7e4:	66 b8 1c 00          	mov    $0x1c,%ax
     7e8:	8e d8                	mov    %eax,%ds
     7ea:	89 e0                	mov    %esp,%eax
     7ec:	50                   	push   %eax
     7ed:	6a 23                	push   $0x23
     7ef:	e8 1f 2e 00 00       	call   3613 <v86_handleinterrupt>
     7f4:	83 c4 08             	add    $0x8,%esp
     7f7:	5d                   	pop    %ebp
     7f8:	5f                   	pop    %edi
     7f9:	5e                   	pop    %esi
     7fa:	5a                   	pop    %edx
     7fb:	59                   	pop    %ecx
     7fc:	5b                   	pop    %ebx
     7fd:	58                   	pop    %eax
     7fe:	5c                   	pop    %esp
     7ff:	cf                   	iret   

0000000000000800 <__runtime_v86_idtstub36>:
     800:	54                   	push   %esp
     801:	50                   	push   %eax
     802:	53                   	push   %ebx
     803:	51                   	push   %ecx
     804:	52                   	push   %edx
     805:	56                   	push   %esi
     806:	57                   	push   %edi
     807:	55                   	push   %ebp
     808:	66 b8 1c 00          	mov    $0x1c,%ax
     80c:	8e d8                	mov    %eax,%ds
     80e:	89 e0                	mov    %esp,%eax
     810:	50                   	push   %eax
     811:	6a 24                	push   $0x24
     813:	e8 fb 2d 00 00       	call   3613 <v86_handleinterrupt>
     818:	83 c4 08             	add    $0x8,%esp
     81b:	5d                   	pop    %ebp
     81c:	5f                   	pop    %edi
     81d:	5e                   	pop    %esi
     81e:	5a                   	pop    %edx
     81f:	59                   	pop    %ecx
     820:	5b                   	pop    %ebx
     821:	58                   	pop    %eax
     822:	5c                   	pop    %esp
     823:	cf                   	iret   

0000000000000824 <__runtime_v86_idtstub37>:
     824:	54                   	push   %esp
     825:	50                   	push   %eax
     826:	53                   	push   %ebx
     827:	51                   	push   %ecx
     828:	52                   	push   %edx
     829:	56                   	push   %esi
     82a:	57                   	push   %edi
     82b:	55                   	push   %ebp
     82c:	66 b8 1c 00          	mov    $0x1c,%ax
     830:	8e d8                	mov    %eax,%ds
     832:	89 e0                	mov    %esp,%eax
     834:	50                   	push   %eax
     835:	6a 25                	push   $0x25
     837:	e8 d7 2d 00 00       	call   3613 <v86_handleinterrupt>
     83c:	83 c4 08             	add    $0x8,%esp
     83f:	5d                   	pop    %ebp
     840:	5f                   	pop    %edi
     841:	5e                   	pop    %esi
     842:	5a                   	pop    %edx
     843:	59                   	pop    %ecx
     844:	5b                   	pop    %ebx
     845:	58                   	pop    %eax
     846:	5c                   	pop    %esp
     847:	cf                   	iret   

0000000000000848 <__runtime_v86_idtstub38>:
     848:	54                   	push   %esp
     849:	50                   	push   %eax
     84a:	53                   	push   %ebx
     84b:	51                   	push   %ecx
     84c:	52                   	push   %edx
     84d:	56                   	push   %esi
     84e:	57                   	push   %edi
     84f:	55                   	push   %ebp
     850:	66 b8 1c 00          	mov    $0x1c,%ax
     854:	8e d8                	mov    %eax,%ds
     856:	89 e0                	mov    %esp,%eax
     858:	50                   	push   %eax
     859:	6a 26                	push   $0x26
     85b:	e8 b3 2d 00 00       	call   3613 <v86_handleinterrupt>
     860:	83 c4 08             	add    $0x8,%esp
     863:	5d                   	pop    %ebp
     864:	5f                   	pop    %edi
     865:	5e                   	pop    %esi
     866:	5a                   	pop    %edx
     867:	59                   	pop    %ecx
     868:	5b                   	pop    %ebx
     869:	58                   	pop    %eax
     86a:	5c                   	pop    %esp
     86b:	cf                   	iret   

000000000000086c <__runtime_v86_idtstub39>:
     86c:	54                   	push   %esp
     86d:	50                   	push   %eax
     86e:	53                   	push   %ebx
     86f:	51                   	push   %ecx
     870:	52                   	push   %edx
     871:	56                   	push   %esi
     872:	57                   	push   %edi
     873:	55                   	push   %ebp
     874:	66 b8 1c 00          	mov    $0x1c,%ax
     878:	8e d8                	mov    %eax,%ds
     87a:	89 e0                	mov    %esp,%eax
     87c:	50                   	push   %eax
     87d:	6a 27                	push   $0x27
     87f:	e8 8f 2d 00 00       	call   3613 <v86_handleinterrupt>
     884:	83 c4 08             	add    $0x8,%esp
     887:	5d                   	pop    %ebp
     888:	5f                   	pop    %edi
     889:	5e                   	pop    %esi
     88a:	5a                   	pop    %edx
     88b:	59                   	pop    %ecx
     88c:	5b                   	pop    %ebx
     88d:	58                   	pop    %eax
     88e:	5c                   	pop    %esp
     88f:	cf                   	iret   

0000000000000890 <__runtime_v86_idtstub40>:
     890:	54                   	push   %esp
     891:	50                   	push   %eax
     892:	53                   	push   %ebx
     893:	51                   	push   %ecx
     894:	52                   	push   %edx
     895:	56                   	push   %esi
     896:	57                   	push   %edi
     897:	55                   	push   %ebp
     898:	66 b8 1c 00          	mov    $0x1c,%ax
     89c:	8e d8                	mov    %eax,%ds
     89e:	89 e0                	mov    %esp,%eax
     8a0:	50                   	push   %eax
     8a1:	6a 28                	push   $0x28
     8a3:	e8 6b 2d 00 00       	call   3613 <v86_handleinterrupt>
     8a8:	83 c4 08             	add    $0x8,%esp
     8ab:	5d                   	pop    %ebp
     8ac:	5f                   	pop    %edi
     8ad:	5e                   	pop    %esi
     8ae:	5a                   	pop    %edx
     8af:	59                   	pop    %ecx
     8b0:	5b                   	pop    %ebx
     8b1:	58                   	pop    %eax
     8b2:	5c                   	pop    %esp
     8b3:	cf                   	iret   

00000000000008b4 <__runtime_v86_idtstub41>:
     8b4:	54                   	push   %esp
     8b5:	50                   	push   %eax
     8b6:	53                   	push   %ebx
     8b7:	51                   	push   %ecx
     8b8:	52                   	push   %edx
     8b9:	56                   	push   %esi
     8ba:	57                   	push   %edi
     8bb:	55                   	push   %ebp
     8bc:	66 b8 1c 00          	mov    $0x1c,%ax
     8c0:	8e d8                	mov    %eax,%ds
     8c2:	89 e0                	mov    %esp,%eax
     8c4:	50                   	push   %eax
     8c5:	6a 29                	push   $0x29
     8c7:	e8 47 2d 00 00       	call   3613 <v86_handleinterrupt>
     8cc:	83 c4 08             	add    $0x8,%esp
     8cf:	5d                   	pop    %ebp
     8d0:	5f                   	pop    %edi
     8d1:	5e                   	pop    %esi
     8d2:	5a                   	pop    %edx
     8d3:	59                   	pop    %ecx
     8d4:	5b                   	pop    %ebx
     8d5:	58                   	pop    %eax
     8d6:	5c                   	pop    %esp
     8d7:	cf                   	iret   

00000000000008d8 <__runtime_v86_idtstub42>:
     8d8:	54                   	push   %esp
     8d9:	50                   	push   %eax
     8da:	53                   	push   %ebx
     8db:	51                   	push   %ecx
     8dc:	52                   	push   %edx
     8dd:	56                   	push   %esi
     8de:	57                   	push   %edi
     8df:	55                   	push   %ebp
     8e0:	66 b8 1c 00          	mov    $0x1c,%ax
     8e4:	8e d8                	mov    %eax,%ds
     8e6:	89 e0                	mov    %esp,%eax
     8e8:	50                   	push   %eax
     8e9:	6a 2a                	push   $0x2a
     8eb:	e8 23 2d 00 00       	call   3613 <v86_handleinterrupt>
     8f0:	83 c4 08             	add    $0x8,%esp
     8f3:	5d                   	pop    %ebp
     8f4:	5f                   	pop    %edi
     8f5:	5e                   	pop    %esi
     8f6:	5a                   	pop    %edx
     8f7:	59                   	pop    %ecx
     8f8:	5b                   	pop    %ebx
     8f9:	58                   	pop    %eax
     8fa:	5c                   	pop    %esp
     8fb:	cf                   	iret   

00000000000008fc <__runtime_v86_idtstub43>:
     8fc:	54                   	push   %esp
     8fd:	50                   	push   %eax
     8fe:	53                   	push   %ebx
     8ff:	51                   	push   %ecx
     900:	52                   	push   %edx
     901:	56                   	push   %esi
     902:	57                   	push   %edi
     903:	55                   	push   %ebp
     904:	66 b8 1c 00          	mov    $0x1c,%ax
     908:	8e d8                	mov    %eax,%ds
     90a:	89 e0                	mov    %esp,%eax
     90c:	50                   	push   %eax
     90d:	6a 2b                	push   $0x2b
     90f:	e8 ff 2c 00 00       	call   3613 <v86_handleinterrupt>
     914:	83 c4 08             	add    $0x8,%esp
     917:	5d                   	pop    %ebp
     918:	5f                   	pop    %edi
     919:	5e                   	pop    %esi
     91a:	5a                   	pop    %edx
     91b:	59                   	pop    %ecx
     91c:	5b                   	pop    %ebx
     91d:	58                   	pop    %eax
     91e:	5c                   	pop    %esp
     91f:	cf                   	iret   

0000000000000920 <__runtime_v86_idtstub44>:
     920:	54                   	push   %esp
     921:	50                   	push   %eax
     922:	53                   	push   %ebx
     923:	51                   	push   %ecx
     924:	52                   	push   %edx
     925:	56                   	push   %esi
     926:	57                   	push   %edi
     927:	55                   	push   %ebp
     928:	66 b8 1c 00          	mov    $0x1c,%ax
     92c:	8e d8                	mov    %eax,%ds
     92e:	89 e0                	mov    %esp,%eax
     930:	50                   	push   %eax
     931:	6a 2c                	push   $0x2c
     933:	e8 db 2c 00 00       	call   3613 <v86_handleinterrupt>
     938:	83 c4 08             	add    $0x8,%esp
     93b:	5d                   	pop    %ebp
     93c:	5f                   	pop    %edi
     93d:	5e                   	pop    %esi
     93e:	5a                   	pop    %edx
     93f:	59                   	pop    %ecx
     940:	5b                   	pop    %ebx
     941:	58                   	pop    %eax
     942:	5c                   	pop    %esp
     943:	cf                   	iret   

0000000000000944 <__runtime_v86_idtstub45>:
     944:	54                   	push   %esp
     945:	50                   	push   %eax
     946:	53                   	push   %ebx
     947:	51                   	push   %ecx
     948:	52                   	push   %edx
     949:	56                   	push   %esi
     94a:	57                   	push   %edi
     94b:	55                   	push   %ebp
     94c:	66 b8 1c 00          	mov    $0x1c,%ax
     950:	8e d8                	mov    %eax,%ds
     952:	89 e0                	mov    %esp,%eax
     954:	50                   	push   %eax
     955:	6a 2d                	push   $0x2d
     957:	e8 b7 2c 00 00       	call   3613 <v86_handleinterrupt>
     95c:	83 c4 08             	add    $0x8,%esp
     95f:	5d                   	pop    %ebp
     960:	5f                   	pop    %edi
     961:	5e                   	pop    %esi
     962:	5a                   	pop    %edx
     963:	59                   	pop    %ecx
     964:	5b                   	pop    %ebx
     965:	58                   	pop    %eax
     966:	5c                   	pop    %esp
     967:	cf                   	iret   

0000000000000968 <__runtime_v86_idtstub46>:
     968:	54                   	push   %esp
     969:	50                   	push   %eax
     96a:	53                   	push   %ebx
     96b:	51                   	push   %ecx
     96c:	52                   	push   %edx
     96d:	56                   	push   %esi
     96e:	57                   	push   %edi
     96f:	55                   	push   %ebp
     970:	66 b8 1c 00          	mov    $0x1c,%ax
     974:	8e d8                	mov    %eax,%ds
     976:	89 e0                	mov    %esp,%eax
     978:	50                   	push   %eax
     979:	6a 2e                	push   $0x2e
     97b:	e8 93 2c 00 00       	call   3613 <v86_handleinterrupt>
     980:	83 c4 08             	add    $0x8,%esp
     983:	5d                   	pop    %ebp
     984:	5f                   	pop    %edi
     985:	5e                   	pop    %esi
     986:	5a                   	pop    %edx
     987:	59                   	pop    %ecx
     988:	5b                   	pop    %ebx
     989:	58                   	pop    %eax
     98a:	5c                   	pop    %esp
     98b:	cf                   	iret   

000000000000098c <__runtime_v86_idtstub47>:
     98c:	54                   	push   %esp
     98d:	50                   	push   %eax
     98e:	53                   	push   %ebx
     98f:	51                   	push   %ecx
     990:	52                   	push   %edx
     991:	56                   	push   %esi
     992:	57                   	push   %edi
     993:	55                   	push   %ebp
     994:	66 b8 1c 00          	mov    $0x1c,%ax
     998:	8e d8                	mov    %eax,%ds
     99a:	89 e0                	mov    %esp,%eax
     99c:	50                   	push   %eax
     99d:	6a 2f                	push   $0x2f
     99f:	e8 6f 2c 00 00       	call   3613 <v86_handleinterrupt>
     9a4:	83 c4 08             	add    $0x8,%esp
     9a7:	5d                   	pop    %ebp
     9a8:	5f                   	pop    %edi
     9a9:	5e                   	pop    %esi
     9aa:	5a                   	pop    %edx
     9ab:	59                   	pop    %ecx
     9ac:	5b                   	pop    %ebx
     9ad:	58                   	pop    %eax
     9ae:	5c                   	pop    %esp
     9af:	cf                   	iret   

00000000000009b0 <__runtime_v86_idtstub48>:
     9b0:	54                   	push   %esp
     9b1:	50                   	push   %eax
     9b2:	53                   	push   %ebx
     9b3:	51                   	push   %ecx
     9b4:	52                   	push   %edx
     9b5:	56                   	push   %esi
     9b6:	57                   	push   %edi
     9b7:	55                   	push   %ebp
     9b8:	66 b8 1c 00          	mov    $0x1c,%ax
     9bc:	8e d8                	mov    %eax,%ds
     9be:	89 e0                	mov    %esp,%eax
     9c0:	50                   	push   %eax
     9c1:	6a 30                	push   $0x30
     9c3:	e8 4b 2c 00 00       	call   3613 <v86_handleinterrupt>
     9c8:	83 c4 08             	add    $0x8,%esp
     9cb:	5d                   	pop    %ebp
     9cc:	5f                   	pop    %edi
     9cd:	5e                   	pop    %esi
     9ce:	5a                   	pop    %edx
     9cf:	59                   	pop    %ecx
     9d0:	5b                   	pop    %ebx
     9d1:	58                   	pop    %eax
     9d2:	5c                   	pop    %esp
     9d3:	cf                   	iret   

00000000000009d4 <__runtime_v86_idtstub49>:
     9d4:	54                   	push   %esp
     9d5:	50                   	push   %eax
     9d6:	53                   	push   %ebx
     9d7:	51                   	push   %ecx
     9d8:	52                   	push   %edx
     9d9:	56                   	push   %esi
     9da:	57                   	push   %edi
     9db:	55                   	push   %ebp
     9dc:	66 b8 1c 00          	mov    $0x1c,%ax
     9e0:	8e d8                	mov    %eax,%ds
     9e2:	89 e0                	mov    %esp,%eax
     9e4:	50                   	push   %eax
     9e5:	6a 31                	push   $0x31
     9e7:	e8 27 2c 00 00       	call   3613 <v86_handleinterrupt>
     9ec:	83 c4 08             	add    $0x8,%esp
     9ef:	5d                   	pop    %ebp
     9f0:	5f                   	pop    %edi
     9f1:	5e                   	pop    %esi
     9f2:	5a                   	pop    %edx
     9f3:	59                   	pop    %ecx
     9f4:	5b                   	pop    %ebx
     9f5:	58                   	pop    %eax
     9f6:	5c                   	pop    %esp
     9f7:	cf                   	iret   

00000000000009f8 <__runtime_v86_idtstub50>:
     9f8:	54                   	push   %esp
     9f9:	50                   	push   %eax
     9fa:	53                   	push   %ebx
     9fb:	51                   	push   %ecx
     9fc:	52                   	push   %edx
     9fd:	56                   	push   %esi
     9fe:	57                   	push   %edi
     9ff:	55                   	push   %ebp
     a00:	66 b8 1c 00          	mov    $0x1c,%ax
     a04:	8e d8                	mov    %eax,%ds
     a06:	89 e0                	mov    %esp,%eax
     a08:	50                   	push   %eax
     a09:	6a 32                	push   $0x32
     a0b:	e8 03 2c 00 00       	call   3613 <v86_handleinterrupt>
     a10:	83 c4 08             	add    $0x8,%esp
     a13:	5d                   	pop    %ebp
     a14:	5f                   	pop    %edi
     a15:	5e                   	pop    %esi
     a16:	5a                   	pop    %edx
     a17:	59                   	pop    %ecx
     a18:	5b                   	pop    %ebx
     a19:	58                   	pop    %eax
     a1a:	5c                   	pop    %esp
     a1b:	cf                   	iret   

0000000000000a1c <__runtime_v86_idtstub51>:
     a1c:	54                   	push   %esp
     a1d:	50                   	push   %eax
     a1e:	53                   	push   %ebx
     a1f:	51                   	push   %ecx
     a20:	52                   	push   %edx
     a21:	56                   	push   %esi
     a22:	57                   	push   %edi
     a23:	55                   	push   %ebp
     a24:	66 b8 1c 00          	mov    $0x1c,%ax
     a28:	8e d8                	mov    %eax,%ds
     a2a:	89 e0                	mov    %esp,%eax
     a2c:	50                   	push   %eax
     a2d:	6a 33                	push   $0x33
     a2f:	e8 df 2b 00 00       	call   3613 <v86_handleinterrupt>
     a34:	83 c4 08             	add    $0x8,%esp
     a37:	5d                   	pop    %ebp
     a38:	5f                   	pop    %edi
     a39:	5e                   	pop    %esi
     a3a:	5a                   	pop    %edx
     a3b:	59                   	pop    %ecx
     a3c:	5b                   	pop    %ebx
     a3d:	58                   	pop    %eax
     a3e:	5c                   	pop    %esp
     a3f:	cf                   	iret   

0000000000000a40 <__runtime_v86_idtstub52>:
     a40:	54                   	push   %esp
     a41:	50                   	push   %eax
     a42:	53                   	push   %ebx
     a43:	51                   	push   %ecx
     a44:	52                   	push   %edx
     a45:	56                   	push   %esi
     a46:	57                   	push   %edi
     a47:	55                   	push   %ebp
     a48:	66 b8 1c 00          	mov    $0x1c,%ax
     a4c:	8e d8                	mov    %eax,%ds
     a4e:	89 e0                	mov    %esp,%eax
     a50:	50                   	push   %eax
     a51:	6a 34                	push   $0x34
     a53:	e8 bb 2b 00 00       	call   3613 <v86_handleinterrupt>
     a58:	83 c4 08             	add    $0x8,%esp
     a5b:	5d                   	pop    %ebp
     a5c:	5f                   	pop    %edi
     a5d:	5e                   	pop    %esi
     a5e:	5a                   	pop    %edx
     a5f:	59                   	pop    %ecx
     a60:	5b                   	pop    %ebx
     a61:	58                   	pop    %eax
     a62:	5c                   	pop    %esp
     a63:	cf                   	iret   

0000000000000a64 <__runtime_v86_idtstub53>:
     a64:	54                   	push   %esp
     a65:	50                   	push   %eax
     a66:	53                   	push   %ebx
     a67:	51                   	push   %ecx
     a68:	52                   	push   %edx
     a69:	56                   	push   %esi
     a6a:	57                   	push   %edi
     a6b:	55                   	push   %ebp
     a6c:	66 b8 1c 00          	mov    $0x1c,%ax
     a70:	8e d8                	mov    %eax,%ds
     a72:	89 e0                	mov    %esp,%eax
     a74:	50                   	push   %eax
     a75:	6a 35                	push   $0x35
     a77:	e8 97 2b 00 00       	call   3613 <v86_handleinterrupt>
     a7c:	83 c4 08             	add    $0x8,%esp
     a7f:	5d                   	pop    %ebp
     a80:	5f                   	pop    %edi
     a81:	5e                   	pop    %esi
     a82:	5a                   	pop    %edx
     a83:	59                   	pop    %ecx
     a84:	5b                   	pop    %ebx
     a85:	58                   	pop    %eax
     a86:	5c                   	pop    %esp
     a87:	cf                   	iret   

0000000000000a88 <__runtime_v86_idtstub54>:
     a88:	54                   	push   %esp
     a89:	50                   	push   %eax
     a8a:	53                   	push   %ebx
     a8b:	51                   	push   %ecx
     a8c:	52                   	push   %edx
     a8d:	56                   	push   %esi
     a8e:	57                   	push   %edi
     a8f:	55                   	push   %ebp
     a90:	66 b8 1c 00          	mov    $0x1c,%ax
     a94:	8e d8                	mov    %eax,%ds
     a96:	89 e0                	mov    %esp,%eax
     a98:	50                   	push   %eax
     a99:	6a 36                	push   $0x36
     a9b:	e8 73 2b 00 00       	call   3613 <v86_handleinterrupt>
     aa0:	83 c4 08             	add    $0x8,%esp
     aa3:	5d                   	pop    %ebp
     aa4:	5f                   	pop    %edi
     aa5:	5e                   	pop    %esi
     aa6:	5a                   	pop    %edx
     aa7:	59                   	pop    %ecx
     aa8:	5b                   	pop    %ebx
     aa9:	58                   	pop    %eax
     aaa:	5c                   	pop    %esp
     aab:	cf                   	iret   

0000000000000aac <__runtime_v86_idtstub55>:
     aac:	54                   	push   %esp
     aad:	50                   	push   %eax
     aae:	53                   	push   %ebx
     aaf:	51                   	push   %ecx
     ab0:	52                   	push   %edx
     ab1:	56                   	push   %esi
     ab2:	57                   	push   %edi
     ab3:	55                   	push   %ebp
     ab4:	66 b8 1c 00          	mov    $0x1c,%ax
     ab8:	8e d8                	mov    %eax,%ds
     aba:	89 e0                	mov    %esp,%eax
     abc:	50                   	push   %eax
     abd:	6a 37                	push   $0x37
     abf:	e8 4f 2b 00 00       	call   3613 <v86_handleinterrupt>
     ac4:	83 c4 08             	add    $0x8,%esp
     ac7:	5d                   	pop    %ebp
     ac8:	5f                   	pop    %edi
     ac9:	5e                   	pop    %esi
     aca:	5a                   	pop    %edx
     acb:	59                   	pop    %ecx
     acc:	5b                   	pop    %ebx
     acd:	58                   	pop    %eax
     ace:	5c                   	pop    %esp
     acf:	cf                   	iret   

0000000000000ad0 <__runtime_v86_idtstub56>:
     ad0:	54                   	push   %esp
     ad1:	50                   	push   %eax
     ad2:	53                   	push   %ebx
     ad3:	51                   	push   %ecx
     ad4:	52                   	push   %edx
     ad5:	56                   	push   %esi
     ad6:	57                   	push   %edi
     ad7:	55                   	push   %ebp
     ad8:	66 b8 1c 00          	mov    $0x1c,%ax
     adc:	8e d8                	mov    %eax,%ds
     ade:	89 e0                	mov    %esp,%eax
     ae0:	50                   	push   %eax
     ae1:	6a 38                	push   $0x38
     ae3:	e8 2b 2b 00 00       	call   3613 <v86_handleinterrupt>
     ae8:	83 c4 08             	add    $0x8,%esp
     aeb:	5d                   	pop    %ebp
     aec:	5f                   	pop    %edi
     aed:	5e                   	pop    %esi
     aee:	5a                   	pop    %edx
     aef:	59                   	pop    %ecx
     af0:	5b                   	pop    %ebx
     af1:	58                   	pop    %eax
     af2:	5c                   	pop    %esp
     af3:	cf                   	iret   

0000000000000af4 <__runtime_v86_idtstub57>:
     af4:	54                   	push   %esp
     af5:	50                   	push   %eax
     af6:	53                   	push   %ebx
     af7:	51                   	push   %ecx
     af8:	52                   	push   %edx
     af9:	56                   	push   %esi
     afa:	57                   	push   %edi
     afb:	55                   	push   %ebp
     afc:	66 b8 1c 00          	mov    $0x1c,%ax
     b00:	8e d8                	mov    %eax,%ds
     b02:	89 e0                	mov    %esp,%eax
     b04:	50                   	push   %eax
     b05:	6a 39                	push   $0x39
     b07:	e8 07 2b 00 00       	call   3613 <v86_handleinterrupt>
     b0c:	83 c4 08             	add    $0x8,%esp
     b0f:	5d                   	pop    %ebp
     b10:	5f                   	pop    %edi
     b11:	5e                   	pop    %esi
     b12:	5a                   	pop    %edx
     b13:	59                   	pop    %ecx
     b14:	5b                   	pop    %ebx
     b15:	58                   	pop    %eax
     b16:	5c                   	pop    %esp
     b17:	cf                   	iret   

0000000000000b18 <__runtime_v86_idtstub58>:
     b18:	54                   	push   %esp
     b19:	50                   	push   %eax
     b1a:	53                   	push   %ebx
     b1b:	51                   	push   %ecx
     b1c:	52                   	push   %edx
     b1d:	56                   	push   %esi
     b1e:	57                   	push   %edi
     b1f:	55                   	push   %ebp
     b20:	66 b8 1c 00          	mov    $0x1c,%ax
     b24:	8e d8                	mov    %eax,%ds
     b26:	89 e0                	mov    %esp,%eax
     b28:	50                   	push   %eax
     b29:	6a 3a                	push   $0x3a
     b2b:	e8 e3 2a 00 00       	call   3613 <v86_handleinterrupt>
     b30:	83 c4 08             	add    $0x8,%esp
     b33:	5d                   	pop    %ebp
     b34:	5f                   	pop    %edi
     b35:	5e                   	pop    %esi
     b36:	5a                   	pop    %edx
     b37:	59                   	pop    %ecx
     b38:	5b                   	pop    %ebx
     b39:	58                   	pop    %eax
     b3a:	5c                   	pop    %esp
     b3b:	cf                   	iret   

0000000000000b3c <__runtime_v86_idtstub59>:
     b3c:	54                   	push   %esp
     b3d:	50                   	push   %eax
     b3e:	53                   	push   %ebx
     b3f:	51                   	push   %ecx
     b40:	52                   	push   %edx
     b41:	56                   	push   %esi
     b42:	57                   	push   %edi
     b43:	55                   	push   %ebp
     b44:	66 b8 1c 00          	mov    $0x1c,%ax
     b48:	8e d8                	mov    %eax,%ds
     b4a:	89 e0                	mov    %esp,%eax
     b4c:	50                   	push   %eax
     b4d:	6a 3b                	push   $0x3b
     b4f:	e8 bf 2a 00 00       	call   3613 <v86_handleinterrupt>
     b54:	83 c4 08             	add    $0x8,%esp
     b57:	5d                   	pop    %ebp
     b58:	5f                   	pop    %edi
     b59:	5e                   	pop    %esi
     b5a:	5a                   	pop    %edx
     b5b:	59                   	pop    %ecx
     b5c:	5b                   	pop    %ebx
     b5d:	58                   	pop    %eax
     b5e:	5c                   	pop    %esp
     b5f:	cf                   	iret   

0000000000000b60 <__runtime_v86_idtstub60>:
     b60:	54                   	push   %esp
     b61:	50                   	push   %eax
     b62:	53                   	push   %ebx
     b63:	51                   	push   %ecx
     b64:	52                   	push   %edx
     b65:	56                   	push   %esi
     b66:	57                   	push   %edi
     b67:	55                   	push   %ebp
     b68:	66 b8 1c 00          	mov    $0x1c,%ax
     b6c:	8e d8                	mov    %eax,%ds
     b6e:	89 e0                	mov    %esp,%eax
     b70:	50                   	push   %eax
     b71:	6a 3c                	push   $0x3c
     b73:	e8 9b 2a 00 00       	call   3613 <v86_handleinterrupt>
     b78:	83 c4 08             	add    $0x8,%esp
     b7b:	5d                   	pop    %ebp
     b7c:	5f                   	pop    %edi
     b7d:	5e                   	pop    %esi
     b7e:	5a                   	pop    %edx
     b7f:	59                   	pop    %ecx
     b80:	5b                   	pop    %ebx
     b81:	58                   	pop    %eax
     b82:	5c                   	pop    %esp
     b83:	cf                   	iret   

0000000000000b84 <__runtime_v86_idtstub61>:
     b84:	54                   	push   %esp
     b85:	50                   	push   %eax
     b86:	53                   	push   %ebx
     b87:	51                   	push   %ecx
     b88:	52                   	push   %edx
     b89:	56                   	push   %esi
     b8a:	57                   	push   %edi
     b8b:	55                   	push   %ebp
     b8c:	66 b8 1c 00          	mov    $0x1c,%ax
     b90:	8e d8                	mov    %eax,%ds
     b92:	89 e0                	mov    %esp,%eax
     b94:	50                   	push   %eax
     b95:	6a 3d                	push   $0x3d
     b97:	e8 77 2a 00 00       	call   3613 <v86_handleinterrupt>
     b9c:	83 c4 08             	add    $0x8,%esp
     b9f:	5d                   	pop    %ebp
     ba0:	5f                   	pop    %edi
     ba1:	5e                   	pop    %esi
     ba2:	5a                   	pop    %edx
     ba3:	59                   	pop    %ecx
     ba4:	5b                   	pop    %ebx
     ba5:	58                   	pop    %eax
     ba6:	5c                   	pop    %esp
     ba7:	cf                   	iret   

0000000000000ba8 <__runtime_v86_idtstub62>:
     ba8:	54                   	push   %esp
     ba9:	50                   	push   %eax
     baa:	53                   	push   %ebx
     bab:	51                   	push   %ecx
     bac:	52                   	push   %edx
     bad:	56                   	push   %esi
     bae:	57                   	push   %edi
     baf:	55                   	push   %ebp
     bb0:	66 b8 1c 00          	mov    $0x1c,%ax
     bb4:	8e d8                	mov    %eax,%ds
     bb6:	89 e0                	mov    %esp,%eax
     bb8:	50                   	push   %eax
     bb9:	6a 3e                	push   $0x3e
     bbb:	e8 53 2a 00 00       	call   3613 <v86_handleinterrupt>
     bc0:	83 c4 08             	add    $0x8,%esp
     bc3:	5d                   	pop    %ebp
     bc4:	5f                   	pop    %edi
     bc5:	5e                   	pop    %esi
     bc6:	5a                   	pop    %edx
     bc7:	59                   	pop    %ecx
     bc8:	5b                   	pop    %ebx
     bc9:	58                   	pop    %eax
     bca:	5c                   	pop    %esp
     bcb:	cf                   	iret   

0000000000000bcc <__runtime_v86_idtstub63>:
     bcc:	54                   	push   %esp
     bcd:	50                   	push   %eax
     bce:	53                   	push   %ebx
     bcf:	51                   	push   %ecx
     bd0:	52                   	push   %edx
     bd1:	56                   	push   %esi
     bd2:	57                   	push   %edi
     bd3:	55                   	push   %ebp
     bd4:	66 b8 1c 00          	mov    $0x1c,%ax
     bd8:	8e d8                	mov    %eax,%ds
     bda:	89 e0                	mov    %esp,%eax
     bdc:	50                   	push   %eax
     bdd:	6a 3f                	push   $0x3f
     bdf:	e8 2f 2a 00 00       	call   3613 <v86_handleinterrupt>
     be4:	83 c4 08             	add    $0x8,%esp
     be7:	5d                   	pop    %ebp
     be8:	5f                   	pop    %edi
     be9:	5e                   	pop    %esi
     bea:	5a                   	pop    %edx
     beb:	59                   	pop    %ecx
     bec:	5b                   	pop    %ebx
     bed:	58                   	pop    %eax
     bee:	5c                   	pop    %esp
     bef:	cf                   	iret   

0000000000000bf0 <__runtime_v86_idtstub64>:
     bf0:	54                   	push   %esp
     bf1:	50                   	push   %eax
     bf2:	53                   	push   %ebx
     bf3:	51                   	push   %ecx
     bf4:	52                   	push   %edx
     bf5:	56                   	push   %esi
     bf6:	57                   	push   %edi
     bf7:	55                   	push   %ebp
     bf8:	66 b8 1c 00          	mov    $0x1c,%ax
     bfc:	8e d8                	mov    %eax,%ds
     bfe:	89 e0                	mov    %esp,%eax
     c00:	50                   	push   %eax
     c01:	6a 40                	push   $0x40
     c03:	e8 0b 2a 00 00       	call   3613 <v86_handleinterrupt>
     c08:	83 c4 08             	add    $0x8,%esp
     c0b:	5d                   	pop    %ebp
     c0c:	5f                   	pop    %edi
     c0d:	5e                   	pop    %esi
     c0e:	5a                   	pop    %edx
     c0f:	59                   	pop    %ecx
     c10:	5b                   	pop    %ebx
     c11:	58                   	pop    %eax
     c12:	5c                   	pop    %esp
     c13:	cf                   	iret   

0000000000000c14 <__runtime_v86_idtstub65>:
     c14:	54                   	push   %esp
     c15:	50                   	push   %eax
     c16:	53                   	push   %ebx
     c17:	51                   	push   %ecx
     c18:	52                   	push   %edx
     c19:	56                   	push   %esi
     c1a:	57                   	push   %edi
     c1b:	55                   	push   %ebp
     c1c:	66 b8 1c 00          	mov    $0x1c,%ax
     c20:	8e d8                	mov    %eax,%ds
     c22:	89 e0                	mov    %esp,%eax
     c24:	50                   	push   %eax
     c25:	6a 41                	push   $0x41
     c27:	e8 e7 29 00 00       	call   3613 <v86_handleinterrupt>
     c2c:	83 c4 08             	add    $0x8,%esp
     c2f:	5d                   	pop    %ebp
     c30:	5f                   	pop    %edi
     c31:	5e                   	pop    %esi
     c32:	5a                   	pop    %edx
     c33:	59                   	pop    %ecx
     c34:	5b                   	pop    %ebx
     c35:	58                   	pop    %eax
     c36:	5c                   	pop    %esp
     c37:	cf                   	iret   

0000000000000c38 <__runtime_v86_idtstub66>:
     c38:	54                   	push   %esp
     c39:	50                   	push   %eax
     c3a:	53                   	push   %ebx
     c3b:	51                   	push   %ecx
     c3c:	52                   	push   %edx
     c3d:	56                   	push   %esi
     c3e:	57                   	push   %edi
     c3f:	55                   	push   %ebp
     c40:	66 b8 1c 00          	mov    $0x1c,%ax
     c44:	8e d8                	mov    %eax,%ds
     c46:	89 e0                	mov    %esp,%eax
     c48:	50                   	push   %eax
     c49:	6a 42                	push   $0x42
     c4b:	e8 c3 29 00 00       	call   3613 <v86_handleinterrupt>
     c50:	83 c4 08             	add    $0x8,%esp
     c53:	5d                   	pop    %ebp
     c54:	5f                   	pop    %edi
     c55:	5e                   	pop    %esi
     c56:	5a                   	pop    %edx
     c57:	59                   	pop    %ecx
     c58:	5b                   	pop    %ebx
     c59:	58                   	pop    %eax
     c5a:	5c                   	pop    %esp
     c5b:	cf                   	iret   

0000000000000c5c <__runtime_v86_idtstub67>:
     c5c:	54                   	push   %esp
     c5d:	50                   	push   %eax
     c5e:	53                   	push   %ebx
     c5f:	51                   	push   %ecx
     c60:	52                   	push   %edx
     c61:	56                   	push   %esi
     c62:	57                   	push   %edi
     c63:	55                   	push   %ebp
     c64:	66 b8 1c 00          	mov    $0x1c,%ax
     c68:	8e d8                	mov    %eax,%ds
     c6a:	89 e0                	mov    %esp,%eax
     c6c:	50                   	push   %eax
     c6d:	6a 43                	push   $0x43
     c6f:	e8 9f 29 00 00       	call   3613 <v86_handleinterrupt>
     c74:	83 c4 08             	add    $0x8,%esp
     c77:	5d                   	pop    %ebp
     c78:	5f                   	pop    %edi
     c79:	5e                   	pop    %esi
     c7a:	5a                   	pop    %edx
     c7b:	59                   	pop    %ecx
     c7c:	5b                   	pop    %ebx
     c7d:	58                   	pop    %eax
     c7e:	5c                   	pop    %esp
     c7f:	cf                   	iret   

0000000000000c80 <__runtime_v86_idtstub68>:
     c80:	54                   	push   %esp
     c81:	50                   	push   %eax
     c82:	53                   	push   %ebx
     c83:	51                   	push   %ecx
     c84:	52                   	push   %edx
     c85:	56                   	push   %esi
     c86:	57                   	push   %edi
     c87:	55                   	push   %ebp
     c88:	66 b8 1c 00          	mov    $0x1c,%ax
     c8c:	8e d8                	mov    %eax,%ds
     c8e:	89 e0                	mov    %esp,%eax
     c90:	50                   	push   %eax
     c91:	6a 44                	push   $0x44
     c93:	e8 7b 29 00 00       	call   3613 <v86_handleinterrupt>
     c98:	83 c4 08             	add    $0x8,%esp
     c9b:	5d                   	pop    %ebp
     c9c:	5f                   	pop    %edi
     c9d:	5e                   	pop    %esi
     c9e:	5a                   	pop    %edx
     c9f:	59                   	pop    %ecx
     ca0:	5b                   	pop    %ebx
     ca1:	58                   	pop    %eax
     ca2:	5c                   	pop    %esp
     ca3:	cf                   	iret   

0000000000000ca4 <__runtime_v86_idtstub69>:
     ca4:	54                   	push   %esp
     ca5:	50                   	push   %eax
     ca6:	53                   	push   %ebx
     ca7:	51                   	push   %ecx
     ca8:	52                   	push   %edx
     ca9:	56                   	push   %esi
     caa:	57                   	push   %edi
     cab:	55                   	push   %ebp
     cac:	66 b8 1c 00          	mov    $0x1c,%ax
     cb0:	8e d8                	mov    %eax,%ds
     cb2:	89 e0                	mov    %esp,%eax
     cb4:	50                   	push   %eax
     cb5:	6a 45                	push   $0x45
     cb7:	e8 57 29 00 00       	call   3613 <v86_handleinterrupt>
     cbc:	83 c4 08             	add    $0x8,%esp
     cbf:	5d                   	pop    %ebp
     cc0:	5f                   	pop    %edi
     cc1:	5e                   	pop    %esi
     cc2:	5a                   	pop    %edx
     cc3:	59                   	pop    %ecx
     cc4:	5b                   	pop    %ebx
     cc5:	58                   	pop    %eax
     cc6:	5c                   	pop    %esp
     cc7:	cf                   	iret   

0000000000000cc8 <__runtime_v86_idtstub70>:
     cc8:	54                   	push   %esp
     cc9:	50                   	push   %eax
     cca:	53                   	push   %ebx
     ccb:	51                   	push   %ecx
     ccc:	52                   	push   %edx
     ccd:	56                   	push   %esi
     cce:	57                   	push   %edi
     ccf:	55                   	push   %ebp
     cd0:	66 b8 1c 00          	mov    $0x1c,%ax
     cd4:	8e d8                	mov    %eax,%ds
     cd6:	89 e0                	mov    %esp,%eax
     cd8:	50                   	push   %eax
     cd9:	6a 46                	push   $0x46
     cdb:	e8 33 29 00 00       	call   3613 <v86_handleinterrupt>
     ce0:	83 c4 08             	add    $0x8,%esp
     ce3:	5d                   	pop    %ebp
     ce4:	5f                   	pop    %edi
     ce5:	5e                   	pop    %esi
     ce6:	5a                   	pop    %edx
     ce7:	59                   	pop    %ecx
     ce8:	5b                   	pop    %ebx
     ce9:	58                   	pop    %eax
     cea:	5c                   	pop    %esp
     ceb:	cf                   	iret   

0000000000000cec <__runtime_v86_idtstub71>:
     cec:	54                   	push   %esp
     ced:	50                   	push   %eax
     cee:	53                   	push   %ebx
     cef:	51                   	push   %ecx
     cf0:	52                   	push   %edx
     cf1:	56                   	push   %esi
     cf2:	57                   	push   %edi
     cf3:	55                   	push   %ebp
     cf4:	66 b8 1c 00          	mov    $0x1c,%ax
     cf8:	8e d8                	mov    %eax,%ds
     cfa:	89 e0                	mov    %esp,%eax
     cfc:	50                   	push   %eax
     cfd:	6a 47                	push   $0x47
     cff:	e8 0f 29 00 00       	call   3613 <v86_handleinterrupt>
     d04:	83 c4 08             	add    $0x8,%esp
     d07:	5d                   	pop    %ebp
     d08:	5f                   	pop    %edi
     d09:	5e                   	pop    %esi
     d0a:	5a                   	pop    %edx
     d0b:	59                   	pop    %ecx
     d0c:	5b                   	pop    %ebx
     d0d:	58                   	pop    %eax
     d0e:	5c                   	pop    %esp
     d0f:	cf                   	iret   

0000000000000d10 <__runtime_v86_idtstub72>:
     d10:	54                   	push   %esp
     d11:	50                   	push   %eax
     d12:	53                   	push   %ebx
     d13:	51                   	push   %ecx
     d14:	52                   	push   %edx
     d15:	56                   	push   %esi
     d16:	57                   	push   %edi
     d17:	55                   	push   %ebp
     d18:	66 b8 1c 00          	mov    $0x1c,%ax
     d1c:	8e d8                	mov    %eax,%ds
     d1e:	89 e0                	mov    %esp,%eax
     d20:	50                   	push   %eax
     d21:	6a 48                	push   $0x48
     d23:	e8 eb 28 00 00       	call   3613 <v86_handleinterrupt>
     d28:	83 c4 08             	add    $0x8,%esp
     d2b:	5d                   	pop    %ebp
     d2c:	5f                   	pop    %edi
     d2d:	5e                   	pop    %esi
     d2e:	5a                   	pop    %edx
     d2f:	59                   	pop    %ecx
     d30:	5b                   	pop    %ebx
     d31:	58                   	pop    %eax
     d32:	5c                   	pop    %esp
     d33:	cf                   	iret   

0000000000000d34 <__runtime_v86_idtstub73>:
     d34:	54                   	push   %esp
     d35:	50                   	push   %eax
     d36:	53                   	push   %ebx
     d37:	51                   	push   %ecx
     d38:	52                   	push   %edx
     d39:	56                   	push   %esi
     d3a:	57                   	push   %edi
     d3b:	55                   	push   %ebp
     d3c:	66 b8 1c 00          	mov    $0x1c,%ax
     d40:	8e d8                	mov    %eax,%ds
     d42:	89 e0                	mov    %esp,%eax
     d44:	50                   	push   %eax
     d45:	6a 49                	push   $0x49
     d47:	e8 c7 28 00 00       	call   3613 <v86_handleinterrupt>
     d4c:	83 c4 08             	add    $0x8,%esp
     d4f:	5d                   	pop    %ebp
     d50:	5f                   	pop    %edi
     d51:	5e                   	pop    %esi
     d52:	5a                   	pop    %edx
     d53:	59                   	pop    %ecx
     d54:	5b                   	pop    %ebx
     d55:	58                   	pop    %eax
     d56:	5c                   	pop    %esp
     d57:	cf                   	iret   

0000000000000d58 <__runtime_v86_idtstub74>:
     d58:	54                   	push   %esp
     d59:	50                   	push   %eax
     d5a:	53                   	push   %ebx
     d5b:	51                   	push   %ecx
     d5c:	52                   	push   %edx
     d5d:	56                   	push   %esi
     d5e:	57                   	push   %edi
     d5f:	55                   	push   %ebp
     d60:	66 b8 1c 00          	mov    $0x1c,%ax
     d64:	8e d8                	mov    %eax,%ds
     d66:	89 e0                	mov    %esp,%eax
     d68:	50                   	push   %eax
     d69:	6a 4a                	push   $0x4a
     d6b:	e8 a3 28 00 00       	call   3613 <v86_handleinterrupt>
     d70:	83 c4 08             	add    $0x8,%esp
     d73:	5d                   	pop    %ebp
     d74:	5f                   	pop    %edi
     d75:	5e                   	pop    %esi
     d76:	5a                   	pop    %edx
     d77:	59                   	pop    %ecx
     d78:	5b                   	pop    %ebx
     d79:	58                   	pop    %eax
     d7a:	5c                   	pop    %esp
     d7b:	cf                   	iret   

0000000000000d7c <__runtime_v86_idtstub75>:
     d7c:	54                   	push   %esp
     d7d:	50                   	push   %eax
     d7e:	53                   	push   %ebx
     d7f:	51                   	push   %ecx
     d80:	52                   	push   %edx
     d81:	56                   	push   %esi
     d82:	57                   	push   %edi
     d83:	55                   	push   %ebp
     d84:	66 b8 1c 00          	mov    $0x1c,%ax
     d88:	8e d8                	mov    %eax,%ds
     d8a:	89 e0                	mov    %esp,%eax
     d8c:	50                   	push   %eax
     d8d:	6a 4b                	push   $0x4b
     d8f:	e8 7f 28 00 00       	call   3613 <v86_handleinterrupt>
     d94:	83 c4 08             	add    $0x8,%esp
     d97:	5d                   	pop    %ebp
     d98:	5f                   	pop    %edi
     d99:	5e                   	pop    %esi
     d9a:	5a                   	pop    %edx
     d9b:	59                   	pop    %ecx
     d9c:	5b                   	pop    %ebx
     d9d:	58                   	pop    %eax
     d9e:	5c                   	pop    %esp
     d9f:	cf                   	iret   

0000000000000da0 <__runtime_v86_idtstub76>:
     da0:	54                   	push   %esp
     da1:	50                   	push   %eax
     da2:	53                   	push   %ebx
     da3:	51                   	push   %ecx
     da4:	52                   	push   %edx
     da5:	56                   	push   %esi
     da6:	57                   	push   %edi
     da7:	55                   	push   %ebp
     da8:	66 b8 1c 00          	mov    $0x1c,%ax
     dac:	8e d8                	mov    %eax,%ds
     dae:	89 e0                	mov    %esp,%eax
     db0:	50                   	push   %eax
     db1:	6a 4c                	push   $0x4c
     db3:	e8 5b 28 00 00       	call   3613 <v86_handleinterrupt>
     db8:	83 c4 08             	add    $0x8,%esp
     dbb:	5d                   	pop    %ebp
     dbc:	5f                   	pop    %edi
     dbd:	5e                   	pop    %esi
     dbe:	5a                   	pop    %edx
     dbf:	59                   	pop    %ecx
     dc0:	5b                   	pop    %ebx
     dc1:	58                   	pop    %eax
     dc2:	5c                   	pop    %esp
     dc3:	cf                   	iret   

0000000000000dc4 <__runtime_v86_idtstub77>:
     dc4:	54                   	push   %esp
     dc5:	50                   	push   %eax
     dc6:	53                   	push   %ebx
     dc7:	51                   	push   %ecx
     dc8:	52                   	push   %edx
     dc9:	56                   	push   %esi
     dca:	57                   	push   %edi
     dcb:	55                   	push   %ebp
     dcc:	66 b8 1c 00          	mov    $0x1c,%ax
     dd0:	8e d8                	mov    %eax,%ds
     dd2:	89 e0                	mov    %esp,%eax
     dd4:	50                   	push   %eax
     dd5:	6a 4d                	push   $0x4d
     dd7:	e8 37 28 00 00       	call   3613 <v86_handleinterrupt>
     ddc:	83 c4 08             	add    $0x8,%esp
     ddf:	5d                   	pop    %ebp
     de0:	5f                   	pop    %edi
     de1:	5e                   	pop    %esi
     de2:	5a                   	pop    %edx
     de3:	59                   	pop    %ecx
     de4:	5b                   	pop    %ebx
     de5:	58                   	pop    %eax
     de6:	5c                   	pop    %esp
     de7:	cf                   	iret   

0000000000000de8 <__runtime_v86_idtstub78>:
     de8:	54                   	push   %esp
     de9:	50                   	push   %eax
     dea:	53                   	push   %ebx
     deb:	51                   	push   %ecx
     dec:	52                   	push   %edx
     ded:	56                   	push   %esi
     dee:	57                   	push   %edi
     def:	55                   	push   %ebp
     df0:	66 b8 1c 00          	mov    $0x1c,%ax
     df4:	8e d8                	mov    %eax,%ds
     df6:	89 e0                	mov    %esp,%eax
     df8:	50                   	push   %eax
     df9:	6a 4e                	push   $0x4e
     dfb:	e8 13 28 00 00       	call   3613 <v86_handleinterrupt>
     e00:	83 c4 08             	add    $0x8,%esp
     e03:	5d                   	pop    %ebp
     e04:	5f                   	pop    %edi
     e05:	5e                   	pop    %esi
     e06:	5a                   	pop    %edx
     e07:	59                   	pop    %ecx
     e08:	5b                   	pop    %ebx
     e09:	58                   	pop    %eax
     e0a:	5c                   	pop    %esp
     e0b:	cf                   	iret   

0000000000000e0c <__runtime_v86_idtstub79>:
     e0c:	54                   	push   %esp
     e0d:	50                   	push   %eax
     e0e:	53                   	push   %ebx
     e0f:	51                   	push   %ecx
     e10:	52                   	push   %edx
     e11:	56                   	push   %esi
     e12:	57                   	push   %edi
     e13:	55                   	push   %ebp
     e14:	66 b8 1c 00          	mov    $0x1c,%ax
     e18:	8e d8                	mov    %eax,%ds
     e1a:	89 e0                	mov    %esp,%eax
     e1c:	50                   	push   %eax
     e1d:	6a 4f                	push   $0x4f
     e1f:	e8 ef 27 00 00       	call   3613 <v86_handleinterrupt>
     e24:	83 c4 08             	add    $0x8,%esp
     e27:	5d                   	pop    %ebp
     e28:	5f                   	pop    %edi
     e29:	5e                   	pop    %esi
     e2a:	5a                   	pop    %edx
     e2b:	59                   	pop    %ecx
     e2c:	5b                   	pop    %ebx
     e2d:	58                   	pop    %eax
     e2e:	5c                   	pop    %esp
     e2f:	cf                   	iret   

0000000000000e30 <__runtime_v86_idtstub80>:
     e30:	54                   	push   %esp
     e31:	50                   	push   %eax
     e32:	53                   	push   %ebx
     e33:	51                   	push   %ecx
     e34:	52                   	push   %edx
     e35:	56                   	push   %esi
     e36:	57                   	push   %edi
     e37:	55                   	push   %ebp
     e38:	66 b8 1c 00          	mov    $0x1c,%ax
     e3c:	8e d8                	mov    %eax,%ds
     e3e:	89 e0                	mov    %esp,%eax
     e40:	50                   	push   %eax
     e41:	6a 50                	push   $0x50
     e43:	e8 cb 27 00 00       	call   3613 <v86_handleinterrupt>
     e48:	83 c4 08             	add    $0x8,%esp
     e4b:	5d                   	pop    %ebp
     e4c:	5f                   	pop    %edi
     e4d:	5e                   	pop    %esi
     e4e:	5a                   	pop    %edx
     e4f:	59                   	pop    %ecx
     e50:	5b                   	pop    %ebx
     e51:	58                   	pop    %eax
     e52:	5c                   	pop    %esp
     e53:	cf                   	iret   

0000000000000e54 <__runtime_v86_idtstub81>:
     e54:	54                   	push   %esp
     e55:	50                   	push   %eax
     e56:	53                   	push   %ebx
     e57:	51                   	push   %ecx
     e58:	52                   	push   %edx
     e59:	56                   	push   %esi
     e5a:	57                   	push   %edi
     e5b:	55                   	push   %ebp
     e5c:	66 b8 1c 00          	mov    $0x1c,%ax
     e60:	8e d8                	mov    %eax,%ds
     e62:	89 e0                	mov    %esp,%eax
     e64:	50                   	push   %eax
     e65:	6a 51                	push   $0x51
     e67:	e8 a7 27 00 00       	call   3613 <v86_handleinterrupt>
     e6c:	83 c4 08             	add    $0x8,%esp
     e6f:	5d                   	pop    %ebp
     e70:	5f                   	pop    %edi
     e71:	5e                   	pop    %esi
     e72:	5a                   	pop    %edx
     e73:	59                   	pop    %ecx
     e74:	5b                   	pop    %ebx
     e75:	58                   	pop    %eax
     e76:	5c                   	pop    %esp
     e77:	cf                   	iret   

0000000000000e78 <__runtime_v86_idtstub82>:
     e78:	54                   	push   %esp
     e79:	50                   	push   %eax
     e7a:	53                   	push   %ebx
     e7b:	51                   	push   %ecx
     e7c:	52                   	push   %edx
     e7d:	56                   	push   %esi
     e7e:	57                   	push   %edi
     e7f:	55                   	push   %ebp
     e80:	66 b8 1c 00          	mov    $0x1c,%ax
     e84:	8e d8                	mov    %eax,%ds
     e86:	89 e0                	mov    %esp,%eax
     e88:	50                   	push   %eax
     e89:	6a 52                	push   $0x52
     e8b:	e8 83 27 00 00       	call   3613 <v86_handleinterrupt>
     e90:	83 c4 08             	add    $0x8,%esp
     e93:	5d                   	pop    %ebp
     e94:	5f                   	pop    %edi
     e95:	5e                   	pop    %esi
     e96:	5a                   	pop    %edx
     e97:	59                   	pop    %ecx
     e98:	5b                   	pop    %ebx
     e99:	58                   	pop    %eax
     e9a:	5c                   	pop    %esp
     e9b:	cf                   	iret   

0000000000000e9c <__runtime_v86_idtstub83>:
     e9c:	54                   	push   %esp
     e9d:	50                   	push   %eax
     e9e:	53                   	push   %ebx
     e9f:	51                   	push   %ecx
     ea0:	52                   	push   %edx
     ea1:	56                   	push   %esi
     ea2:	57                   	push   %edi
     ea3:	55                   	push   %ebp
     ea4:	66 b8 1c 00          	mov    $0x1c,%ax
     ea8:	8e d8                	mov    %eax,%ds
     eaa:	89 e0                	mov    %esp,%eax
     eac:	50                   	push   %eax
     ead:	6a 53                	push   $0x53
     eaf:	e8 5f 27 00 00       	call   3613 <v86_handleinterrupt>
     eb4:	83 c4 08             	add    $0x8,%esp
     eb7:	5d                   	pop    %ebp
     eb8:	5f                   	pop    %edi
     eb9:	5e                   	pop    %esi
     eba:	5a                   	pop    %edx
     ebb:	59                   	pop    %ecx
     ebc:	5b                   	pop    %ebx
     ebd:	58                   	pop    %eax
     ebe:	5c                   	pop    %esp
     ebf:	cf                   	iret   

0000000000000ec0 <__runtime_v86_idtstub84>:
     ec0:	54                   	push   %esp
     ec1:	50                   	push   %eax
     ec2:	53                   	push   %ebx
     ec3:	51                   	push   %ecx
     ec4:	52                   	push   %edx
     ec5:	56                   	push   %esi
     ec6:	57                   	push   %edi
     ec7:	55                   	push   %ebp
     ec8:	66 b8 1c 00          	mov    $0x1c,%ax
     ecc:	8e d8                	mov    %eax,%ds
     ece:	89 e0                	mov    %esp,%eax
     ed0:	50                   	push   %eax
     ed1:	6a 54                	push   $0x54
     ed3:	e8 3b 27 00 00       	call   3613 <v86_handleinterrupt>
     ed8:	83 c4 08             	add    $0x8,%esp
     edb:	5d                   	pop    %ebp
     edc:	5f                   	pop    %edi
     edd:	5e                   	pop    %esi
     ede:	5a                   	pop    %edx
     edf:	59                   	pop    %ecx
     ee0:	5b                   	pop    %ebx
     ee1:	58                   	pop    %eax
     ee2:	5c                   	pop    %esp
     ee3:	cf                   	iret   

0000000000000ee4 <__runtime_v86_idtstub85>:
     ee4:	54                   	push   %esp
     ee5:	50                   	push   %eax
     ee6:	53                   	push   %ebx
     ee7:	51                   	push   %ecx
     ee8:	52                   	push   %edx
     ee9:	56                   	push   %esi
     eea:	57                   	push   %edi
     eeb:	55                   	push   %ebp
     eec:	66 b8 1c 00          	mov    $0x1c,%ax
     ef0:	8e d8                	mov    %eax,%ds
     ef2:	89 e0                	mov    %esp,%eax
     ef4:	50                   	push   %eax
     ef5:	6a 55                	push   $0x55
     ef7:	e8 17 27 00 00       	call   3613 <v86_handleinterrupt>
     efc:	83 c4 08             	add    $0x8,%esp
     eff:	5d                   	pop    %ebp
     f00:	5f                   	pop    %edi
     f01:	5e                   	pop    %esi
     f02:	5a                   	pop    %edx
     f03:	59                   	pop    %ecx
     f04:	5b                   	pop    %ebx
     f05:	58                   	pop    %eax
     f06:	5c                   	pop    %esp
     f07:	cf                   	iret   

0000000000000f08 <__runtime_v86_idtstub86>:
     f08:	54                   	push   %esp
     f09:	50                   	push   %eax
     f0a:	53                   	push   %ebx
     f0b:	51                   	push   %ecx
     f0c:	52                   	push   %edx
     f0d:	56                   	push   %esi
     f0e:	57                   	push   %edi
     f0f:	55                   	push   %ebp
     f10:	66 b8 1c 00          	mov    $0x1c,%ax
     f14:	8e d8                	mov    %eax,%ds
     f16:	89 e0                	mov    %esp,%eax
     f18:	50                   	push   %eax
     f19:	6a 56                	push   $0x56
     f1b:	e8 f3 26 00 00       	call   3613 <v86_handleinterrupt>
     f20:	83 c4 08             	add    $0x8,%esp
     f23:	5d                   	pop    %ebp
     f24:	5f                   	pop    %edi
     f25:	5e                   	pop    %esi
     f26:	5a                   	pop    %edx
     f27:	59                   	pop    %ecx
     f28:	5b                   	pop    %ebx
     f29:	58                   	pop    %eax
     f2a:	5c                   	pop    %esp
     f2b:	cf                   	iret   

0000000000000f2c <__runtime_v86_idtstub87>:
     f2c:	54                   	push   %esp
     f2d:	50                   	push   %eax
     f2e:	53                   	push   %ebx
     f2f:	51                   	push   %ecx
     f30:	52                   	push   %edx
     f31:	56                   	push   %esi
     f32:	57                   	push   %edi
     f33:	55                   	push   %ebp
     f34:	66 b8 1c 00          	mov    $0x1c,%ax
     f38:	8e d8                	mov    %eax,%ds
     f3a:	89 e0                	mov    %esp,%eax
     f3c:	50                   	push   %eax
     f3d:	6a 57                	push   $0x57
     f3f:	e8 cf 26 00 00       	call   3613 <v86_handleinterrupt>
     f44:	83 c4 08             	add    $0x8,%esp
     f47:	5d                   	pop    %ebp
     f48:	5f                   	pop    %edi
     f49:	5e                   	pop    %esi
     f4a:	5a                   	pop    %edx
     f4b:	59                   	pop    %ecx
     f4c:	5b                   	pop    %ebx
     f4d:	58                   	pop    %eax
     f4e:	5c                   	pop    %esp
     f4f:	cf                   	iret   

0000000000000f50 <__runtime_v86_idtstub88>:
     f50:	54                   	push   %esp
     f51:	50                   	push   %eax
     f52:	53                   	push   %ebx
     f53:	51                   	push   %ecx
     f54:	52                   	push   %edx
     f55:	56                   	push   %esi
     f56:	57                   	push   %edi
     f57:	55                   	push   %ebp
     f58:	66 b8 1c 00          	mov    $0x1c,%ax
     f5c:	8e d8                	mov    %eax,%ds
     f5e:	89 e0                	mov    %esp,%eax
     f60:	50                   	push   %eax
     f61:	6a 58                	push   $0x58
     f63:	e8 ab 26 00 00       	call   3613 <v86_handleinterrupt>
     f68:	83 c4 08             	add    $0x8,%esp
     f6b:	5d                   	pop    %ebp
     f6c:	5f                   	pop    %edi
     f6d:	5e                   	pop    %esi
     f6e:	5a                   	pop    %edx
     f6f:	59                   	pop    %ecx
     f70:	5b                   	pop    %ebx
     f71:	58                   	pop    %eax
     f72:	5c                   	pop    %esp
     f73:	cf                   	iret   

0000000000000f74 <__runtime_v86_idtstub89>:
     f74:	54                   	push   %esp
     f75:	50                   	push   %eax
     f76:	53                   	push   %ebx
     f77:	51                   	push   %ecx
     f78:	52                   	push   %edx
     f79:	56                   	push   %esi
     f7a:	57                   	push   %edi
     f7b:	55                   	push   %ebp
     f7c:	66 b8 1c 00          	mov    $0x1c,%ax
     f80:	8e d8                	mov    %eax,%ds
     f82:	89 e0                	mov    %esp,%eax
     f84:	50                   	push   %eax
     f85:	6a 59                	push   $0x59
     f87:	e8 87 26 00 00       	call   3613 <v86_handleinterrupt>
     f8c:	83 c4 08             	add    $0x8,%esp
     f8f:	5d                   	pop    %ebp
     f90:	5f                   	pop    %edi
     f91:	5e                   	pop    %esi
     f92:	5a                   	pop    %edx
     f93:	59                   	pop    %ecx
     f94:	5b                   	pop    %ebx
     f95:	58                   	pop    %eax
     f96:	5c                   	pop    %esp
     f97:	cf                   	iret   

0000000000000f98 <__runtime_v86_idtstub90>:
     f98:	54                   	push   %esp
     f99:	50                   	push   %eax
     f9a:	53                   	push   %ebx
     f9b:	51                   	push   %ecx
     f9c:	52                   	push   %edx
     f9d:	56                   	push   %esi
     f9e:	57                   	push   %edi
     f9f:	55                   	push   %ebp
     fa0:	66 b8 1c 00          	mov    $0x1c,%ax
     fa4:	8e d8                	mov    %eax,%ds
     fa6:	89 e0                	mov    %esp,%eax
     fa8:	50                   	push   %eax
     fa9:	6a 5a                	push   $0x5a
     fab:	e8 63 26 00 00       	call   3613 <v86_handleinterrupt>
     fb0:	83 c4 08             	add    $0x8,%esp
     fb3:	5d                   	pop    %ebp
     fb4:	5f                   	pop    %edi
     fb5:	5e                   	pop    %esi
     fb6:	5a                   	pop    %edx
     fb7:	59                   	pop    %ecx
     fb8:	5b                   	pop    %ebx
     fb9:	58                   	pop    %eax
     fba:	5c                   	pop    %esp
     fbb:	cf                   	iret   

0000000000000fbc <__runtime_v86_idtstub91>:
     fbc:	54                   	push   %esp
     fbd:	50                   	push   %eax
     fbe:	53                   	push   %ebx
     fbf:	51                   	push   %ecx
     fc0:	52                   	push   %edx
     fc1:	56                   	push   %esi
     fc2:	57                   	push   %edi
     fc3:	55                   	push   %ebp
     fc4:	66 b8 1c 00          	mov    $0x1c,%ax
     fc8:	8e d8                	mov    %eax,%ds
     fca:	89 e0                	mov    %esp,%eax
     fcc:	50                   	push   %eax
     fcd:	6a 5b                	push   $0x5b
     fcf:	e8 3f 26 00 00       	call   3613 <v86_handleinterrupt>
     fd4:	83 c4 08             	add    $0x8,%esp
     fd7:	5d                   	pop    %ebp
     fd8:	5f                   	pop    %edi
     fd9:	5e                   	pop    %esi
     fda:	5a                   	pop    %edx
     fdb:	59                   	pop    %ecx
     fdc:	5b                   	pop    %ebx
     fdd:	58                   	pop    %eax
     fde:	5c                   	pop    %esp
     fdf:	cf                   	iret   

0000000000000fe0 <__runtime_v86_idtstub92>:
     fe0:	54                   	push   %esp
     fe1:	50                   	push   %eax
     fe2:	53                   	push   %ebx
     fe3:	51                   	push   %ecx
     fe4:	52                   	push   %edx
     fe5:	56                   	push   %esi
     fe6:	57                   	push   %edi
     fe7:	55                   	push   %ebp
     fe8:	66 b8 1c 00          	mov    $0x1c,%ax
     fec:	8e d8                	mov    %eax,%ds
     fee:	89 e0                	mov    %esp,%eax
     ff0:	50                   	push   %eax
     ff1:	6a 5c                	push   $0x5c
     ff3:	e8 1b 26 00 00       	call   3613 <v86_handleinterrupt>
     ff8:	83 c4 08             	add    $0x8,%esp
     ffb:	5d                   	pop    %ebp
     ffc:	5f                   	pop    %edi
     ffd:	5e                   	pop    %esi
     ffe:	5a                   	pop    %edx
     fff:	59                   	pop    %ecx
    1000:	5b                   	pop    %ebx
    1001:	58                   	pop    %eax
    1002:	5c                   	pop    %esp
    1003:	cf                   	iret   

0000000000001004 <__runtime_v86_idtstub93>:
    1004:	54                   	push   %esp
    1005:	50                   	push   %eax
    1006:	53                   	push   %ebx
    1007:	51                   	push   %ecx
    1008:	52                   	push   %edx
    1009:	56                   	push   %esi
    100a:	57                   	push   %edi
    100b:	55                   	push   %ebp
    100c:	66 b8 1c 00          	mov    $0x1c,%ax
    1010:	8e d8                	mov    %eax,%ds
    1012:	89 e0                	mov    %esp,%eax
    1014:	50                   	push   %eax
    1015:	6a 5d                	push   $0x5d
    1017:	e8 f7 25 00 00       	call   3613 <v86_handleinterrupt>
    101c:	83 c4 08             	add    $0x8,%esp
    101f:	5d                   	pop    %ebp
    1020:	5f                   	pop    %edi
    1021:	5e                   	pop    %esi
    1022:	5a                   	pop    %edx
    1023:	59                   	pop    %ecx
    1024:	5b                   	pop    %ebx
    1025:	58                   	pop    %eax
    1026:	5c                   	pop    %esp
    1027:	cf                   	iret   

0000000000001028 <__runtime_v86_idtstub94>:
    1028:	54                   	push   %esp
    1029:	50                   	push   %eax
    102a:	53                   	push   %ebx
    102b:	51                   	push   %ecx
    102c:	52                   	push   %edx
    102d:	56                   	push   %esi
    102e:	57                   	push   %edi
    102f:	55                   	push   %ebp
    1030:	66 b8 1c 00          	mov    $0x1c,%ax
    1034:	8e d8                	mov    %eax,%ds
    1036:	89 e0                	mov    %esp,%eax
    1038:	50                   	push   %eax
    1039:	6a 5e                	push   $0x5e
    103b:	e8 d3 25 00 00       	call   3613 <v86_handleinterrupt>
    1040:	83 c4 08             	add    $0x8,%esp
    1043:	5d                   	pop    %ebp
    1044:	5f                   	pop    %edi
    1045:	5e                   	pop    %esi
    1046:	5a                   	pop    %edx
    1047:	59                   	pop    %ecx
    1048:	5b                   	pop    %ebx
    1049:	58                   	pop    %eax
    104a:	5c                   	pop    %esp
    104b:	cf                   	iret   

000000000000104c <__runtime_v86_idtstub95>:
    104c:	54                   	push   %esp
    104d:	50                   	push   %eax
    104e:	53                   	push   %ebx
    104f:	51                   	push   %ecx
    1050:	52                   	push   %edx
    1051:	56                   	push   %esi
    1052:	57                   	push   %edi
    1053:	55                   	push   %ebp
    1054:	66 b8 1c 00          	mov    $0x1c,%ax
    1058:	8e d8                	mov    %eax,%ds
    105a:	89 e0                	mov    %esp,%eax
    105c:	50                   	push   %eax
    105d:	6a 5f                	push   $0x5f
    105f:	e8 af 25 00 00       	call   3613 <v86_handleinterrupt>
    1064:	83 c4 08             	add    $0x8,%esp
    1067:	5d                   	pop    %ebp
    1068:	5f                   	pop    %edi
    1069:	5e                   	pop    %esi
    106a:	5a                   	pop    %edx
    106b:	59                   	pop    %ecx
    106c:	5b                   	pop    %ebx
    106d:	58                   	pop    %eax
    106e:	5c                   	pop    %esp
    106f:	cf                   	iret   

0000000000001070 <__runtime_v86_idtstub96>:
    1070:	54                   	push   %esp
    1071:	50                   	push   %eax
    1072:	53                   	push   %ebx
    1073:	51                   	push   %ecx
    1074:	52                   	push   %edx
    1075:	56                   	push   %esi
    1076:	57                   	push   %edi
    1077:	55                   	push   %ebp
    1078:	66 b8 1c 00          	mov    $0x1c,%ax
    107c:	8e d8                	mov    %eax,%ds
    107e:	89 e0                	mov    %esp,%eax
    1080:	50                   	push   %eax
    1081:	6a 60                	push   $0x60
    1083:	e8 8b 25 00 00       	call   3613 <v86_handleinterrupt>
    1088:	83 c4 08             	add    $0x8,%esp
    108b:	5d                   	pop    %ebp
    108c:	5f                   	pop    %edi
    108d:	5e                   	pop    %esi
    108e:	5a                   	pop    %edx
    108f:	59                   	pop    %ecx
    1090:	5b                   	pop    %ebx
    1091:	58                   	pop    %eax
    1092:	5c                   	pop    %esp
    1093:	cf                   	iret   

0000000000001094 <__runtime_v86_idtstub97>:
    1094:	54                   	push   %esp
    1095:	50                   	push   %eax
    1096:	53                   	push   %ebx
    1097:	51                   	push   %ecx
    1098:	52                   	push   %edx
    1099:	56                   	push   %esi
    109a:	57                   	push   %edi
    109b:	55                   	push   %ebp
    109c:	66 b8 1c 00          	mov    $0x1c,%ax
    10a0:	8e d8                	mov    %eax,%ds
    10a2:	89 e0                	mov    %esp,%eax
    10a4:	50                   	push   %eax
    10a5:	6a 61                	push   $0x61
    10a7:	e8 67 25 00 00       	call   3613 <v86_handleinterrupt>
    10ac:	83 c4 08             	add    $0x8,%esp
    10af:	5d                   	pop    %ebp
    10b0:	5f                   	pop    %edi
    10b1:	5e                   	pop    %esi
    10b2:	5a                   	pop    %edx
    10b3:	59                   	pop    %ecx
    10b4:	5b                   	pop    %ebx
    10b5:	58                   	pop    %eax
    10b6:	5c                   	pop    %esp
    10b7:	cf                   	iret   

00000000000010b8 <__runtime_v86_idtstub98>:
    10b8:	54                   	push   %esp
    10b9:	50                   	push   %eax
    10ba:	53                   	push   %ebx
    10bb:	51                   	push   %ecx
    10bc:	52                   	push   %edx
    10bd:	56                   	push   %esi
    10be:	57                   	push   %edi
    10bf:	55                   	push   %ebp
    10c0:	66 b8 1c 00          	mov    $0x1c,%ax
    10c4:	8e d8                	mov    %eax,%ds
    10c6:	89 e0                	mov    %esp,%eax
    10c8:	50                   	push   %eax
    10c9:	6a 62                	push   $0x62
    10cb:	e8 43 25 00 00       	call   3613 <v86_handleinterrupt>
    10d0:	83 c4 08             	add    $0x8,%esp
    10d3:	5d                   	pop    %ebp
    10d4:	5f                   	pop    %edi
    10d5:	5e                   	pop    %esi
    10d6:	5a                   	pop    %edx
    10d7:	59                   	pop    %ecx
    10d8:	5b                   	pop    %ebx
    10d9:	58                   	pop    %eax
    10da:	5c                   	pop    %esp
    10db:	cf                   	iret   

00000000000010dc <__runtime_v86_idtstub99>:
    10dc:	54                   	push   %esp
    10dd:	50                   	push   %eax
    10de:	53                   	push   %ebx
    10df:	51                   	push   %ecx
    10e0:	52                   	push   %edx
    10e1:	56                   	push   %esi
    10e2:	57                   	push   %edi
    10e3:	55                   	push   %ebp
    10e4:	66 b8 1c 00          	mov    $0x1c,%ax
    10e8:	8e d8                	mov    %eax,%ds
    10ea:	89 e0                	mov    %esp,%eax
    10ec:	50                   	push   %eax
    10ed:	6a 63                	push   $0x63
    10ef:	e8 1f 25 00 00       	call   3613 <v86_handleinterrupt>
    10f4:	83 c4 08             	add    $0x8,%esp
    10f7:	5d                   	pop    %ebp
    10f8:	5f                   	pop    %edi
    10f9:	5e                   	pop    %esi
    10fa:	5a                   	pop    %edx
    10fb:	59                   	pop    %ecx
    10fc:	5b                   	pop    %ebx
    10fd:	58                   	pop    %eax
    10fe:	5c                   	pop    %esp
    10ff:	cf                   	iret   

0000000000001100 <__runtime_v86_idtstub100>:
    1100:	54                   	push   %esp
    1101:	50                   	push   %eax
    1102:	53                   	push   %ebx
    1103:	51                   	push   %ecx
    1104:	52                   	push   %edx
    1105:	56                   	push   %esi
    1106:	57                   	push   %edi
    1107:	55                   	push   %ebp
    1108:	66 b8 1c 00          	mov    $0x1c,%ax
    110c:	8e d8                	mov    %eax,%ds
    110e:	89 e0                	mov    %esp,%eax
    1110:	50                   	push   %eax
    1111:	6a 64                	push   $0x64
    1113:	e8 fb 24 00 00       	call   3613 <v86_handleinterrupt>
    1118:	83 c4 08             	add    $0x8,%esp
    111b:	5d                   	pop    %ebp
    111c:	5f                   	pop    %edi
    111d:	5e                   	pop    %esi
    111e:	5a                   	pop    %edx
    111f:	59                   	pop    %ecx
    1120:	5b                   	pop    %ebx
    1121:	58                   	pop    %eax
    1122:	5c                   	pop    %esp
    1123:	cf                   	iret   

0000000000001124 <__runtime_v86_idtstub101>:
    1124:	54                   	push   %esp
    1125:	50                   	push   %eax
    1126:	53                   	push   %ebx
    1127:	51                   	push   %ecx
    1128:	52                   	push   %edx
    1129:	56                   	push   %esi
    112a:	57                   	push   %edi
    112b:	55                   	push   %ebp
    112c:	66 b8 1c 00          	mov    $0x1c,%ax
    1130:	8e d8                	mov    %eax,%ds
    1132:	89 e0                	mov    %esp,%eax
    1134:	50                   	push   %eax
    1135:	6a 65                	push   $0x65
    1137:	e8 d7 24 00 00       	call   3613 <v86_handleinterrupt>
    113c:	83 c4 08             	add    $0x8,%esp
    113f:	5d                   	pop    %ebp
    1140:	5f                   	pop    %edi
    1141:	5e                   	pop    %esi
    1142:	5a                   	pop    %edx
    1143:	59                   	pop    %ecx
    1144:	5b                   	pop    %ebx
    1145:	58                   	pop    %eax
    1146:	5c                   	pop    %esp
    1147:	cf                   	iret   

0000000000001148 <__runtime_v86_idtstub102>:
    1148:	54                   	push   %esp
    1149:	50                   	push   %eax
    114a:	53                   	push   %ebx
    114b:	51                   	push   %ecx
    114c:	52                   	push   %edx
    114d:	56                   	push   %esi
    114e:	57                   	push   %edi
    114f:	55                   	push   %ebp
    1150:	66 b8 1c 00          	mov    $0x1c,%ax
    1154:	8e d8                	mov    %eax,%ds
    1156:	89 e0                	mov    %esp,%eax
    1158:	50                   	push   %eax
    1159:	6a 66                	push   $0x66
    115b:	e8 b3 24 00 00       	call   3613 <v86_handleinterrupt>
    1160:	83 c4 08             	add    $0x8,%esp
    1163:	5d                   	pop    %ebp
    1164:	5f                   	pop    %edi
    1165:	5e                   	pop    %esi
    1166:	5a                   	pop    %edx
    1167:	59                   	pop    %ecx
    1168:	5b                   	pop    %ebx
    1169:	58                   	pop    %eax
    116a:	5c                   	pop    %esp
    116b:	cf                   	iret   

000000000000116c <__runtime_v86_idtstub103>:
    116c:	54                   	push   %esp
    116d:	50                   	push   %eax
    116e:	53                   	push   %ebx
    116f:	51                   	push   %ecx
    1170:	52                   	push   %edx
    1171:	56                   	push   %esi
    1172:	57                   	push   %edi
    1173:	55                   	push   %ebp
    1174:	66 b8 1c 00          	mov    $0x1c,%ax
    1178:	8e d8                	mov    %eax,%ds
    117a:	89 e0                	mov    %esp,%eax
    117c:	50                   	push   %eax
    117d:	6a 67                	push   $0x67
    117f:	e8 8f 24 00 00       	call   3613 <v86_handleinterrupt>
    1184:	83 c4 08             	add    $0x8,%esp
    1187:	5d                   	pop    %ebp
    1188:	5f                   	pop    %edi
    1189:	5e                   	pop    %esi
    118a:	5a                   	pop    %edx
    118b:	59                   	pop    %ecx
    118c:	5b                   	pop    %ebx
    118d:	58                   	pop    %eax
    118e:	5c                   	pop    %esp
    118f:	cf                   	iret   

0000000000001190 <__runtime_v86_idtstub104>:
    1190:	54                   	push   %esp
    1191:	50                   	push   %eax
    1192:	53                   	push   %ebx
    1193:	51                   	push   %ecx
    1194:	52                   	push   %edx
    1195:	56                   	push   %esi
    1196:	57                   	push   %edi
    1197:	55                   	push   %ebp
    1198:	66 b8 1c 00          	mov    $0x1c,%ax
    119c:	8e d8                	mov    %eax,%ds
    119e:	89 e0                	mov    %esp,%eax
    11a0:	50                   	push   %eax
    11a1:	6a 68                	push   $0x68
    11a3:	e8 6b 24 00 00       	call   3613 <v86_handleinterrupt>
    11a8:	83 c4 08             	add    $0x8,%esp
    11ab:	5d                   	pop    %ebp
    11ac:	5f                   	pop    %edi
    11ad:	5e                   	pop    %esi
    11ae:	5a                   	pop    %edx
    11af:	59                   	pop    %ecx
    11b0:	5b                   	pop    %ebx
    11b1:	58                   	pop    %eax
    11b2:	5c                   	pop    %esp
    11b3:	cf                   	iret   

00000000000011b4 <__runtime_v86_idtstub105>:
    11b4:	54                   	push   %esp
    11b5:	50                   	push   %eax
    11b6:	53                   	push   %ebx
    11b7:	51                   	push   %ecx
    11b8:	52                   	push   %edx
    11b9:	56                   	push   %esi
    11ba:	57                   	push   %edi
    11bb:	55                   	push   %ebp
    11bc:	66 b8 1c 00          	mov    $0x1c,%ax
    11c0:	8e d8                	mov    %eax,%ds
    11c2:	89 e0                	mov    %esp,%eax
    11c4:	50                   	push   %eax
    11c5:	6a 69                	push   $0x69
    11c7:	e8 47 24 00 00       	call   3613 <v86_handleinterrupt>
    11cc:	83 c4 08             	add    $0x8,%esp
    11cf:	5d                   	pop    %ebp
    11d0:	5f                   	pop    %edi
    11d1:	5e                   	pop    %esi
    11d2:	5a                   	pop    %edx
    11d3:	59                   	pop    %ecx
    11d4:	5b                   	pop    %ebx
    11d5:	58                   	pop    %eax
    11d6:	5c                   	pop    %esp
    11d7:	cf                   	iret   

00000000000011d8 <__runtime_v86_idtstub106>:
    11d8:	54                   	push   %esp
    11d9:	50                   	push   %eax
    11da:	53                   	push   %ebx
    11db:	51                   	push   %ecx
    11dc:	52                   	push   %edx
    11dd:	56                   	push   %esi
    11de:	57                   	push   %edi
    11df:	55                   	push   %ebp
    11e0:	66 b8 1c 00          	mov    $0x1c,%ax
    11e4:	8e d8                	mov    %eax,%ds
    11e6:	89 e0                	mov    %esp,%eax
    11e8:	50                   	push   %eax
    11e9:	6a 6a                	push   $0x6a
    11eb:	e8 23 24 00 00       	call   3613 <v86_handleinterrupt>
    11f0:	83 c4 08             	add    $0x8,%esp
    11f3:	5d                   	pop    %ebp
    11f4:	5f                   	pop    %edi
    11f5:	5e                   	pop    %esi
    11f6:	5a                   	pop    %edx
    11f7:	59                   	pop    %ecx
    11f8:	5b                   	pop    %ebx
    11f9:	58                   	pop    %eax
    11fa:	5c                   	pop    %esp
    11fb:	cf                   	iret   

00000000000011fc <__runtime_v86_idtstub107>:
    11fc:	54                   	push   %esp
    11fd:	50                   	push   %eax
    11fe:	53                   	push   %ebx
    11ff:	51                   	push   %ecx
    1200:	52                   	push   %edx
    1201:	56                   	push   %esi
    1202:	57                   	push   %edi
    1203:	55                   	push   %ebp
    1204:	66 b8 1c 00          	mov    $0x1c,%ax
    1208:	8e d8                	mov    %eax,%ds
    120a:	89 e0                	mov    %esp,%eax
    120c:	50                   	push   %eax
    120d:	6a 6b                	push   $0x6b
    120f:	e8 ff 23 00 00       	call   3613 <v86_handleinterrupt>
    1214:	83 c4 08             	add    $0x8,%esp
    1217:	5d                   	pop    %ebp
    1218:	5f                   	pop    %edi
    1219:	5e                   	pop    %esi
    121a:	5a                   	pop    %edx
    121b:	59                   	pop    %ecx
    121c:	5b                   	pop    %ebx
    121d:	58                   	pop    %eax
    121e:	5c                   	pop    %esp
    121f:	cf                   	iret   

0000000000001220 <__runtime_v86_idtstub108>:
    1220:	54                   	push   %esp
    1221:	50                   	push   %eax
    1222:	53                   	push   %ebx
    1223:	51                   	push   %ecx
    1224:	52                   	push   %edx
    1225:	56                   	push   %esi
    1226:	57                   	push   %edi
    1227:	55                   	push   %ebp
    1228:	66 b8 1c 00          	mov    $0x1c,%ax
    122c:	8e d8                	mov    %eax,%ds
    122e:	89 e0                	mov    %esp,%eax
    1230:	50                   	push   %eax
    1231:	6a 6c                	push   $0x6c
    1233:	e8 db 23 00 00       	call   3613 <v86_handleinterrupt>
    1238:	83 c4 08             	add    $0x8,%esp
    123b:	5d                   	pop    %ebp
    123c:	5f                   	pop    %edi
    123d:	5e                   	pop    %esi
    123e:	5a                   	pop    %edx
    123f:	59                   	pop    %ecx
    1240:	5b                   	pop    %ebx
    1241:	58                   	pop    %eax
    1242:	5c                   	pop    %esp
    1243:	cf                   	iret   

0000000000001244 <__runtime_v86_idtstub109>:
    1244:	54                   	push   %esp
    1245:	50                   	push   %eax
    1246:	53                   	push   %ebx
    1247:	51                   	push   %ecx
    1248:	52                   	push   %edx
    1249:	56                   	push   %esi
    124a:	57                   	push   %edi
    124b:	55                   	push   %ebp
    124c:	66 b8 1c 00          	mov    $0x1c,%ax
    1250:	8e d8                	mov    %eax,%ds
    1252:	89 e0                	mov    %esp,%eax
    1254:	50                   	push   %eax
    1255:	6a 6d                	push   $0x6d
    1257:	e8 b7 23 00 00       	call   3613 <v86_handleinterrupt>
    125c:	83 c4 08             	add    $0x8,%esp
    125f:	5d                   	pop    %ebp
    1260:	5f                   	pop    %edi
    1261:	5e                   	pop    %esi
    1262:	5a                   	pop    %edx
    1263:	59                   	pop    %ecx
    1264:	5b                   	pop    %ebx
    1265:	58                   	pop    %eax
    1266:	5c                   	pop    %esp
    1267:	cf                   	iret   

0000000000001268 <__runtime_v86_idtstub110>:
    1268:	54                   	push   %esp
    1269:	50                   	push   %eax
    126a:	53                   	push   %ebx
    126b:	51                   	push   %ecx
    126c:	52                   	push   %edx
    126d:	56                   	push   %esi
    126e:	57                   	push   %edi
    126f:	55                   	push   %ebp
    1270:	66 b8 1c 00          	mov    $0x1c,%ax
    1274:	8e d8                	mov    %eax,%ds
    1276:	89 e0                	mov    %esp,%eax
    1278:	50                   	push   %eax
    1279:	6a 6e                	push   $0x6e
    127b:	e8 93 23 00 00       	call   3613 <v86_handleinterrupt>
    1280:	83 c4 08             	add    $0x8,%esp
    1283:	5d                   	pop    %ebp
    1284:	5f                   	pop    %edi
    1285:	5e                   	pop    %esi
    1286:	5a                   	pop    %edx
    1287:	59                   	pop    %ecx
    1288:	5b                   	pop    %ebx
    1289:	58                   	pop    %eax
    128a:	5c                   	pop    %esp
    128b:	cf                   	iret   

000000000000128c <__runtime_v86_idtstub111>:
    128c:	54                   	push   %esp
    128d:	50                   	push   %eax
    128e:	53                   	push   %ebx
    128f:	51                   	push   %ecx
    1290:	52                   	push   %edx
    1291:	56                   	push   %esi
    1292:	57                   	push   %edi
    1293:	55                   	push   %ebp
    1294:	66 b8 1c 00          	mov    $0x1c,%ax
    1298:	8e d8                	mov    %eax,%ds
    129a:	89 e0                	mov    %esp,%eax
    129c:	50                   	push   %eax
    129d:	6a 6f                	push   $0x6f
    129f:	e8 6f 23 00 00       	call   3613 <v86_handleinterrupt>
    12a4:	83 c4 08             	add    $0x8,%esp
    12a7:	5d                   	pop    %ebp
    12a8:	5f                   	pop    %edi
    12a9:	5e                   	pop    %esi
    12aa:	5a                   	pop    %edx
    12ab:	59                   	pop    %ecx
    12ac:	5b                   	pop    %ebx
    12ad:	58                   	pop    %eax
    12ae:	5c                   	pop    %esp
    12af:	cf                   	iret   

00000000000012b0 <__runtime_v86_idtstub112>:
    12b0:	54                   	push   %esp
    12b1:	50                   	push   %eax
    12b2:	53                   	push   %ebx
    12b3:	51                   	push   %ecx
    12b4:	52                   	push   %edx
    12b5:	56                   	push   %esi
    12b6:	57                   	push   %edi
    12b7:	55                   	push   %ebp
    12b8:	66 b8 1c 00          	mov    $0x1c,%ax
    12bc:	8e d8                	mov    %eax,%ds
    12be:	89 e0                	mov    %esp,%eax
    12c0:	50                   	push   %eax
    12c1:	6a 70                	push   $0x70
    12c3:	e8 4b 23 00 00       	call   3613 <v86_handleinterrupt>
    12c8:	83 c4 08             	add    $0x8,%esp
    12cb:	5d                   	pop    %ebp
    12cc:	5f                   	pop    %edi
    12cd:	5e                   	pop    %esi
    12ce:	5a                   	pop    %edx
    12cf:	59                   	pop    %ecx
    12d0:	5b                   	pop    %ebx
    12d1:	58                   	pop    %eax
    12d2:	5c                   	pop    %esp
    12d3:	cf                   	iret   

00000000000012d4 <__runtime_v86_idtstub113>:
    12d4:	54                   	push   %esp
    12d5:	50                   	push   %eax
    12d6:	53                   	push   %ebx
    12d7:	51                   	push   %ecx
    12d8:	52                   	push   %edx
    12d9:	56                   	push   %esi
    12da:	57                   	push   %edi
    12db:	55                   	push   %ebp
    12dc:	66 b8 1c 00          	mov    $0x1c,%ax
    12e0:	8e d8                	mov    %eax,%ds
    12e2:	89 e0                	mov    %esp,%eax
    12e4:	50                   	push   %eax
    12e5:	6a 71                	push   $0x71
    12e7:	e8 27 23 00 00       	call   3613 <v86_handleinterrupt>
    12ec:	83 c4 08             	add    $0x8,%esp
    12ef:	5d                   	pop    %ebp
    12f0:	5f                   	pop    %edi
    12f1:	5e                   	pop    %esi
    12f2:	5a                   	pop    %edx
    12f3:	59                   	pop    %ecx
    12f4:	5b                   	pop    %ebx
    12f5:	58                   	pop    %eax
    12f6:	5c                   	pop    %esp
    12f7:	cf                   	iret   

00000000000012f8 <__runtime_v86_idtstub114>:
    12f8:	54                   	push   %esp
    12f9:	50                   	push   %eax
    12fa:	53                   	push   %ebx
    12fb:	51                   	push   %ecx
    12fc:	52                   	push   %edx
    12fd:	56                   	push   %esi
    12fe:	57                   	push   %edi
    12ff:	55                   	push   %ebp
    1300:	66 b8 1c 00          	mov    $0x1c,%ax
    1304:	8e d8                	mov    %eax,%ds
    1306:	89 e0                	mov    %esp,%eax
    1308:	50                   	push   %eax
    1309:	6a 72                	push   $0x72
    130b:	e8 03 23 00 00       	call   3613 <v86_handleinterrupt>
    1310:	83 c4 08             	add    $0x8,%esp
    1313:	5d                   	pop    %ebp
    1314:	5f                   	pop    %edi
    1315:	5e                   	pop    %esi
    1316:	5a                   	pop    %edx
    1317:	59                   	pop    %ecx
    1318:	5b                   	pop    %ebx
    1319:	58                   	pop    %eax
    131a:	5c                   	pop    %esp
    131b:	cf                   	iret   

000000000000131c <__runtime_v86_idtstub115>:
    131c:	54                   	push   %esp
    131d:	50                   	push   %eax
    131e:	53                   	push   %ebx
    131f:	51                   	push   %ecx
    1320:	52                   	push   %edx
    1321:	56                   	push   %esi
    1322:	57                   	push   %edi
    1323:	55                   	push   %ebp
    1324:	66 b8 1c 00          	mov    $0x1c,%ax
    1328:	8e d8                	mov    %eax,%ds
    132a:	89 e0                	mov    %esp,%eax
    132c:	50                   	push   %eax
    132d:	6a 73                	push   $0x73
    132f:	e8 df 22 00 00       	call   3613 <v86_handleinterrupt>
    1334:	83 c4 08             	add    $0x8,%esp
    1337:	5d                   	pop    %ebp
    1338:	5f                   	pop    %edi
    1339:	5e                   	pop    %esi
    133a:	5a                   	pop    %edx
    133b:	59                   	pop    %ecx
    133c:	5b                   	pop    %ebx
    133d:	58                   	pop    %eax
    133e:	5c                   	pop    %esp
    133f:	cf                   	iret   

0000000000001340 <__runtime_v86_idtstub116>:
    1340:	54                   	push   %esp
    1341:	50                   	push   %eax
    1342:	53                   	push   %ebx
    1343:	51                   	push   %ecx
    1344:	52                   	push   %edx
    1345:	56                   	push   %esi
    1346:	57                   	push   %edi
    1347:	55                   	push   %ebp
    1348:	66 b8 1c 00          	mov    $0x1c,%ax
    134c:	8e d8                	mov    %eax,%ds
    134e:	89 e0                	mov    %esp,%eax
    1350:	50                   	push   %eax
    1351:	6a 74                	push   $0x74
    1353:	e8 bb 22 00 00       	call   3613 <v86_handleinterrupt>
    1358:	83 c4 08             	add    $0x8,%esp
    135b:	5d                   	pop    %ebp
    135c:	5f                   	pop    %edi
    135d:	5e                   	pop    %esi
    135e:	5a                   	pop    %edx
    135f:	59                   	pop    %ecx
    1360:	5b                   	pop    %ebx
    1361:	58                   	pop    %eax
    1362:	5c                   	pop    %esp
    1363:	cf                   	iret   

0000000000001364 <__runtime_v86_idtstub117>:
    1364:	54                   	push   %esp
    1365:	50                   	push   %eax
    1366:	53                   	push   %ebx
    1367:	51                   	push   %ecx
    1368:	52                   	push   %edx
    1369:	56                   	push   %esi
    136a:	57                   	push   %edi
    136b:	55                   	push   %ebp
    136c:	66 b8 1c 00          	mov    $0x1c,%ax
    1370:	8e d8                	mov    %eax,%ds
    1372:	89 e0                	mov    %esp,%eax
    1374:	50                   	push   %eax
    1375:	6a 75                	push   $0x75
    1377:	e8 97 22 00 00       	call   3613 <v86_handleinterrupt>
    137c:	83 c4 08             	add    $0x8,%esp
    137f:	5d                   	pop    %ebp
    1380:	5f                   	pop    %edi
    1381:	5e                   	pop    %esi
    1382:	5a                   	pop    %edx
    1383:	59                   	pop    %ecx
    1384:	5b                   	pop    %ebx
    1385:	58                   	pop    %eax
    1386:	5c                   	pop    %esp
    1387:	cf                   	iret   

0000000000001388 <__runtime_v86_idtstub118>:
    1388:	54                   	push   %esp
    1389:	50                   	push   %eax
    138a:	53                   	push   %ebx
    138b:	51                   	push   %ecx
    138c:	52                   	push   %edx
    138d:	56                   	push   %esi
    138e:	57                   	push   %edi
    138f:	55                   	push   %ebp
    1390:	66 b8 1c 00          	mov    $0x1c,%ax
    1394:	8e d8                	mov    %eax,%ds
    1396:	89 e0                	mov    %esp,%eax
    1398:	50                   	push   %eax
    1399:	6a 76                	push   $0x76
    139b:	e8 73 22 00 00       	call   3613 <v86_handleinterrupt>
    13a0:	83 c4 08             	add    $0x8,%esp
    13a3:	5d                   	pop    %ebp
    13a4:	5f                   	pop    %edi
    13a5:	5e                   	pop    %esi
    13a6:	5a                   	pop    %edx
    13a7:	59                   	pop    %ecx
    13a8:	5b                   	pop    %ebx
    13a9:	58                   	pop    %eax
    13aa:	5c                   	pop    %esp
    13ab:	cf                   	iret   

00000000000013ac <__runtime_v86_idtstub119>:
    13ac:	54                   	push   %esp
    13ad:	50                   	push   %eax
    13ae:	53                   	push   %ebx
    13af:	51                   	push   %ecx
    13b0:	52                   	push   %edx
    13b1:	56                   	push   %esi
    13b2:	57                   	push   %edi
    13b3:	55                   	push   %ebp
    13b4:	66 b8 1c 00          	mov    $0x1c,%ax
    13b8:	8e d8                	mov    %eax,%ds
    13ba:	89 e0                	mov    %esp,%eax
    13bc:	50                   	push   %eax
    13bd:	6a 77                	push   $0x77
    13bf:	e8 4f 22 00 00       	call   3613 <v86_handleinterrupt>
    13c4:	83 c4 08             	add    $0x8,%esp
    13c7:	5d                   	pop    %ebp
    13c8:	5f                   	pop    %edi
    13c9:	5e                   	pop    %esi
    13ca:	5a                   	pop    %edx
    13cb:	59                   	pop    %ecx
    13cc:	5b                   	pop    %ebx
    13cd:	58                   	pop    %eax
    13ce:	5c                   	pop    %esp
    13cf:	cf                   	iret   

00000000000013d0 <__runtime_v86_idtstub120>:
    13d0:	54                   	push   %esp
    13d1:	50                   	push   %eax
    13d2:	53                   	push   %ebx
    13d3:	51                   	push   %ecx
    13d4:	52                   	push   %edx
    13d5:	56                   	push   %esi
    13d6:	57                   	push   %edi
    13d7:	55                   	push   %ebp
    13d8:	66 b8 1c 00          	mov    $0x1c,%ax
    13dc:	8e d8                	mov    %eax,%ds
    13de:	89 e0                	mov    %esp,%eax
    13e0:	50                   	push   %eax
    13e1:	6a 78                	push   $0x78
    13e3:	e8 2b 22 00 00       	call   3613 <v86_handleinterrupt>
    13e8:	83 c4 08             	add    $0x8,%esp
    13eb:	5d                   	pop    %ebp
    13ec:	5f                   	pop    %edi
    13ed:	5e                   	pop    %esi
    13ee:	5a                   	pop    %edx
    13ef:	59                   	pop    %ecx
    13f0:	5b                   	pop    %ebx
    13f1:	58                   	pop    %eax
    13f2:	5c                   	pop    %esp
    13f3:	cf                   	iret   

00000000000013f4 <__runtime_v86_idtstub121>:
    13f4:	54                   	push   %esp
    13f5:	50                   	push   %eax
    13f6:	53                   	push   %ebx
    13f7:	51                   	push   %ecx
    13f8:	52                   	push   %edx
    13f9:	56                   	push   %esi
    13fa:	57                   	push   %edi
    13fb:	55                   	push   %ebp
    13fc:	66 b8 1c 00          	mov    $0x1c,%ax
    1400:	8e d8                	mov    %eax,%ds
    1402:	89 e0                	mov    %esp,%eax
    1404:	50                   	push   %eax
    1405:	6a 79                	push   $0x79
    1407:	e8 07 22 00 00       	call   3613 <v86_handleinterrupt>
    140c:	83 c4 08             	add    $0x8,%esp
    140f:	5d                   	pop    %ebp
    1410:	5f                   	pop    %edi
    1411:	5e                   	pop    %esi
    1412:	5a                   	pop    %edx
    1413:	59                   	pop    %ecx
    1414:	5b                   	pop    %ebx
    1415:	58                   	pop    %eax
    1416:	5c                   	pop    %esp
    1417:	cf                   	iret   

0000000000001418 <__runtime_v86_idtstub122>:
    1418:	54                   	push   %esp
    1419:	50                   	push   %eax
    141a:	53                   	push   %ebx
    141b:	51                   	push   %ecx
    141c:	52                   	push   %edx
    141d:	56                   	push   %esi
    141e:	57                   	push   %edi
    141f:	55                   	push   %ebp
    1420:	66 b8 1c 00          	mov    $0x1c,%ax
    1424:	8e d8                	mov    %eax,%ds
    1426:	89 e0                	mov    %esp,%eax
    1428:	50                   	push   %eax
    1429:	6a 7a                	push   $0x7a
    142b:	e8 e3 21 00 00       	call   3613 <v86_handleinterrupt>
    1430:	83 c4 08             	add    $0x8,%esp
    1433:	5d                   	pop    %ebp
    1434:	5f                   	pop    %edi
    1435:	5e                   	pop    %esi
    1436:	5a                   	pop    %edx
    1437:	59                   	pop    %ecx
    1438:	5b                   	pop    %ebx
    1439:	58                   	pop    %eax
    143a:	5c                   	pop    %esp
    143b:	cf                   	iret   

000000000000143c <__runtime_v86_idtstub123>:
    143c:	54                   	push   %esp
    143d:	50                   	push   %eax
    143e:	53                   	push   %ebx
    143f:	51                   	push   %ecx
    1440:	52                   	push   %edx
    1441:	56                   	push   %esi
    1442:	57                   	push   %edi
    1443:	55                   	push   %ebp
    1444:	66 b8 1c 00          	mov    $0x1c,%ax
    1448:	8e d8                	mov    %eax,%ds
    144a:	89 e0                	mov    %esp,%eax
    144c:	50                   	push   %eax
    144d:	6a 7b                	push   $0x7b
    144f:	e8 bf 21 00 00       	call   3613 <v86_handleinterrupt>
    1454:	83 c4 08             	add    $0x8,%esp
    1457:	5d                   	pop    %ebp
    1458:	5f                   	pop    %edi
    1459:	5e                   	pop    %esi
    145a:	5a                   	pop    %edx
    145b:	59                   	pop    %ecx
    145c:	5b                   	pop    %ebx
    145d:	58                   	pop    %eax
    145e:	5c                   	pop    %esp
    145f:	cf                   	iret   

0000000000001460 <__runtime_v86_idtstub124>:
    1460:	54                   	push   %esp
    1461:	50                   	push   %eax
    1462:	53                   	push   %ebx
    1463:	51                   	push   %ecx
    1464:	52                   	push   %edx
    1465:	56                   	push   %esi
    1466:	57                   	push   %edi
    1467:	55                   	push   %ebp
    1468:	66 b8 1c 00          	mov    $0x1c,%ax
    146c:	8e d8                	mov    %eax,%ds
    146e:	89 e0                	mov    %esp,%eax
    1470:	50                   	push   %eax
    1471:	6a 7c                	push   $0x7c
    1473:	e8 9b 21 00 00       	call   3613 <v86_handleinterrupt>
    1478:	83 c4 08             	add    $0x8,%esp
    147b:	5d                   	pop    %ebp
    147c:	5f                   	pop    %edi
    147d:	5e                   	pop    %esi
    147e:	5a                   	pop    %edx
    147f:	59                   	pop    %ecx
    1480:	5b                   	pop    %ebx
    1481:	58                   	pop    %eax
    1482:	5c                   	pop    %esp
    1483:	cf                   	iret   

0000000000001484 <__runtime_v86_idtstub125>:
    1484:	54                   	push   %esp
    1485:	50                   	push   %eax
    1486:	53                   	push   %ebx
    1487:	51                   	push   %ecx
    1488:	52                   	push   %edx
    1489:	56                   	push   %esi
    148a:	57                   	push   %edi
    148b:	55                   	push   %ebp
    148c:	66 b8 1c 00          	mov    $0x1c,%ax
    1490:	8e d8                	mov    %eax,%ds
    1492:	89 e0                	mov    %esp,%eax
    1494:	50                   	push   %eax
    1495:	6a 7d                	push   $0x7d
    1497:	e8 77 21 00 00       	call   3613 <v86_handleinterrupt>
    149c:	83 c4 08             	add    $0x8,%esp
    149f:	5d                   	pop    %ebp
    14a0:	5f                   	pop    %edi
    14a1:	5e                   	pop    %esi
    14a2:	5a                   	pop    %edx
    14a3:	59                   	pop    %ecx
    14a4:	5b                   	pop    %ebx
    14a5:	58                   	pop    %eax
    14a6:	5c                   	pop    %esp
    14a7:	cf                   	iret   

00000000000014a8 <__runtime_v86_idtstub126>:
    14a8:	54                   	push   %esp
    14a9:	50                   	push   %eax
    14aa:	53                   	push   %ebx
    14ab:	51                   	push   %ecx
    14ac:	52                   	push   %edx
    14ad:	56                   	push   %esi
    14ae:	57                   	push   %edi
    14af:	55                   	push   %ebp
    14b0:	66 b8 1c 00          	mov    $0x1c,%ax
    14b4:	8e d8                	mov    %eax,%ds
    14b6:	89 e0                	mov    %esp,%eax
    14b8:	50                   	push   %eax
    14b9:	6a 7e                	push   $0x7e
    14bb:	e8 53 21 00 00       	call   3613 <v86_handleinterrupt>
    14c0:	83 c4 08             	add    $0x8,%esp
    14c3:	5d                   	pop    %ebp
    14c4:	5f                   	pop    %edi
    14c5:	5e                   	pop    %esi
    14c6:	5a                   	pop    %edx
    14c7:	59                   	pop    %ecx
    14c8:	5b                   	pop    %ebx
    14c9:	58                   	pop    %eax
    14ca:	5c                   	pop    %esp
    14cb:	cf                   	iret   

00000000000014cc <__runtime_v86_idtstub127>:
    14cc:	54                   	push   %esp
    14cd:	50                   	push   %eax
    14ce:	53                   	push   %ebx
    14cf:	51                   	push   %ecx
    14d0:	52                   	push   %edx
    14d1:	56                   	push   %esi
    14d2:	57                   	push   %edi
    14d3:	55                   	push   %ebp
    14d4:	66 b8 1c 00          	mov    $0x1c,%ax
    14d8:	8e d8                	mov    %eax,%ds
    14da:	89 e0                	mov    %esp,%eax
    14dc:	50                   	push   %eax
    14dd:	6a 7f                	push   $0x7f
    14df:	e8 2f 21 00 00       	call   3613 <v86_handleinterrupt>
    14e4:	83 c4 08             	add    $0x8,%esp
    14e7:	5d                   	pop    %ebp
    14e8:	5f                   	pop    %edi
    14e9:	5e                   	pop    %esi
    14ea:	5a                   	pop    %edx
    14eb:	59                   	pop    %ecx
    14ec:	5b                   	pop    %ebx
    14ed:	58                   	pop    %eax
    14ee:	5c                   	pop    %esp
    14ef:	cf                   	iret   

00000000000014f0 <__runtime_v86_idtstub128>:
    14f0:	54                   	push   %esp
    14f1:	50                   	push   %eax
    14f2:	53                   	push   %ebx
    14f3:	51                   	push   %ecx
    14f4:	52                   	push   %edx
    14f5:	56                   	push   %esi
    14f6:	57                   	push   %edi
    14f7:	55                   	push   %ebp
    14f8:	66 b8 1c 00          	mov    $0x1c,%ax
    14fc:	8e d8                	mov    %eax,%ds
    14fe:	89 e0                	mov    %esp,%eax
    1500:	50                   	push   %eax
    1501:	68 80 00 00 00       	push   $0x80
    1506:	e8 08 21 00 00       	call   3613 <v86_handleinterrupt>
    150b:	83 c4 08             	add    $0x8,%esp
    150e:	5d                   	pop    %ebp
    150f:	5f                   	pop    %edi
    1510:	5e                   	pop    %esi
    1511:	5a                   	pop    %edx
    1512:	59                   	pop    %ecx
    1513:	5b                   	pop    %ebx
    1514:	58                   	pop    %eax
    1515:	5c                   	pop    %esp
    1516:	cf                   	iret   

0000000000001517 <__runtime_v86_idtstub129>:
    1517:	54                   	push   %esp
    1518:	50                   	push   %eax
    1519:	53                   	push   %ebx
    151a:	51                   	push   %ecx
    151b:	52                   	push   %edx
    151c:	56                   	push   %esi
    151d:	57                   	push   %edi
    151e:	55                   	push   %ebp
    151f:	66 b8 1c 00          	mov    $0x1c,%ax
    1523:	8e d8                	mov    %eax,%ds
    1525:	89 e0                	mov    %esp,%eax
    1527:	50                   	push   %eax
    1528:	68 81 00 00 00       	push   $0x81
    152d:	e8 e1 20 00 00       	call   3613 <v86_handleinterrupt>
    1532:	83 c4 08             	add    $0x8,%esp
    1535:	5d                   	pop    %ebp
    1536:	5f                   	pop    %edi
    1537:	5e                   	pop    %esi
    1538:	5a                   	pop    %edx
    1539:	59                   	pop    %ecx
    153a:	5b                   	pop    %ebx
    153b:	58                   	pop    %eax
    153c:	5c                   	pop    %esp
    153d:	cf                   	iret   

000000000000153e <__runtime_v86_idtstub130>:
    153e:	54                   	push   %esp
    153f:	50                   	push   %eax
    1540:	53                   	push   %ebx
    1541:	51                   	push   %ecx
    1542:	52                   	push   %edx
    1543:	56                   	push   %esi
    1544:	57                   	push   %edi
    1545:	55                   	push   %ebp
    1546:	66 b8 1c 00          	mov    $0x1c,%ax
    154a:	8e d8                	mov    %eax,%ds
    154c:	89 e0                	mov    %esp,%eax
    154e:	50                   	push   %eax
    154f:	68 82 00 00 00       	push   $0x82
    1554:	e8 ba 20 00 00       	call   3613 <v86_handleinterrupt>
    1559:	83 c4 08             	add    $0x8,%esp
    155c:	5d                   	pop    %ebp
    155d:	5f                   	pop    %edi
    155e:	5e                   	pop    %esi
    155f:	5a                   	pop    %edx
    1560:	59                   	pop    %ecx
    1561:	5b                   	pop    %ebx
    1562:	58                   	pop    %eax
    1563:	5c                   	pop    %esp
    1564:	cf                   	iret   

0000000000001565 <__runtime_v86_idtstub131>:
    1565:	54                   	push   %esp
    1566:	50                   	push   %eax
    1567:	53                   	push   %ebx
    1568:	51                   	push   %ecx
    1569:	52                   	push   %edx
    156a:	56                   	push   %esi
    156b:	57                   	push   %edi
    156c:	55                   	push   %ebp
    156d:	66 b8 1c 00          	mov    $0x1c,%ax
    1571:	8e d8                	mov    %eax,%ds
    1573:	89 e0                	mov    %esp,%eax
    1575:	50                   	push   %eax
    1576:	68 83 00 00 00       	push   $0x83
    157b:	e8 93 20 00 00       	call   3613 <v86_handleinterrupt>
    1580:	83 c4 08             	add    $0x8,%esp
    1583:	5d                   	pop    %ebp
    1584:	5f                   	pop    %edi
    1585:	5e                   	pop    %esi
    1586:	5a                   	pop    %edx
    1587:	59                   	pop    %ecx
    1588:	5b                   	pop    %ebx
    1589:	58                   	pop    %eax
    158a:	5c                   	pop    %esp
    158b:	cf                   	iret   

000000000000158c <__runtime_v86_idtstub132>:
    158c:	54                   	push   %esp
    158d:	50                   	push   %eax
    158e:	53                   	push   %ebx
    158f:	51                   	push   %ecx
    1590:	52                   	push   %edx
    1591:	56                   	push   %esi
    1592:	57                   	push   %edi
    1593:	55                   	push   %ebp
    1594:	66 b8 1c 00          	mov    $0x1c,%ax
    1598:	8e d8                	mov    %eax,%ds
    159a:	89 e0                	mov    %esp,%eax
    159c:	50                   	push   %eax
    159d:	68 84 00 00 00       	push   $0x84
    15a2:	e8 6c 20 00 00       	call   3613 <v86_handleinterrupt>
    15a7:	83 c4 08             	add    $0x8,%esp
    15aa:	5d                   	pop    %ebp
    15ab:	5f                   	pop    %edi
    15ac:	5e                   	pop    %esi
    15ad:	5a                   	pop    %edx
    15ae:	59                   	pop    %ecx
    15af:	5b                   	pop    %ebx
    15b0:	58                   	pop    %eax
    15b1:	5c                   	pop    %esp
    15b2:	cf                   	iret   

00000000000015b3 <__runtime_v86_idtstub133>:
    15b3:	54                   	push   %esp
    15b4:	50                   	push   %eax
    15b5:	53                   	push   %ebx
    15b6:	51                   	push   %ecx
    15b7:	52                   	push   %edx
    15b8:	56                   	push   %esi
    15b9:	57                   	push   %edi
    15ba:	55                   	push   %ebp
    15bb:	66 b8 1c 00          	mov    $0x1c,%ax
    15bf:	8e d8                	mov    %eax,%ds
    15c1:	89 e0                	mov    %esp,%eax
    15c3:	50                   	push   %eax
    15c4:	68 85 00 00 00       	push   $0x85
    15c9:	e8 45 20 00 00       	call   3613 <v86_handleinterrupt>
    15ce:	83 c4 08             	add    $0x8,%esp
    15d1:	5d                   	pop    %ebp
    15d2:	5f                   	pop    %edi
    15d3:	5e                   	pop    %esi
    15d4:	5a                   	pop    %edx
    15d5:	59                   	pop    %ecx
    15d6:	5b                   	pop    %ebx
    15d7:	58                   	pop    %eax
    15d8:	5c                   	pop    %esp
    15d9:	cf                   	iret   

00000000000015da <__runtime_v86_idtstub134>:
    15da:	54                   	push   %esp
    15db:	50                   	push   %eax
    15dc:	53                   	push   %ebx
    15dd:	51                   	push   %ecx
    15de:	52                   	push   %edx
    15df:	56                   	push   %esi
    15e0:	57                   	push   %edi
    15e1:	55                   	push   %ebp
    15e2:	66 b8 1c 00          	mov    $0x1c,%ax
    15e6:	8e d8                	mov    %eax,%ds
    15e8:	89 e0                	mov    %esp,%eax
    15ea:	50                   	push   %eax
    15eb:	68 86 00 00 00       	push   $0x86
    15f0:	e8 1e 20 00 00       	call   3613 <v86_handleinterrupt>
    15f5:	83 c4 08             	add    $0x8,%esp
    15f8:	5d                   	pop    %ebp
    15f9:	5f                   	pop    %edi
    15fa:	5e                   	pop    %esi
    15fb:	5a                   	pop    %edx
    15fc:	59                   	pop    %ecx
    15fd:	5b                   	pop    %ebx
    15fe:	58                   	pop    %eax
    15ff:	5c                   	pop    %esp
    1600:	cf                   	iret   

0000000000001601 <__runtime_v86_idtstub135>:
    1601:	54                   	push   %esp
    1602:	50                   	push   %eax
    1603:	53                   	push   %ebx
    1604:	51                   	push   %ecx
    1605:	52                   	push   %edx
    1606:	56                   	push   %esi
    1607:	57                   	push   %edi
    1608:	55                   	push   %ebp
    1609:	66 b8 1c 00          	mov    $0x1c,%ax
    160d:	8e d8                	mov    %eax,%ds
    160f:	89 e0                	mov    %esp,%eax
    1611:	50                   	push   %eax
    1612:	68 87 00 00 00       	push   $0x87
    1617:	e8 f7 1f 00 00       	call   3613 <v86_handleinterrupt>
    161c:	83 c4 08             	add    $0x8,%esp
    161f:	5d                   	pop    %ebp
    1620:	5f                   	pop    %edi
    1621:	5e                   	pop    %esi
    1622:	5a                   	pop    %edx
    1623:	59                   	pop    %ecx
    1624:	5b                   	pop    %ebx
    1625:	58                   	pop    %eax
    1626:	5c                   	pop    %esp
    1627:	cf                   	iret   

0000000000001628 <__runtime_v86_idtstub136>:
    1628:	54                   	push   %esp
    1629:	50                   	push   %eax
    162a:	53                   	push   %ebx
    162b:	51                   	push   %ecx
    162c:	52                   	push   %edx
    162d:	56                   	push   %esi
    162e:	57                   	push   %edi
    162f:	55                   	push   %ebp
    1630:	66 b8 1c 00          	mov    $0x1c,%ax
    1634:	8e d8                	mov    %eax,%ds
    1636:	89 e0                	mov    %esp,%eax
    1638:	50                   	push   %eax
    1639:	68 88 00 00 00       	push   $0x88
    163e:	e8 d0 1f 00 00       	call   3613 <v86_handleinterrupt>
    1643:	83 c4 08             	add    $0x8,%esp
    1646:	5d                   	pop    %ebp
    1647:	5f                   	pop    %edi
    1648:	5e                   	pop    %esi
    1649:	5a                   	pop    %edx
    164a:	59                   	pop    %ecx
    164b:	5b                   	pop    %ebx
    164c:	58                   	pop    %eax
    164d:	5c                   	pop    %esp
    164e:	cf                   	iret   

000000000000164f <__runtime_v86_idtstub137>:
    164f:	54                   	push   %esp
    1650:	50                   	push   %eax
    1651:	53                   	push   %ebx
    1652:	51                   	push   %ecx
    1653:	52                   	push   %edx
    1654:	56                   	push   %esi
    1655:	57                   	push   %edi
    1656:	55                   	push   %ebp
    1657:	66 b8 1c 00          	mov    $0x1c,%ax
    165b:	8e d8                	mov    %eax,%ds
    165d:	89 e0                	mov    %esp,%eax
    165f:	50                   	push   %eax
    1660:	68 89 00 00 00       	push   $0x89
    1665:	e8 a9 1f 00 00       	call   3613 <v86_handleinterrupt>
    166a:	83 c4 08             	add    $0x8,%esp
    166d:	5d                   	pop    %ebp
    166e:	5f                   	pop    %edi
    166f:	5e                   	pop    %esi
    1670:	5a                   	pop    %edx
    1671:	59                   	pop    %ecx
    1672:	5b                   	pop    %ebx
    1673:	58                   	pop    %eax
    1674:	5c                   	pop    %esp
    1675:	cf                   	iret   

0000000000001676 <__runtime_v86_idtstub138>:
    1676:	54                   	push   %esp
    1677:	50                   	push   %eax
    1678:	53                   	push   %ebx
    1679:	51                   	push   %ecx
    167a:	52                   	push   %edx
    167b:	56                   	push   %esi
    167c:	57                   	push   %edi
    167d:	55                   	push   %ebp
    167e:	66 b8 1c 00          	mov    $0x1c,%ax
    1682:	8e d8                	mov    %eax,%ds
    1684:	89 e0                	mov    %esp,%eax
    1686:	50                   	push   %eax
    1687:	68 8a 00 00 00       	push   $0x8a
    168c:	e8 82 1f 00 00       	call   3613 <v86_handleinterrupt>
    1691:	83 c4 08             	add    $0x8,%esp
    1694:	5d                   	pop    %ebp
    1695:	5f                   	pop    %edi
    1696:	5e                   	pop    %esi
    1697:	5a                   	pop    %edx
    1698:	59                   	pop    %ecx
    1699:	5b                   	pop    %ebx
    169a:	58                   	pop    %eax
    169b:	5c                   	pop    %esp
    169c:	cf                   	iret   

000000000000169d <__runtime_v86_idtstub139>:
    169d:	54                   	push   %esp
    169e:	50                   	push   %eax
    169f:	53                   	push   %ebx
    16a0:	51                   	push   %ecx
    16a1:	52                   	push   %edx
    16a2:	56                   	push   %esi
    16a3:	57                   	push   %edi
    16a4:	55                   	push   %ebp
    16a5:	66 b8 1c 00          	mov    $0x1c,%ax
    16a9:	8e d8                	mov    %eax,%ds
    16ab:	89 e0                	mov    %esp,%eax
    16ad:	50                   	push   %eax
    16ae:	68 8b 00 00 00       	push   $0x8b
    16b3:	e8 5b 1f 00 00       	call   3613 <v86_handleinterrupt>
    16b8:	83 c4 08             	add    $0x8,%esp
    16bb:	5d                   	pop    %ebp
    16bc:	5f                   	pop    %edi
    16bd:	5e                   	pop    %esi
    16be:	5a                   	pop    %edx
    16bf:	59                   	pop    %ecx
    16c0:	5b                   	pop    %ebx
    16c1:	58                   	pop    %eax
    16c2:	5c                   	pop    %esp
    16c3:	cf                   	iret   

00000000000016c4 <__runtime_v86_idtstub140>:
    16c4:	54                   	push   %esp
    16c5:	50                   	push   %eax
    16c6:	53                   	push   %ebx
    16c7:	51                   	push   %ecx
    16c8:	52                   	push   %edx
    16c9:	56                   	push   %esi
    16ca:	57                   	push   %edi
    16cb:	55                   	push   %ebp
    16cc:	66 b8 1c 00          	mov    $0x1c,%ax
    16d0:	8e d8                	mov    %eax,%ds
    16d2:	89 e0                	mov    %esp,%eax
    16d4:	50                   	push   %eax
    16d5:	68 8c 00 00 00       	push   $0x8c
    16da:	e8 34 1f 00 00       	call   3613 <v86_handleinterrupt>
    16df:	83 c4 08             	add    $0x8,%esp
    16e2:	5d                   	pop    %ebp
    16e3:	5f                   	pop    %edi
    16e4:	5e                   	pop    %esi
    16e5:	5a                   	pop    %edx
    16e6:	59                   	pop    %ecx
    16e7:	5b                   	pop    %ebx
    16e8:	58                   	pop    %eax
    16e9:	5c                   	pop    %esp
    16ea:	cf                   	iret   

00000000000016eb <__runtime_v86_idtstub141>:
    16eb:	54                   	push   %esp
    16ec:	50                   	push   %eax
    16ed:	53                   	push   %ebx
    16ee:	51                   	push   %ecx
    16ef:	52                   	push   %edx
    16f0:	56                   	push   %esi
    16f1:	57                   	push   %edi
    16f2:	55                   	push   %ebp
    16f3:	66 b8 1c 00          	mov    $0x1c,%ax
    16f7:	8e d8                	mov    %eax,%ds
    16f9:	89 e0                	mov    %esp,%eax
    16fb:	50                   	push   %eax
    16fc:	68 8d 00 00 00       	push   $0x8d
    1701:	e8 0d 1f 00 00       	call   3613 <v86_handleinterrupt>
    1706:	83 c4 08             	add    $0x8,%esp
    1709:	5d                   	pop    %ebp
    170a:	5f                   	pop    %edi
    170b:	5e                   	pop    %esi
    170c:	5a                   	pop    %edx
    170d:	59                   	pop    %ecx
    170e:	5b                   	pop    %ebx
    170f:	58                   	pop    %eax
    1710:	5c                   	pop    %esp
    1711:	cf                   	iret   

0000000000001712 <__runtime_v86_idtstub142>:
    1712:	54                   	push   %esp
    1713:	50                   	push   %eax
    1714:	53                   	push   %ebx
    1715:	51                   	push   %ecx
    1716:	52                   	push   %edx
    1717:	56                   	push   %esi
    1718:	57                   	push   %edi
    1719:	55                   	push   %ebp
    171a:	66 b8 1c 00          	mov    $0x1c,%ax
    171e:	8e d8                	mov    %eax,%ds
    1720:	89 e0                	mov    %esp,%eax
    1722:	50                   	push   %eax
    1723:	68 8e 00 00 00       	push   $0x8e
    1728:	e8 e6 1e 00 00       	call   3613 <v86_handleinterrupt>
    172d:	83 c4 08             	add    $0x8,%esp
    1730:	5d                   	pop    %ebp
    1731:	5f                   	pop    %edi
    1732:	5e                   	pop    %esi
    1733:	5a                   	pop    %edx
    1734:	59                   	pop    %ecx
    1735:	5b                   	pop    %ebx
    1736:	58                   	pop    %eax
    1737:	5c                   	pop    %esp
    1738:	cf                   	iret   

0000000000001739 <__runtime_v86_idtstub143>:
    1739:	54                   	push   %esp
    173a:	50                   	push   %eax
    173b:	53                   	push   %ebx
    173c:	51                   	push   %ecx
    173d:	52                   	push   %edx
    173e:	56                   	push   %esi
    173f:	57                   	push   %edi
    1740:	55                   	push   %ebp
    1741:	66 b8 1c 00          	mov    $0x1c,%ax
    1745:	8e d8                	mov    %eax,%ds
    1747:	89 e0                	mov    %esp,%eax
    1749:	50                   	push   %eax
    174a:	68 8f 00 00 00       	push   $0x8f
    174f:	e8 bf 1e 00 00       	call   3613 <v86_handleinterrupt>
    1754:	83 c4 08             	add    $0x8,%esp
    1757:	5d                   	pop    %ebp
    1758:	5f                   	pop    %edi
    1759:	5e                   	pop    %esi
    175a:	5a                   	pop    %edx
    175b:	59                   	pop    %ecx
    175c:	5b                   	pop    %ebx
    175d:	58                   	pop    %eax
    175e:	5c                   	pop    %esp
    175f:	cf                   	iret   

0000000000001760 <__runtime_v86_idtstub144>:
    1760:	54                   	push   %esp
    1761:	50                   	push   %eax
    1762:	53                   	push   %ebx
    1763:	51                   	push   %ecx
    1764:	52                   	push   %edx
    1765:	56                   	push   %esi
    1766:	57                   	push   %edi
    1767:	55                   	push   %ebp
    1768:	66 b8 1c 00          	mov    $0x1c,%ax
    176c:	8e d8                	mov    %eax,%ds
    176e:	89 e0                	mov    %esp,%eax
    1770:	50                   	push   %eax
    1771:	68 90 00 00 00       	push   $0x90
    1776:	e8 98 1e 00 00       	call   3613 <v86_handleinterrupt>
    177b:	83 c4 08             	add    $0x8,%esp
    177e:	5d                   	pop    %ebp
    177f:	5f                   	pop    %edi
    1780:	5e                   	pop    %esi
    1781:	5a                   	pop    %edx
    1782:	59                   	pop    %ecx
    1783:	5b                   	pop    %ebx
    1784:	58                   	pop    %eax
    1785:	5c                   	pop    %esp
    1786:	cf                   	iret   

0000000000001787 <__runtime_v86_idtstub145>:
    1787:	54                   	push   %esp
    1788:	50                   	push   %eax
    1789:	53                   	push   %ebx
    178a:	51                   	push   %ecx
    178b:	52                   	push   %edx
    178c:	56                   	push   %esi
    178d:	57                   	push   %edi
    178e:	55                   	push   %ebp
    178f:	66 b8 1c 00          	mov    $0x1c,%ax
    1793:	8e d8                	mov    %eax,%ds
    1795:	89 e0                	mov    %esp,%eax
    1797:	50                   	push   %eax
    1798:	68 91 00 00 00       	push   $0x91
    179d:	e8 71 1e 00 00       	call   3613 <v86_handleinterrupt>
    17a2:	83 c4 08             	add    $0x8,%esp
    17a5:	5d                   	pop    %ebp
    17a6:	5f                   	pop    %edi
    17a7:	5e                   	pop    %esi
    17a8:	5a                   	pop    %edx
    17a9:	59                   	pop    %ecx
    17aa:	5b                   	pop    %ebx
    17ab:	58                   	pop    %eax
    17ac:	5c                   	pop    %esp
    17ad:	cf                   	iret   

00000000000017ae <__runtime_v86_idtstub146>:
    17ae:	54                   	push   %esp
    17af:	50                   	push   %eax
    17b0:	53                   	push   %ebx
    17b1:	51                   	push   %ecx
    17b2:	52                   	push   %edx
    17b3:	56                   	push   %esi
    17b4:	57                   	push   %edi
    17b5:	55                   	push   %ebp
    17b6:	66 b8 1c 00          	mov    $0x1c,%ax
    17ba:	8e d8                	mov    %eax,%ds
    17bc:	89 e0                	mov    %esp,%eax
    17be:	50                   	push   %eax
    17bf:	68 92 00 00 00       	push   $0x92
    17c4:	e8 4a 1e 00 00       	call   3613 <v86_handleinterrupt>
    17c9:	83 c4 08             	add    $0x8,%esp
    17cc:	5d                   	pop    %ebp
    17cd:	5f                   	pop    %edi
    17ce:	5e                   	pop    %esi
    17cf:	5a                   	pop    %edx
    17d0:	59                   	pop    %ecx
    17d1:	5b                   	pop    %ebx
    17d2:	58                   	pop    %eax
    17d3:	5c                   	pop    %esp
    17d4:	cf                   	iret   

00000000000017d5 <__runtime_v86_idtstub147>:
    17d5:	54                   	push   %esp
    17d6:	50                   	push   %eax
    17d7:	53                   	push   %ebx
    17d8:	51                   	push   %ecx
    17d9:	52                   	push   %edx
    17da:	56                   	push   %esi
    17db:	57                   	push   %edi
    17dc:	55                   	push   %ebp
    17dd:	66 b8 1c 00          	mov    $0x1c,%ax
    17e1:	8e d8                	mov    %eax,%ds
    17e3:	89 e0                	mov    %esp,%eax
    17e5:	50                   	push   %eax
    17e6:	68 93 00 00 00       	push   $0x93
    17eb:	e8 23 1e 00 00       	call   3613 <v86_handleinterrupt>
    17f0:	83 c4 08             	add    $0x8,%esp
    17f3:	5d                   	pop    %ebp
    17f4:	5f                   	pop    %edi
    17f5:	5e                   	pop    %esi
    17f6:	5a                   	pop    %edx
    17f7:	59                   	pop    %ecx
    17f8:	5b                   	pop    %ebx
    17f9:	58                   	pop    %eax
    17fa:	5c                   	pop    %esp
    17fb:	cf                   	iret   

00000000000017fc <__runtime_v86_idtstub148>:
    17fc:	54                   	push   %esp
    17fd:	50                   	push   %eax
    17fe:	53                   	push   %ebx
    17ff:	51                   	push   %ecx
    1800:	52                   	push   %edx
    1801:	56                   	push   %esi
    1802:	57                   	push   %edi
    1803:	55                   	push   %ebp
    1804:	66 b8 1c 00          	mov    $0x1c,%ax
    1808:	8e d8                	mov    %eax,%ds
    180a:	89 e0                	mov    %esp,%eax
    180c:	50                   	push   %eax
    180d:	68 94 00 00 00       	push   $0x94
    1812:	e8 fc 1d 00 00       	call   3613 <v86_handleinterrupt>
    1817:	83 c4 08             	add    $0x8,%esp
    181a:	5d                   	pop    %ebp
    181b:	5f                   	pop    %edi
    181c:	5e                   	pop    %esi
    181d:	5a                   	pop    %edx
    181e:	59                   	pop    %ecx
    181f:	5b                   	pop    %ebx
    1820:	58                   	pop    %eax
    1821:	5c                   	pop    %esp
    1822:	cf                   	iret   

0000000000001823 <__runtime_v86_idtstub149>:
    1823:	54                   	push   %esp
    1824:	50                   	push   %eax
    1825:	53                   	push   %ebx
    1826:	51                   	push   %ecx
    1827:	52                   	push   %edx
    1828:	56                   	push   %esi
    1829:	57                   	push   %edi
    182a:	55                   	push   %ebp
    182b:	66 b8 1c 00          	mov    $0x1c,%ax
    182f:	8e d8                	mov    %eax,%ds
    1831:	89 e0                	mov    %esp,%eax
    1833:	50                   	push   %eax
    1834:	68 95 00 00 00       	push   $0x95
    1839:	e8 d5 1d 00 00       	call   3613 <v86_handleinterrupt>
    183e:	83 c4 08             	add    $0x8,%esp
    1841:	5d                   	pop    %ebp
    1842:	5f                   	pop    %edi
    1843:	5e                   	pop    %esi
    1844:	5a                   	pop    %edx
    1845:	59                   	pop    %ecx
    1846:	5b                   	pop    %ebx
    1847:	58                   	pop    %eax
    1848:	5c                   	pop    %esp
    1849:	cf                   	iret   

000000000000184a <__runtime_v86_idtstub150>:
    184a:	54                   	push   %esp
    184b:	50                   	push   %eax
    184c:	53                   	push   %ebx
    184d:	51                   	push   %ecx
    184e:	52                   	push   %edx
    184f:	56                   	push   %esi
    1850:	57                   	push   %edi
    1851:	55                   	push   %ebp
    1852:	66 b8 1c 00          	mov    $0x1c,%ax
    1856:	8e d8                	mov    %eax,%ds
    1858:	89 e0                	mov    %esp,%eax
    185a:	50                   	push   %eax
    185b:	68 96 00 00 00       	push   $0x96
    1860:	e8 ae 1d 00 00       	call   3613 <v86_handleinterrupt>
    1865:	83 c4 08             	add    $0x8,%esp
    1868:	5d                   	pop    %ebp
    1869:	5f                   	pop    %edi
    186a:	5e                   	pop    %esi
    186b:	5a                   	pop    %edx
    186c:	59                   	pop    %ecx
    186d:	5b                   	pop    %ebx
    186e:	58                   	pop    %eax
    186f:	5c                   	pop    %esp
    1870:	cf                   	iret   

0000000000001871 <__runtime_v86_idtstub151>:
    1871:	54                   	push   %esp
    1872:	50                   	push   %eax
    1873:	53                   	push   %ebx
    1874:	51                   	push   %ecx
    1875:	52                   	push   %edx
    1876:	56                   	push   %esi
    1877:	57                   	push   %edi
    1878:	55                   	push   %ebp
    1879:	66 b8 1c 00          	mov    $0x1c,%ax
    187d:	8e d8                	mov    %eax,%ds
    187f:	89 e0                	mov    %esp,%eax
    1881:	50                   	push   %eax
    1882:	68 97 00 00 00       	push   $0x97
    1887:	e8 87 1d 00 00       	call   3613 <v86_handleinterrupt>
    188c:	83 c4 08             	add    $0x8,%esp
    188f:	5d                   	pop    %ebp
    1890:	5f                   	pop    %edi
    1891:	5e                   	pop    %esi
    1892:	5a                   	pop    %edx
    1893:	59                   	pop    %ecx
    1894:	5b                   	pop    %ebx
    1895:	58                   	pop    %eax
    1896:	5c                   	pop    %esp
    1897:	cf                   	iret   

0000000000001898 <__runtime_v86_idtstub152>:
    1898:	54                   	push   %esp
    1899:	50                   	push   %eax
    189a:	53                   	push   %ebx
    189b:	51                   	push   %ecx
    189c:	52                   	push   %edx
    189d:	56                   	push   %esi
    189e:	57                   	push   %edi
    189f:	55                   	push   %ebp
    18a0:	66 b8 1c 00          	mov    $0x1c,%ax
    18a4:	8e d8                	mov    %eax,%ds
    18a6:	89 e0                	mov    %esp,%eax
    18a8:	50                   	push   %eax
    18a9:	68 98 00 00 00       	push   $0x98
    18ae:	e8 60 1d 00 00       	call   3613 <v86_handleinterrupt>
    18b3:	83 c4 08             	add    $0x8,%esp
    18b6:	5d                   	pop    %ebp
    18b7:	5f                   	pop    %edi
    18b8:	5e                   	pop    %esi
    18b9:	5a                   	pop    %edx
    18ba:	59                   	pop    %ecx
    18bb:	5b                   	pop    %ebx
    18bc:	58                   	pop    %eax
    18bd:	5c                   	pop    %esp
    18be:	cf                   	iret   

00000000000018bf <__runtime_v86_idtstub153>:
    18bf:	54                   	push   %esp
    18c0:	50                   	push   %eax
    18c1:	53                   	push   %ebx
    18c2:	51                   	push   %ecx
    18c3:	52                   	push   %edx
    18c4:	56                   	push   %esi
    18c5:	57                   	push   %edi
    18c6:	55                   	push   %ebp
    18c7:	66 b8 1c 00          	mov    $0x1c,%ax
    18cb:	8e d8                	mov    %eax,%ds
    18cd:	89 e0                	mov    %esp,%eax
    18cf:	50                   	push   %eax
    18d0:	68 99 00 00 00       	push   $0x99
    18d5:	e8 39 1d 00 00       	call   3613 <v86_handleinterrupt>
    18da:	83 c4 08             	add    $0x8,%esp
    18dd:	5d                   	pop    %ebp
    18de:	5f                   	pop    %edi
    18df:	5e                   	pop    %esi
    18e0:	5a                   	pop    %edx
    18e1:	59                   	pop    %ecx
    18e2:	5b                   	pop    %ebx
    18e3:	58                   	pop    %eax
    18e4:	5c                   	pop    %esp
    18e5:	cf                   	iret   

00000000000018e6 <__runtime_v86_idtstub154>:
    18e6:	54                   	push   %esp
    18e7:	50                   	push   %eax
    18e8:	53                   	push   %ebx
    18e9:	51                   	push   %ecx
    18ea:	52                   	push   %edx
    18eb:	56                   	push   %esi
    18ec:	57                   	push   %edi
    18ed:	55                   	push   %ebp
    18ee:	66 b8 1c 00          	mov    $0x1c,%ax
    18f2:	8e d8                	mov    %eax,%ds
    18f4:	89 e0                	mov    %esp,%eax
    18f6:	50                   	push   %eax
    18f7:	68 9a 00 00 00       	push   $0x9a
    18fc:	e8 12 1d 00 00       	call   3613 <v86_handleinterrupt>
    1901:	83 c4 08             	add    $0x8,%esp
    1904:	5d                   	pop    %ebp
    1905:	5f                   	pop    %edi
    1906:	5e                   	pop    %esi
    1907:	5a                   	pop    %edx
    1908:	59                   	pop    %ecx
    1909:	5b                   	pop    %ebx
    190a:	58                   	pop    %eax
    190b:	5c                   	pop    %esp
    190c:	cf                   	iret   

000000000000190d <__runtime_v86_idtstub155>:
    190d:	54                   	push   %esp
    190e:	50                   	push   %eax
    190f:	53                   	push   %ebx
    1910:	51                   	push   %ecx
    1911:	52                   	push   %edx
    1912:	56                   	push   %esi
    1913:	57                   	push   %edi
    1914:	55                   	push   %ebp
    1915:	66 b8 1c 00          	mov    $0x1c,%ax
    1919:	8e d8                	mov    %eax,%ds
    191b:	89 e0                	mov    %esp,%eax
    191d:	50                   	push   %eax
    191e:	68 9b 00 00 00       	push   $0x9b
    1923:	e8 eb 1c 00 00       	call   3613 <v86_handleinterrupt>
    1928:	83 c4 08             	add    $0x8,%esp
    192b:	5d                   	pop    %ebp
    192c:	5f                   	pop    %edi
    192d:	5e                   	pop    %esi
    192e:	5a                   	pop    %edx
    192f:	59                   	pop    %ecx
    1930:	5b                   	pop    %ebx
    1931:	58                   	pop    %eax
    1932:	5c                   	pop    %esp
    1933:	cf                   	iret   

0000000000001934 <__runtime_v86_idtstub156>:
    1934:	54                   	push   %esp
    1935:	50                   	push   %eax
    1936:	53                   	push   %ebx
    1937:	51                   	push   %ecx
    1938:	52                   	push   %edx
    1939:	56                   	push   %esi
    193a:	57                   	push   %edi
    193b:	55                   	push   %ebp
    193c:	66 b8 1c 00          	mov    $0x1c,%ax
    1940:	8e d8                	mov    %eax,%ds
    1942:	89 e0                	mov    %esp,%eax
    1944:	50                   	push   %eax
    1945:	68 9c 00 00 00       	push   $0x9c
    194a:	e8 c4 1c 00 00       	call   3613 <v86_handleinterrupt>
    194f:	83 c4 08             	add    $0x8,%esp
    1952:	5d                   	pop    %ebp
    1953:	5f                   	pop    %edi
    1954:	5e                   	pop    %esi
    1955:	5a                   	pop    %edx
    1956:	59                   	pop    %ecx
    1957:	5b                   	pop    %ebx
    1958:	58                   	pop    %eax
    1959:	5c                   	pop    %esp
    195a:	cf                   	iret   

000000000000195b <__runtime_v86_idtstub157>:
    195b:	54                   	push   %esp
    195c:	50                   	push   %eax
    195d:	53                   	push   %ebx
    195e:	51                   	push   %ecx
    195f:	52                   	push   %edx
    1960:	56                   	push   %esi
    1961:	57                   	push   %edi
    1962:	55                   	push   %ebp
    1963:	66 b8 1c 00          	mov    $0x1c,%ax
    1967:	8e d8                	mov    %eax,%ds
    1969:	89 e0                	mov    %esp,%eax
    196b:	50                   	push   %eax
    196c:	68 9d 00 00 00       	push   $0x9d
    1971:	e8 9d 1c 00 00       	call   3613 <v86_handleinterrupt>
    1976:	83 c4 08             	add    $0x8,%esp
    1979:	5d                   	pop    %ebp
    197a:	5f                   	pop    %edi
    197b:	5e                   	pop    %esi
    197c:	5a                   	pop    %edx
    197d:	59                   	pop    %ecx
    197e:	5b                   	pop    %ebx
    197f:	58                   	pop    %eax
    1980:	5c                   	pop    %esp
    1981:	cf                   	iret   

0000000000001982 <__runtime_v86_idtstub158>:
    1982:	54                   	push   %esp
    1983:	50                   	push   %eax
    1984:	53                   	push   %ebx
    1985:	51                   	push   %ecx
    1986:	52                   	push   %edx
    1987:	56                   	push   %esi
    1988:	57                   	push   %edi
    1989:	55                   	push   %ebp
    198a:	66 b8 1c 00          	mov    $0x1c,%ax
    198e:	8e d8                	mov    %eax,%ds
    1990:	89 e0                	mov    %esp,%eax
    1992:	50                   	push   %eax
    1993:	68 9e 00 00 00       	push   $0x9e
    1998:	e8 76 1c 00 00       	call   3613 <v86_handleinterrupt>
    199d:	83 c4 08             	add    $0x8,%esp
    19a0:	5d                   	pop    %ebp
    19a1:	5f                   	pop    %edi
    19a2:	5e                   	pop    %esi
    19a3:	5a                   	pop    %edx
    19a4:	59                   	pop    %ecx
    19a5:	5b                   	pop    %ebx
    19a6:	58                   	pop    %eax
    19a7:	5c                   	pop    %esp
    19a8:	cf                   	iret   

00000000000019a9 <__runtime_v86_idtstub159>:
    19a9:	54                   	push   %esp
    19aa:	50                   	push   %eax
    19ab:	53                   	push   %ebx
    19ac:	51                   	push   %ecx
    19ad:	52                   	push   %edx
    19ae:	56                   	push   %esi
    19af:	57                   	push   %edi
    19b0:	55                   	push   %ebp
    19b1:	66 b8 1c 00          	mov    $0x1c,%ax
    19b5:	8e d8                	mov    %eax,%ds
    19b7:	89 e0                	mov    %esp,%eax
    19b9:	50                   	push   %eax
    19ba:	68 9f 00 00 00       	push   $0x9f
    19bf:	e8 4f 1c 00 00       	call   3613 <v86_handleinterrupt>
    19c4:	83 c4 08             	add    $0x8,%esp
    19c7:	5d                   	pop    %ebp
    19c8:	5f                   	pop    %edi
    19c9:	5e                   	pop    %esi
    19ca:	5a                   	pop    %edx
    19cb:	59                   	pop    %ecx
    19cc:	5b                   	pop    %ebx
    19cd:	58                   	pop    %eax
    19ce:	5c                   	pop    %esp
    19cf:	cf                   	iret   

00000000000019d0 <__runtime_v86_idtstub160>:
    19d0:	54                   	push   %esp
    19d1:	50                   	push   %eax
    19d2:	53                   	push   %ebx
    19d3:	51                   	push   %ecx
    19d4:	52                   	push   %edx
    19d5:	56                   	push   %esi
    19d6:	57                   	push   %edi
    19d7:	55                   	push   %ebp
    19d8:	66 b8 1c 00          	mov    $0x1c,%ax
    19dc:	8e d8                	mov    %eax,%ds
    19de:	89 e0                	mov    %esp,%eax
    19e0:	50                   	push   %eax
    19e1:	68 a0 00 00 00       	push   $0xa0
    19e6:	e8 28 1c 00 00       	call   3613 <v86_handleinterrupt>
    19eb:	83 c4 08             	add    $0x8,%esp
    19ee:	5d                   	pop    %ebp
    19ef:	5f                   	pop    %edi
    19f0:	5e                   	pop    %esi
    19f1:	5a                   	pop    %edx
    19f2:	59                   	pop    %ecx
    19f3:	5b                   	pop    %ebx
    19f4:	58                   	pop    %eax
    19f5:	5c                   	pop    %esp
    19f6:	cf                   	iret   

00000000000019f7 <__runtime_v86_idtstub161>:
    19f7:	54                   	push   %esp
    19f8:	50                   	push   %eax
    19f9:	53                   	push   %ebx
    19fa:	51                   	push   %ecx
    19fb:	52                   	push   %edx
    19fc:	56                   	push   %esi
    19fd:	57                   	push   %edi
    19fe:	55                   	push   %ebp
    19ff:	66 b8 1c 00          	mov    $0x1c,%ax
    1a03:	8e d8                	mov    %eax,%ds
    1a05:	89 e0                	mov    %esp,%eax
    1a07:	50                   	push   %eax
    1a08:	68 a1 00 00 00       	push   $0xa1
    1a0d:	e8 01 1c 00 00       	call   3613 <v86_handleinterrupt>
    1a12:	83 c4 08             	add    $0x8,%esp
    1a15:	5d                   	pop    %ebp
    1a16:	5f                   	pop    %edi
    1a17:	5e                   	pop    %esi
    1a18:	5a                   	pop    %edx
    1a19:	59                   	pop    %ecx
    1a1a:	5b                   	pop    %ebx
    1a1b:	58                   	pop    %eax
    1a1c:	5c                   	pop    %esp
    1a1d:	cf                   	iret   

0000000000001a1e <__runtime_v86_idtstub162>:
    1a1e:	54                   	push   %esp
    1a1f:	50                   	push   %eax
    1a20:	53                   	push   %ebx
    1a21:	51                   	push   %ecx
    1a22:	52                   	push   %edx
    1a23:	56                   	push   %esi
    1a24:	57                   	push   %edi
    1a25:	55                   	push   %ebp
    1a26:	66 b8 1c 00          	mov    $0x1c,%ax
    1a2a:	8e d8                	mov    %eax,%ds
    1a2c:	89 e0                	mov    %esp,%eax
    1a2e:	50                   	push   %eax
    1a2f:	68 a2 00 00 00       	push   $0xa2
    1a34:	e8 da 1b 00 00       	call   3613 <v86_handleinterrupt>
    1a39:	83 c4 08             	add    $0x8,%esp
    1a3c:	5d                   	pop    %ebp
    1a3d:	5f                   	pop    %edi
    1a3e:	5e                   	pop    %esi
    1a3f:	5a                   	pop    %edx
    1a40:	59                   	pop    %ecx
    1a41:	5b                   	pop    %ebx
    1a42:	58                   	pop    %eax
    1a43:	5c                   	pop    %esp
    1a44:	cf                   	iret   

0000000000001a45 <__runtime_v86_idtstub163>:
    1a45:	54                   	push   %esp
    1a46:	50                   	push   %eax
    1a47:	53                   	push   %ebx
    1a48:	51                   	push   %ecx
    1a49:	52                   	push   %edx
    1a4a:	56                   	push   %esi
    1a4b:	57                   	push   %edi
    1a4c:	55                   	push   %ebp
    1a4d:	66 b8 1c 00          	mov    $0x1c,%ax
    1a51:	8e d8                	mov    %eax,%ds
    1a53:	89 e0                	mov    %esp,%eax
    1a55:	50                   	push   %eax
    1a56:	68 a3 00 00 00       	push   $0xa3
    1a5b:	e8 b3 1b 00 00       	call   3613 <v86_handleinterrupt>
    1a60:	83 c4 08             	add    $0x8,%esp
    1a63:	5d                   	pop    %ebp
    1a64:	5f                   	pop    %edi
    1a65:	5e                   	pop    %esi
    1a66:	5a                   	pop    %edx
    1a67:	59                   	pop    %ecx
    1a68:	5b                   	pop    %ebx
    1a69:	58                   	pop    %eax
    1a6a:	5c                   	pop    %esp
    1a6b:	cf                   	iret   

0000000000001a6c <__runtime_v86_idtstub164>:
    1a6c:	54                   	push   %esp
    1a6d:	50                   	push   %eax
    1a6e:	53                   	push   %ebx
    1a6f:	51                   	push   %ecx
    1a70:	52                   	push   %edx
    1a71:	56                   	push   %esi
    1a72:	57                   	push   %edi
    1a73:	55                   	push   %ebp
    1a74:	66 b8 1c 00          	mov    $0x1c,%ax
    1a78:	8e d8                	mov    %eax,%ds
    1a7a:	89 e0                	mov    %esp,%eax
    1a7c:	50                   	push   %eax
    1a7d:	68 a4 00 00 00       	push   $0xa4
    1a82:	e8 8c 1b 00 00       	call   3613 <v86_handleinterrupt>
    1a87:	83 c4 08             	add    $0x8,%esp
    1a8a:	5d                   	pop    %ebp
    1a8b:	5f                   	pop    %edi
    1a8c:	5e                   	pop    %esi
    1a8d:	5a                   	pop    %edx
    1a8e:	59                   	pop    %ecx
    1a8f:	5b                   	pop    %ebx
    1a90:	58                   	pop    %eax
    1a91:	5c                   	pop    %esp
    1a92:	cf                   	iret   

0000000000001a93 <__runtime_v86_idtstub165>:
    1a93:	54                   	push   %esp
    1a94:	50                   	push   %eax
    1a95:	53                   	push   %ebx
    1a96:	51                   	push   %ecx
    1a97:	52                   	push   %edx
    1a98:	56                   	push   %esi
    1a99:	57                   	push   %edi
    1a9a:	55                   	push   %ebp
    1a9b:	66 b8 1c 00          	mov    $0x1c,%ax
    1a9f:	8e d8                	mov    %eax,%ds
    1aa1:	89 e0                	mov    %esp,%eax
    1aa3:	50                   	push   %eax
    1aa4:	68 a5 00 00 00       	push   $0xa5
    1aa9:	e8 65 1b 00 00       	call   3613 <v86_handleinterrupt>
    1aae:	83 c4 08             	add    $0x8,%esp
    1ab1:	5d                   	pop    %ebp
    1ab2:	5f                   	pop    %edi
    1ab3:	5e                   	pop    %esi
    1ab4:	5a                   	pop    %edx
    1ab5:	59                   	pop    %ecx
    1ab6:	5b                   	pop    %ebx
    1ab7:	58                   	pop    %eax
    1ab8:	5c                   	pop    %esp
    1ab9:	cf                   	iret   

0000000000001aba <__runtime_v86_idtstub166>:
    1aba:	54                   	push   %esp
    1abb:	50                   	push   %eax
    1abc:	53                   	push   %ebx
    1abd:	51                   	push   %ecx
    1abe:	52                   	push   %edx
    1abf:	56                   	push   %esi
    1ac0:	57                   	push   %edi
    1ac1:	55                   	push   %ebp
    1ac2:	66 b8 1c 00          	mov    $0x1c,%ax
    1ac6:	8e d8                	mov    %eax,%ds
    1ac8:	89 e0                	mov    %esp,%eax
    1aca:	50                   	push   %eax
    1acb:	68 a6 00 00 00       	push   $0xa6
    1ad0:	e8 3e 1b 00 00       	call   3613 <v86_handleinterrupt>
    1ad5:	83 c4 08             	add    $0x8,%esp
    1ad8:	5d                   	pop    %ebp
    1ad9:	5f                   	pop    %edi
    1ada:	5e                   	pop    %esi
    1adb:	5a                   	pop    %edx
    1adc:	59                   	pop    %ecx
    1add:	5b                   	pop    %ebx
    1ade:	58                   	pop    %eax
    1adf:	5c                   	pop    %esp
    1ae0:	cf                   	iret   

0000000000001ae1 <__runtime_v86_idtstub167>:
    1ae1:	54                   	push   %esp
    1ae2:	50                   	push   %eax
    1ae3:	53                   	push   %ebx
    1ae4:	51                   	push   %ecx
    1ae5:	52                   	push   %edx
    1ae6:	56                   	push   %esi
    1ae7:	57                   	push   %edi
    1ae8:	55                   	push   %ebp
    1ae9:	66 b8 1c 00          	mov    $0x1c,%ax
    1aed:	8e d8                	mov    %eax,%ds
    1aef:	89 e0                	mov    %esp,%eax
    1af1:	50                   	push   %eax
    1af2:	68 a7 00 00 00       	push   $0xa7
    1af7:	e8 17 1b 00 00       	call   3613 <v86_handleinterrupt>
    1afc:	83 c4 08             	add    $0x8,%esp
    1aff:	5d                   	pop    %ebp
    1b00:	5f                   	pop    %edi
    1b01:	5e                   	pop    %esi
    1b02:	5a                   	pop    %edx
    1b03:	59                   	pop    %ecx
    1b04:	5b                   	pop    %ebx
    1b05:	58                   	pop    %eax
    1b06:	5c                   	pop    %esp
    1b07:	cf                   	iret   

0000000000001b08 <__runtime_v86_idtstub168>:
    1b08:	54                   	push   %esp
    1b09:	50                   	push   %eax
    1b0a:	53                   	push   %ebx
    1b0b:	51                   	push   %ecx
    1b0c:	52                   	push   %edx
    1b0d:	56                   	push   %esi
    1b0e:	57                   	push   %edi
    1b0f:	55                   	push   %ebp
    1b10:	66 b8 1c 00          	mov    $0x1c,%ax
    1b14:	8e d8                	mov    %eax,%ds
    1b16:	89 e0                	mov    %esp,%eax
    1b18:	50                   	push   %eax
    1b19:	68 a8 00 00 00       	push   $0xa8
    1b1e:	e8 f0 1a 00 00       	call   3613 <v86_handleinterrupt>
    1b23:	83 c4 08             	add    $0x8,%esp
    1b26:	5d                   	pop    %ebp
    1b27:	5f                   	pop    %edi
    1b28:	5e                   	pop    %esi
    1b29:	5a                   	pop    %edx
    1b2a:	59                   	pop    %ecx
    1b2b:	5b                   	pop    %ebx
    1b2c:	58                   	pop    %eax
    1b2d:	5c                   	pop    %esp
    1b2e:	cf                   	iret   

0000000000001b2f <__runtime_v86_idtstub169>:
    1b2f:	54                   	push   %esp
    1b30:	50                   	push   %eax
    1b31:	53                   	push   %ebx
    1b32:	51                   	push   %ecx
    1b33:	52                   	push   %edx
    1b34:	56                   	push   %esi
    1b35:	57                   	push   %edi
    1b36:	55                   	push   %ebp
    1b37:	66 b8 1c 00          	mov    $0x1c,%ax
    1b3b:	8e d8                	mov    %eax,%ds
    1b3d:	89 e0                	mov    %esp,%eax
    1b3f:	50                   	push   %eax
    1b40:	68 a9 00 00 00       	push   $0xa9
    1b45:	e8 c9 1a 00 00       	call   3613 <v86_handleinterrupt>
    1b4a:	83 c4 08             	add    $0x8,%esp
    1b4d:	5d                   	pop    %ebp
    1b4e:	5f                   	pop    %edi
    1b4f:	5e                   	pop    %esi
    1b50:	5a                   	pop    %edx
    1b51:	59                   	pop    %ecx
    1b52:	5b                   	pop    %ebx
    1b53:	58                   	pop    %eax
    1b54:	5c                   	pop    %esp
    1b55:	cf                   	iret   

0000000000001b56 <__runtime_v86_idtstub170>:
    1b56:	54                   	push   %esp
    1b57:	50                   	push   %eax
    1b58:	53                   	push   %ebx
    1b59:	51                   	push   %ecx
    1b5a:	52                   	push   %edx
    1b5b:	56                   	push   %esi
    1b5c:	57                   	push   %edi
    1b5d:	55                   	push   %ebp
    1b5e:	66 b8 1c 00          	mov    $0x1c,%ax
    1b62:	8e d8                	mov    %eax,%ds
    1b64:	89 e0                	mov    %esp,%eax
    1b66:	50                   	push   %eax
    1b67:	68 aa 00 00 00       	push   $0xaa
    1b6c:	e8 a2 1a 00 00       	call   3613 <v86_handleinterrupt>
    1b71:	83 c4 08             	add    $0x8,%esp
    1b74:	5d                   	pop    %ebp
    1b75:	5f                   	pop    %edi
    1b76:	5e                   	pop    %esi
    1b77:	5a                   	pop    %edx
    1b78:	59                   	pop    %ecx
    1b79:	5b                   	pop    %ebx
    1b7a:	58                   	pop    %eax
    1b7b:	5c                   	pop    %esp
    1b7c:	cf                   	iret   

0000000000001b7d <__runtime_v86_idtstub171>:
    1b7d:	54                   	push   %esp
    1b7e:	50                   	push   %eax
    1b7f:	53                   	push   %ebx
    1b80:	51                   	push   %ecx
    1b81:	52                   	push   %edx
    1b82:	56                   	push   %esi
    1b83:	57                   	push   %edi
    1b84:	55                   	push   %ebp
    1b85:	66 b8 1c 00          	mov    $0x1c,%ax
    1b89:	8e d8                	mov    %eax,%ds
    1b8b:	89 e0                	mov    %esp,%eax
    1b8d:	50                   	push   %eax
    1b8e:	68 ab 00 00 00       	push   $0xab
    1b93:	e8 7b 1a 00 00       	call   3613 <v86_handleinterrupt>
    1b98:	83 c4 08             	add    $0x8,%esp
    1b9b:	5d                   	pop    %ebp
    1b9c:	5f                   	pop    %edi
    1b9d:	5e                   	pop    %esi
    1b9e:	5a                   	pop    %edx
    1b9f:	59                   	pop    %ecx
    1ba0:	5b                   	pop    %ebx
    1ba1:	58                   	pop    %eax
    1ba2:	5c                   	pop    %esp
    1ba3:	cf                   	iret   

0000000000001ba4 <__runtime_v86_idtstub172>:
    1ba4:	54                   	push   %esp
    1ba5:	50                   	push   %eax
    1ba6:	53                   	push   %ebx
    1ba7:	51                   	push   %ecx
    1ba8:	52                   	push   %edx
    1ba9:	56                   	push   %esi
    1baa:	57                   	push   %edi
    1bab:	55                   	push   %ebp
    1bac:	66 b8 1c 00          	mov    $0x1c,%ax
    1bb0:	8e d8                	mov    %eax,%ds
    1bb2:	89 e0                	mov    %esp,%eax
    1bb4:	50                   	push   %eax
    1bb5:	68 ac 00 00 00       	push   $0xac
    1bba:	e8 54 1a 00 00       	call   3613 <v86_handleinterrupt>
    1bbf:	83 c4 08             	add    $0x8,%esp
    1bc2:	5d                   	pop    %ebp
    1bc3:	5f                   	pop    %edi
    1bc4:	5e                   	pop    %esi
    1bc5:	5a                   	pop    %edx
    1bc6:	59                   	pop    %ecx
    1bc7:	5b                   	pop    %ebx
    1bc8:	58                   	pop    %eax
    1bc9:	5c                   	pop    %esp
    1bca:	cf                   	iret   

0000000000001bcb <__runtime_v86_idtstub173>:
    1bcb:	54                   	push   %esp
    1bcc:	50                   	push   %eax
    1bcd:	53                   	push   %ebx
    1bce:	51                   	push   %ecx
    1bcf:	52                   	push   %edx
    1bd0:	56                   	push   %esi
    1bd1:	57                   	push   %edi
    1bd2:	55                   	push   %ebp
    1bd3:	66 b8 1c 00          	mov    $0x1c,%ax
    1bd7:	8e d8                	mov    %eax,%ds
    1bd9:	89 e0                	mov    %esp,%eax
    1bdb:	50                   	push   %eax
    1bdc:	68 ad 00 00 00       	push   $0xad
    1be1:	e8 2d 1a 00 00       	call   3613 <v86_handleinterrupt>
    1be6:	83 c4 08             	add    $0x8,%esp
    1be9:	5d                   	pop    %ebp
    1bea:	5f                   	pop    %edi
    1beb:	5e                   	pop    %esi
    1bec:	5a                   	pop    %edx
    1bed:	59                   	pop    %ecx
    1bee:	5b                   	pop    %ebx
    1bef:	58                   	pop    %eax
    1bf0:	5c                   	pop    %esp
    1bf1:	cf                   	iret   

0000000000001bf2 <__runtime_v86_idtstub174>:
    1bf2:	54                   	push   %esp
    1bf3:	50                   	push   %eax
    1bf4:	53                   	push   %ebx
    1bf5:	51                   	push   %ecx
    1bf6:	52                   	push   %edx
    1bf7:	56                   	push   %esi
    1bf8:	57                   	push   %edi
    1bf9:	55                   	push   %ebp
    1bfa:	66 b8 1c 00          	mov    $0x1c,%ax
    1bfe:	8e d8                	mov    %eax,%ds
    1c00:	89 e0                	mov    %esp,%eax
    1c02:	50                   	push   %eax
    1c03:	68 ae 00 00 00       	push   $0xae
    1c08:	e8 06 1a 00 00       	call   3613 <v86_handleinterrupt>
    1c0d:	83 c4 08             	add    $0x8,%esp
    1c10:	5d                   	pop    %ebp
    1c11:	5f                   	pop    %edi
    1c12:	5e                   	pop    %esi
    1c13:	5a                   	pop    %edx
    1c14:	59                   	pop    %ecx
    1c15:	5b                   	pop    %ebx
    1c16:	58                   	pop    %eax
    1c17:	5c                   	pop    %esp
    1c18:	cf                   	iret   

0000000000001c19 <__runtime_v86_idtstub175>:
    1c19:	54                   	push   %esp
    1c1a:	50                   	push   %eax
    1c1b:	53                   	push   %ebx
    1c1c:	51                   	push   %ecx
    1c1d:	52                   	push   %edx
    1c1e:	56                   	push   %esi
    1c1f:	57                   	push   %edi
    1c20:	55                   	push   %ebp
    1c21:	66 b8 1c 00          	mov    $0x1c,%ax
    1c25:	8e d8                	mov    %eax,%ds
    1c27:	89 e0                	mov    %esp,%eax
    1c29:	50                   	push   %eax
    1c2a:	68 af 00 00 00       	push   $0xaf
    1c2f:	e8 df 19 00 00       	call   3613 <v86_handleinterrupt>
    1c34:	83 c4 08             	add    $0x8,%esp
    1c37:	5d                   	pop    %ebp
    1c38:	5f                   	pop    %edi
    1c39:	5e                   	pop    %esi
    1c3a:	5a                   	pop    %edx
    1c3b:	59                   	pop    %ecx
    1c3c:	5b                   	pop    %ebx
    1c3d:	58                   	pop    %eax
    1c3e:	5c                   	pop    %esp
    1c3f:	cf                   	iret   

0000000000001c40 <__runtime_v86_idtstub176>:
    1c40:	54                   	push   %esp
    1c41:	50                   	push   %eax
    1c42:	53                   	push   %ebx
    1c43:	51                   	push   %ecx
    1c44:	52                   	push   %edx
    1c45:	56                   	push   %esi
    1c46:	57                   	push   %edi
    1c47:	55                   	push   %ebp
    1c48:	66 b8 1c 00          	mov    $0x1c,%ax
    1c4c:	8e d8                	mov    %eax,%ds
    1c4e:	89 e0                	mov    %esp,%eax
    1c50:	50                   	push   %eax
    1c51:	68 b0 00 00 00       	push   $0xb0
    1c56:	e8 b8 19 00 00       	call   3613 <v86_handleinterrupt>
    1c5b:	83 c4 08             	add    $0x8,%esp
    1c5e:	5d                   	pop    %ebp
    1c5f:	5f                   	pop    %edi
    1c60:	5e                   	pop    %esi
    1c61:	5a                   	pop    %edx
    1c62:	59                   	pop    %ecx
    1c63:	5b                   	pop    %ebx
    1c64:	58                   	pop    %eax
    1c65:	5c                   	pop    %esp
    1c66:	cf                   	iret   

0000000000001c67 <__runtime_v86_idtstub177>:
    1c67:	54                   	push   %esp
    1c68:	50                   	push   %eax
    1c69:	53                   	push   %ebx
    1c6a:	51                   	push   %ecx
    1c6b:	52                   	push   %edx
    1c6c:	56                   	push   %esi
    1c6d:	57                   	push   %edi
    1c6e:	55                   	push   %ebp
    1c6f:	66 b8 1c 00          	mov    $0x1c,%ax
    1c73:	8e d8                	mov    %eax,%ds
    1c75:	89 e0                	mov    %esp,%eax
    1c77:	50                   	push   %eax
    1c78:	68 b1 00 00 00       	push   $0xb1
    1c7d:	e8 91 19 00 00       	call   3613 <v86_handleinterrupt>
    1c82:	83 c4 08             	add    $0x8,%esp
    1c85:	5d                   	pop    %ebp
    1c86:	5f                   	pop    %edi
    1c87:	5e                   	pop    %esi
    1c88:	5a                   	pop    %edx
    1c89:	59                   	pop    %ecx
    1c8a:	5b                   	pop    %ebx
    1c8b:	58                   	pop    %eax
    1c8c:	5c                   	pop    %esp
    1c8d:	cf                   	iret   

0000000000001c8e <__runtime_v86_idtstub178>:
    1c8e:	54                   	push   %esp
    1c8f:	50                   	push   %eax
    1c90:	53                   	push   %ebx
    1c91:	51                   	push   %ecx
    1c92:	52                   	push   %edx
    1c93:	56                   	push   %esi
    1c94:	57                   	push   %edi
    1c95:	55                   	push   %ebp
    1c96:	66 b8 1c 00          	mov    $0x1c,%ax
    1c9a:	8e d8                	mov    %eax,%ds
    1c9c:	89 e0                	mov    %esp,%eax
    1c9e:	50                   	push   %eax
    1c9f:	68 b2 00 00 00       	push   $0xb2
    1ca4:	e8 6a 19 00 00       	call   3613 <v86_handleinterrupt>
    1ca9:	83 c4 08             	add    $0x8,%esp
    1cac:	5d                   	pop    %ebp
    1cad:	5f                   	pop    %edi
    1cae:	5e                   	pop    %esi
    1caf:	5a                   	pop    %edx
    1cb0:	59                   	pop    %ecx
    1cb1:	5b                   	pop    %ebx
    1cb2:	58                   	pop    %eax
    1cb3:	5c                   	pop    %esp
    1cb4:	cf                   	iret   

0000000000001cb5 <__runtime_v86_idtstub179>:
    1cb5:	54                   	push   %esp
    1cb6:	50                   	push   %eax
    1cb7:	53                   	push   %ebx
    1cb8:	51                   	push   %ecx
    1cb9:	52                   	push   %edx
    1cba:	56                   	push   %esi
    1cbb:	57                   	push   %edi
    1cbc:	55                   	push   %ebp
    1cbd:	66 b8 1c 00          	mov    $0x1c,%ax
    1cc1:	8e d8                	mov    %eax,%ds
    1cc3:	89 e0                	mov    %esp,%eax
    1cc5:	50                   	push   %eax
    1cc6:	68 b3 00 00 00       	push   $0xb3
    1ccb:	e8 43 19 00 00       	call   3613 <v86_handleinterrupt>
    1cd0:	83 c4 08             	add    $0x8,%esp
    1cd3:	5d                   	pop    %ebp
    1cd4:	5f                   	pop    %edi
    1cd5:	5e                   	pop    %esi
    1cd6:	5a                   	pop    %edx
    1cd7:	59                   	pop    %ecx
    1cd8:	5b                   	pop    %ebx
    1cd9:	58                   	pop    %eax
    1cda:	5c                   	pop    %esp
    1cdb:	cf                   	iret   

0000000000001cdc <__runtime_v86_idtstub180>:
    1cdc:	54                   	push   %esp
    1cdd:	50                   	push   %eax
    1cde:	53                   	push   %ebx
    1cdf:	51                   	push   %ecx
    1ce0:	52                   	push   %edx
    1ce1:	56                   	push   %esi
    1ce2:	57                   	push   %edi
    1ce3:	55                   	push   %ebp
    1ce4:	66 b8 1c 00          	mov    $0x1c,%ax
    1ce8:	8e d8                	mov    %eax,%ds
    1cea:	89 e0                	mov    %esp,%eax
    1cec:	50                   	push   %eax
    1ced:	68 b4 00 00 00       	push   $0xb4
    1cf2:	e8 1c 19 00 00       	call   3613 <v86_handleinterrupt>
    1cf7:	83 c4 08             	add    $0x8,%esp
    1cfa:	5d                   	pop    %ebp
    1cfb:	5f                   	pop    %edi
    1cfc:	5e                   	pop    %esi
    1cfd:	5a                   	pop    %edx
    1cfe:	59                   	pop    %ecx
    1cff:	5b                   	pop    %ebx
    1d00:	58                   	pop    %eax
    1d01:	5c                   	pop    %esp
    1d02:	cf                   	iret   

0000000000001d03 <__runtime_v86_idtstub181>:
    1d03:	54                   	push   %esp
    1d04:	50                   	push   %eax
    1d05:	53                   	push   %ebx
    1d06:	51                   	push   %ecx
    1d07:	52                   	push   %edx
    1d08:	56                   	push   %esi
    1d09:	57                   	push   %edi
    1d0a:	55                   	push   %ebp
    1d0b:	66 b8 1c 00          	mov    $0x1c,%ax
    1d0f:	8e d8                	mov    %eax,%ds
    1d11:	89 e0                	mov    %esp,%eax
    1d13:	50                   	push   %eax
    1d14:	68 b5 00 00 00       	push   $0xb5
    1d19:	e8 f5 18 00 00       	call   3613 <v86_handleinterrupt>
    1d1e:	83 c4 08             	add    $0x8,%esp
    1d21:	5d                   	pop    %ebp
    1d22:	5f                   	pop    %edi
    1d23:	5e                   	pop    %esi
    1d24:	5a                   	pop    %edx
    1d25:	59                   	pop    %ecx
    1d26:	5b                   	pop    %ebx
    1d27:	58                   	pop    %eax
    1d28:	5c                   	pop    %esp
    1d29:	cf                   	iret   

0000000000001d2a <__runtime_v86_idtstub182>:
    1d2a:	54                   	push   %esp
    1d2b:	50                   	push   %eax
    1d2c:	53                   	push   %ebx
    1d2d:	51                   	push   %ecx
    1d2e:	52                   	push   %edx
    1d2f:	56                   	push   %esi
    1d30:	57                   	push   %edi
    1d31:	55                   	push   %ebp
    1d32:	66 b8 1c 00          	mov    $0x1c,%ax
    1d36:	8e d8                	mov    %eax,%ds
    1d38:	89 e0                	mov    %esp,%eax
    1d3a:	50                   	push   %eax
    1d3b:	68 b6 00 00 00       	push   $0xb6
    1d40:	e8 ce 18 00 00       	call   3613 <v86_handleinterrupt>
    1d45:	83 c4 08             	add    $0x8,%esp
    1d48:	5d                   	pop    %ebp
    1d49:	5f                   	pop    %edi
    1d4a:	5e                   	pop    %esi
    1d4b:	5a                   	pop    %edx
    1d4c:	59                   	pop    %ecx
    1d4d:	5b                   	pop    %ebx
    1d4e:	58                   	pop    %eax
    1d4f:	5c                   	pop    %esp
    1d50:	cf                   	iret   

0000000000001d51 <__runtime_v86_idtstub183>:
    1d51:	54                   	push   %esp
    1d52:	50                   	push   %eax
    1d53:	53                   	push   %ebx
    1d54:	51                   	push   %ecx
    1d55:	52                   	push   %edx
    1d56:	56                   	push   %esi
    1d57:	57                   	push   %edi
    1d58:	55                   	push   %ebp
    1d59:	66 b8 1c 00          	mov    $0x1c,%ax
    1d5d:	8e d8                	mov    %eax,%ds
    1d5f:	89 e0                	mov    %esp,%eax
    1d61:	50                   	push   %eax
    1d62:	68 b7 00 00 00       	push   $0xb7
    1d67:	e8 a7 18 00 00       	call   3613 <v86_handleinterrupt>
    1d6c:	83 c4 08             	add    $0x8,%esp
    1d6f:	5d                   	pop    %ebp
    1d70:	5f                   	pop    %edi
    1d71:	5e                   	pop    %esi
    1d72:	5a                   	pop    %edx
    1d73:	59                   	pop    %ecx
    1d74:	5b                   	pop    %ebx
    1d75:	58                   	pop    %eax
    1d76:	5c                   	pop    %esp
    1d77:	cf                   	iret   

0000000000001d78 <__runtime_v86_idtstub184>:
    1d78:	54                   	push   %esp
    1d79:	50                   	push   %eax
    1d7a:	53                   	push   %ebx
    1d7b:	51                   	push   %ecx
    1d7c:	52                   	push   %edx
    1d7d:	56                   	push   %esi
    1d7e:	57                   	push   %edi
    1d7f:	55                   	push   %ebp
    1d80:	66 b8 1c 00          	mov    $0x1c,%ax
    1d84:	8e d8                	mov    %eax,%ds
    1d86:	89 e0                	mov    %esp,%eax
    1d88:	50                   	push   %eax
    1d89:	68 b8 00 00 00       	push   $0xb8
    1d8e:	e8 80 18 00 00       	call   3613 <v86_handleinterrupt>
    1d93:	83 c4 08             	add    $0x8,%esp
    1d96:	5d                   	pop    %ebp
    1d97:	5f                   	pop    %edi
    1d98:	5e                   	pop    %esi
    1d99:	5a                   	pop    %edx
    1d9a:	59                   	pop    %ecx
    1d9b:	5b                   	pop    %ebx
    1d9c:	58                   	pop    %eax
    1d9d:	5c                   	pop    %esp
    1d9e:	cf                   	iret   

0000000000001d9f <__runtime_v86_idtstub185>:
    1d9f:	54                   	push   %esp
    1da0:	50                   	push   %eax
    1da1:	53                   	push   %ebx
    1da2:	51                   	push   %ecx
    1da3:	52                   	push   %edx
    1da4:	56                   	push   %esi
    1da5:	57                   	push   %edi
    1da6:	55                   	push   %ebp
    1da7:	66 b8 1c 00          	mov    $0x1c,%ax
    1dab:	8e d8                	mov    %eax,%ds
    1dad:	89 e0                	mov    %esp,%eax
    1daf:	50                   	push   %eax
    1db0:	68 b9 00 00 00       	push   $0xb9
    1db5:	e8 59 18 00 00       	call   3613 <v86_handleinterrupt>
    1dba:	83 c4 08             	add    $0x8,%esp
    1dbd:	5d                   	pop    %ebp
    1dbe:	5f                   	pop    %edi
    1dbf:	5e                   	pop    %esi
    1dc0:	5a                   	pop    %edx
    1dc1:	59                   	pop    %ecx
    1dc2:	5b                   	pop    %ebx
    1dc3:	58                   	pop    %eax
    1dc4:	5c                   	pop    %esp
    1dc5:	cf                   	iret   

0000000000001dc6 <__runtime_v86_idtstub186>:
    1dc6:	54                   	push   %esp
    1dc7:	50                   	push   %eax
    1dc8:	53                   	push   %ebx
    1dc9:	51                   	push   %ecx
    1dca:	52                   	push   %edx
    1dcb:	56                   	push   %esi
    1dcc:	57                   	push   %edi
    1dcd:	55                   	push   %ebp
    1dce:	66 b8 1c 00          	mov    $0x1c,%ax
    1dd2:	8e d8                	mov    %eax,%ds
    1dd4:	89 e0                	mov    %esp,%eax
    1dd6:	50                   	push   %eax
    1dd7:	68 ba 00 00 00       	push   $0xba
    1ddc:	e8 32 18 00 00       	call   3613 <v86_handleinterrupt>
    1de1:	83 c4 08             	add    $0x8,%esp
    1de4:	5d                   	pop    %ebp
    1de5:	5f                   	pop    %edi
    1de6:	5e                   	pop    %esi
    1de7:	5a                   	pop    %edx
    1de8:	59                   	pop    %ecx
    1de9:	5b                   	pop    %ebx
    1dea:	58                   	pop    %eax
    1deb:	5c                   	pop    %esp
    1dec:	cf                   	iret   

0000000000001ded <__runtime_v86_idtstub187>:
    1ded:	54                   	push   %esp
    1dee:	50                   	push   %eax
    1def:	53                   	push   %ebx
    1df0:	51                   	push   %ecx
    1df1:	52                   	push   %edx
    1df2:	56                   	push   %esi
    1df3:	57                   	push   %edi
    1df4:	55                   	push   %ebp
    1df5:	66 b8 1c 00          	mov    $0x1c,%ax
    1df9:	8e d8                	mov    %eax,%ds
    1dfb:	89 e0                	mov    %esp,%eax
    1dfd:	50                   	push   %eax
    1dfe:	68 bb 00 00 00       	push   $0xbb
    1e03:	e8 0b 18 00 00       	call   3613 <v86_handleinterrupt>
    1e08:	83 c4 08             	add    $0x8,%esp
    1e0b:	5d                   	pop    %ebp
    1e0c:	5f                   	pop    %edi
    1e0d:	5e                   	pop    %esi
    1e0e:	5a                   	pop    %edx
    1e0f:	59                   	pop    %ecx
    1e10:	5b                   	pop    %ebx
    1e11:	58                   	pop    %eax
    1e12:	5c                   	pop    %esp
    1e13:	cf                   	iret   

0000000000001e14 <__runtime_v86_idtstub188>:
    1e14:	54                   	push   %esp
    1e15:	50                   	push   %eax
    1e16:	53                   	push   %ebx
    1e17:	51                   	push   %ecx
    1e18:	52                   	push   %edx
    1e19:	56                   	push   %esi
    1e1a:	57                   	push   %edi
    1e1b:	55                   	push   %ebp
    1e1c:	66 b8 1c 00          	mov    $0x1c,%ax
    1e20:	8e d8                	mov    %eax,%ds
    1e22:	89 e0                	mov    %esp,%eax
    1e24:	50                   	push   %eax
    1e25:	68 bc 00 00 00       	push   $0xbc
    1e2a:	e8 e4 17 00 00       	call   3613 <v86_handleinterrupt>
    1e2f:	83 c4 08             	add    $0x8,%esp
    1e32:	5d                   	pop    %ebp
    1e33:	5f                   	pop    %edi
    1e34:	5e                   	pop    %esi
    1e35:	5a                   	pop    %edx
    1e36:	59                   	pop    %ecx
    1e37:	5b                   	pop    %ebx
    1e38:	58                   	pop    %eax
    1e39:	5c                   	pop    %esp
    1e3a:	cf                   	iret   

0000000000001e3b <__runtime_v86_idtstub189>:
    1e3b:	54                   	push   %esp
    1e3c:	50                   	push   %eax
    1e3d:	53                   	push   %ebx
    1e3e:	51                   	push   %ecx
    1e3f:	52                   	push   %edx
    1e40:	56                   	push   %esi
    1e41:	57                   	push   %edi
    1e42:	55                   	push   %ebp
    1e43:	66 b8 1c 00          	mov    $0x1c,%ax
    1e47:	8e d8                	mov    %eax,%ds
    1e49:	89 e0                	mov    %esp,%eax
    1e4b:	50                   	push   %eax
    1e4c:	68 bd 00 00 00       	push   $0xbd
    1e51:	e8 bd 17 00 00       	call   3613 <v86_handleinterrupt>
    1e56:	83 c4 08             	add    $0x8,%esp
    1e59:	5d                   	pop    %ebp
    1e5a:	5f                   	pop    %edi
    1e5b:	5e                   	pop    %esi
    1e5c:	5a                   	pop    %edx
    1e5d:	59                   	pop    %ecx
    1e5e:	5b                   	pop    %ebx
    1e5f:	58                   	pop    %eax
    1e60:	5c                   	pop    %esp
    1e61:	cf                   	iret   

0000000000001e62 <__runtime_v86_idtstub190>:
    1e62:	54                   	push   %esp
    1e63:	50                   	push   %eax
    1e64:	53                   	push   %ebx
    1e65:	51                   	push   %ecx
    1e66:	52                   	push   %edx
    1e67:	56                   	push   %esi
    1e68:	57                   	push   %edi
    1e69:	55                   	push   %ebp
    1e6a:	66 b8 1c 00          	mov    $0x1c,%ax
    1e6e:	8e d8                	mov    %eax,%ds
    1e70:	89 e0                	mov    %esp,%eax
    1e72:	50                   	push   %eax
    1e73:	68 be 00 00 00       	push   $0xbe
    1e78:	e8 96 17 00 00       	call   3613 <v86_handleinterrupt>
    1e7d:	83 c4 08             	add    $0x8,%esp
    1e80:	5d                   	pop    %ebp
    1e81:	5f                   	pop    %edi
    1e82:	5e                   	pop    %esi
    1e83:	5a                   	pop    %edx
    1e84:	59                   	pop    %ecx
    1e85:	5b                   	pop    %ebx
    1e86:	58                   	pop    %eax
    1e87:	5c                   	pop    %esp
    1e88:	cf                   	iret   

0000000000001e89 <__runtime_v86_idtstub191>:
    1e89:	54                   	push   %esp
    1e8a:	50                   	push   %eax
    1e8b:	53                   	push   %ebx
    1e8c:	51                   	push   %ecx
    1e8d:	52                   	push   %edx
    1e8e:	56                   	push   %esi
    1e8f:	57                   	push   %edi
    1e90:	55                   	push   %ebp
    1e91:	66 b8 1c 00          	mov    $0x1c,%ax
    1e95:	8e d8                	mov    %eax,%ds
    1e97:	89 e0                	mov    %esp,%eax
    1e99:	50                   	push   %eax
    1e9a:	68 bf 00 00 00       	push   $0xbf
    1e9f:	e8 6f 17 00 00       	call   3613 <v86_handleinterrupt>
    1ea4:	83 c4 08             	add    $0x8,%esp
    1ea7:	5d                   	pop    %ebp
    1ea8:	5f                   	pop    %edi
    1ea9:	5e                   	pop    %esi
    1eaa:	5a                   	pop    %edx
    1eab:	59                   	pop    %ecx
    1eac:	5b                   	pop    %ebx
    1ead:	58                   	pop    %eax
    1eae:	5c                   	pop    %esp
    1eaf:	cf                   	iret   

0000000000001eb0 <__runtime_v86_idtstub192>:
    1eb0:	54                   	push   %esp
    1eb1:	50                   	push   %eax
    1eb2:	53                   	push   %ebx
    1eb3:	51                   	push   %ecx
    1eb4:	52                   	push   %edx
    1eb5:	56                   	push   %esi
    1eb6:	57                   	push   %edi
    1eb7:	55                   	push   %ebp
    1eb8:	66 b8 1c 00          	mov    $0x1c,%ax
    1ebc:	8e d8                	mov    %eax,%ds
    1ebe:	89 e0                	mov    %esp,%eax
    1ec0:	50                   	push   %eax
    1ec1:	68 c0 00 00 00       	push   $0xc0
    1ec6:	e8 48 17 00 00       	call   3613 <v86_handleinterrupt>
    1ecb:	83 c4 08             	add    $0x8,%esp
    1ece:	5d                   	pop    %ebp
    1ecf:	5f                   	pop    %edi
    1ed0:	5e                   	pop    %esi
    1ed1:	5a                   	pop    %edx
    1ed2:	59                   	pop    %ecx
    1ed3:	5b                   	pop    %ebx
    1ed4:	58                   	pop    %eax
    1ed5:	5c                   	pop    %esp
    1ed6:	cf                   	iret   

0000000000001ed7 <__runtime_v86_idtstub193>:
    1ed7:	54                   	push   %esp
    1ed8:	50                   	push   %eax
    1ed9:	53                   	push   %ebx
    1eda:	51                   	push   %ecx
    1edb:	52                   	push   %edx
    1edc:	56                   	push   %esi
    1edd:	57                   	push   %edi
    1ede:	55                   	push   %ebp
    1edf:	66 b8 1c 00          	mov    $0x1c,%ax
    1ee3:	8e d8                	mov    %eax,%ds
    1ee5:	89 e0                	mov    %esp,%eax
    1ee7:	50                   	push   %eax
    1ee8:	68 c1 00 00 00       	push   $0xc1
    1eed:	e8 21 17 00 00       	call   3613 <v86_handleinterrupt>
    1ef2:	83 c4 08             	add    $0x8,%esp
    1ef5:	5d                   	pop    %ebp
    1ef6:	5f                   	pop    %edi
    1ef7:	5e                   	pop    %esi
    1ef8:	5a                   	pop    %edx
    1ef9:	59                   	pop    %ecx
    1efa:	5b                   	pop    %ebx
    1efb:	58                   	pop    %eax
    1efc:	5c                   	pop    %esp
    1efd:	cf                   	iret   

0000000000001efe <__runtime_v86_idtstub194>:
    1efe:	54                   	push   %esp
    1eff:	50                   	push   %eax
    1f00:	53                   	push   %ebx
    1f01:	51                   	push   %ecx
    1f02:	52                   	push   %edx
    1f03:	56                   	push   %esi
    1f04:	57                   	push   %edi
    1f05:	55                   	push   %ebp
    1f06:	66 b8 1c 00          	mov    $0x1c,%ax
    1f0a:	8e d8                	mov    %eax,%ds
    1f0c:	89 e0                	mov    %esp,%eax
    1f0e:	50                   	push   %eax
    1f0f:	68 c2 00 00 00       	push   $0xc2
    1f14:	e8 fa 16 00 00       	call   3613 <v86_handleinterrupt>
    1f19:	83 c4 08             	add    $0x8,%esp
    1f1c:	5d                   	pop    %ebp
    1f1d:	5f                   	pop    %edi
    1f1e:	5e                   	pop    %esi
    1f1f:	5a                   	pop    %edx
    1f20:	59                   	pop    %ecx
    1f21:	5b                   	pop    %ebx
    1f22:	58                   	pop    %eax
    1f23:	5c                   	pop    %esp
    1f24:	cf                   	iret   

0000000000001f25 <__runtime_v86_idtstub195>:
    1f25:	54                   	push   %esp
    1f26:	50                   	push   %eax
    1f27:	53                   	push   %ebx
    1f28:	51                   	push   %ecx
    1f29:	52                   	push   %edx
    1f2a:	56                   	push   %esi
    1f2b:	57                   	push   %edi
    1f2c:	55                   	push   %ebp
    1f2d:	66 b8 1c 00          	mov    $0x1c,%ax
    1f31:	8e d8                	mov    %eax,%ds
    1f33:	89 e0                	mov    %esp,%eax
    1f35:	50                   	push   %eax
    1f36:	68 c3 00 00 00       	push   $0xc3
    1f3b:	e8 d3 16 00 00       	call   3613 <v86_handleinterrupt>
    1f40:	83 c4 08             	add    $0x8,%esp
    1f43:	5d                   	pop    %ebp
    1f44:	5f                   	pop    %edi
    1f45:	5e                   	pop    %esi
    1f46:	5a                   	pop    %edx
    1f47:	59                   	pop    %ecx
    1f48:	5b                   	pop    %ebx
    1f49:	58                   	pop    %eax
    1f4a:	5c                   	pop    %esp
    1f4b:	cf                   	iret   

0000000000001f4c <__runtime_v86_idtstub196>:
    1f4c:	54                   	push   %esp
    1f4d:	50                   	push   %eax
    1f4e:	53                   	push   %ebx
    1f4f:	51                   	push   %ecx
    1f50:	52                   	push   %edx
    1f51:	56                   	push   %esi
    1f52:	57                   	push   %edi
    1f53:	55                   	push   %ebp
    1f54:	66 b8 1c 00          	mov    $0x1c,%ax
    1f58:	8e d8                	mov    %eax,%ds
    1f5a:	89 e0                	mov    %esp,%eax
    1f5c:	50                   	push   %eax
    1f5d:	68 c4 00 00 00       	push   $0xc4
    1f62:	e8 ac 16 00 00       	call   3613 <v86_handleinterrupt>
    1f67:	83 c4 08             	add    $0x8,%esp
    1f6a:	5d                   	pop    %ebp
    1f6b:	5f                   	pop    %edi
    1f6c:	5e                   	pop    %esi
    1f6d:	5a                   	pop    %edx
    1f6e:	59                   	pop    %ecx
    1f6f:	5b                   	pop    %ebx
    1f70:	58                   	pop    %eax
    1f71:	5c                   	pop    %esp
    1f72:	cf                   	iret   

0000000000001f73 <__runtime_v86_idtstub197>:
    1f73:	54                   	push   %esp
    1f74:	50                   	push   %eax
    1f75:	53                   	push   %ebx
    1f76:	51                   	push   %ecx
    1f77:	52                   	push   %edx
    1f78:	56                   	push   %esi
    1f79:	57                   	push   %edi
    1f7a:	55                   	push   %ebp
    1f7b:	66 b8 1c 00          	mov    $0x1c,%ax
    1f7f:	8e d8                	mov    %eax,%ds
    1f81:	89 e0                	mov    %esp,%eax
    1f83:	50                   	push   %eax
    1f84:	68 c5 00 00 00       	push   $0xc5
    1f89:	e8 85 16 00 00       	call   3613 <v86_handleinterrupt>
    1f8e:	83 c4 08             	add    $0x8,%esp
    1f91:	5d                   	pop    %ebp
    1f92:	5f                   	pop    %edi
    1f93:	5e                   	pop    %esi
    1f94:	5a                   	pop    %edx
    1f95:	59                   	pop    %ecx
    1f96:	5b                   	pop    %ebx
    1f97:	58                   	pop    %eax
    1f98:	5c                   	pop    %esp
    1f99:	cf                   	iret   

0000000000001f9a <__runtime_v86_idtstub198>:
    1f9a:	54                   	push   %esp
    1f9b:	50                   	push   %eax
    1f9c:	53                   	push   %ebx
    1f9d:	51                   	push   %ecx
    1f9e:	52                   	push   %edx
    1f9f:	56                   	push   %esi
    1fa0:	57                   	push   %edi
    1fa1:	55                   	push   %ebp
    1fa2:	66 b8 1c 00          	mov    $0x1c,%ax
    1fa6:	8e d8                	mov    %eax,%ds
    1fa8:	89 e0                	mov    %esp,%eax
    1faa:	50                   	push   %eax
    1fab:	68 c6 00 00 00       	push   $0xc6
    1fb0:	e8 5e 16 00 00       	call   3613 <v86_handleinterrupt>
    1fb5:	83 c4 08             	add    $0x8,%esp
    1fb8:	5d                   	pop    %ebp
    1fb9:	5f                   	pop    %edi
    1fba:	5e                   	pop    %esi
    1fbb:	5a                   	pop    %edx
    1fbc:	59                   	pop    %ecx
    1fbd:	5b                   	pop    %ebx
    1fbe:	58                   	pop    %eax
    1fbf:	5c                   	pop    %esp
    1fc0:	cf                   	iret   

0000000000001fc1 <__runtime_v86_idtstub199>:
    1fc1:	54                   	push   %esp
    1fc2:	50                   	push   %eax
    1fc3:	53                   	push   %ebx
    1fc4:	51                   	push   %ecx
    1fc5:	52                   	push   %edx
    1fc6:	56                   	push   %esi
    1fc7:	57                   	push   %edi
    1fc8:	55                   	push   %ebp
    1fc9:	66 b8 1c 00          	mov    $0x1c,%ax
    1fcd:	8e d8                	mov    %eax,%ds
    1fcf:	89 e0                	mov    %esp,%eax
    1fd1:	50                   	push   %eax
    1fd2:	68 c7 00 00 00       	push   $0xc7
    1fd7:	e8 37 16 00 00       	call   3613 <v86_handleinterrupt>
    1fdc:	83 c4 08             	add    $0x8,%esp
    1fdf:	5d                   	pop    %ebp
    1fe0:	5f                   	pop    %edi
    1fe1:	5e                   	pop    %esi
    1fe2:	5a                   	pop    %edx
    1fe3:	59                   	pop    %ecx
    1fe4:	5b                   	pop    %ebx
    1fe5:	58                   	pop    %eax
    1fe6:	5c                   	pop    %esp
    1fe7:	cf                   	iret   

0000000000001fe8 <__runtime_v86_idtstub200>:
    1fe8:	54                   	push   %esp
    1fe9:	50                   	push   %eax
    1fea:	53                   	push   %ebx
    1feb:	51                   	push   %ecx
    1fec:	52                   	push   %edx
    1fed:	56                   	push   %esi
    1fee:	57                   	push   %edi
    1fef:	55                   	push   %ebp
    1ff0:	66 b8 1c 00          	mov    $0x1c,%ax
    1ff4:	8e d8                	mov    %eax,%ds
    1ff6:	89 e0                	mov    %esp,%eax
    1ff8:	50                   	push   %eax
    1ff9:	68 c8 00 00 00       	push   $0xc8
    1ffe:	e8 10 16 00 00       	call   3613 <v86_handleinterrupt>
    2003:	83 c4 08             	add    $0x8,%esp
    2006:	5d                   	pop    %ebp
    2007:	5f                   	pop    %edi
    2008:	5e                   	pop    %esi
    2009:	5a                   	pop    %edx
    200a:	59                   	pop    %ecx
    200b:	5b                   	pop    %ebx
    200c:	58                   	pop    %eax
    200d:	5c                   	pop    %esp
    200e:	cf                   	iret   

000000000000200f <__runtime_v86_idtstub201>:
    200f:	54                   	push   %esp
    2010:	50                   	push   %eax
    2011:	53                   	push   %ebx
    2012:	51                   	push   %ecx
    2013:	52                   	push   %edx
    2014:	56                   	push   %esi
    2015:	57                   	push   %edi
    2016:	55                   	push   %ebp
    2017:	66 b8 1c 00          	mov    $0x1c,%ax
    201b:	8e d8                	mov    %eax,%ds
    201d:	89 e0                	mov    %esp,%eax
    201f:	50                   	push   %eax
    2020:	68 c9 00 00 00       	push   $0xc9
    2025:	e8 e9 15 00 00       	call   3613 <v86_handleinterrupt>
    202a:	83 c4 08             	add    $0x8,%esp
    202d:	5d                   	pop    %ebp
    202e:	5f                   	pop    %edi
    202f:	5e                   	pop    %esi
    2030:	5a                   	pop    %edx
    2031:	59                   	pop    %ecx
    2032:	5b                   	pop    %ebx
    2033:	58                   	pop    %eax
    2034:	5c                   	pop    %esp
    2035:	cf                   	iret   

0000000000002036 <__runtime_v86_idtstub202>:
    2036:	54                   	push   %esp
    2037:	50                   	push   %eax
    2038:	53                   	push   %ebx
    2039:	51                   	push   %ecx
    203a:	52                   	push   %edx
    203b:	56                   	push   %esi
    203c:	57                   	push   %edi
    203d:	55                   	push   %ebp
    203e:	66 b8 1c 00          	mov    $0x1c,%ax
    2042:	8e d8                	mov    %eax,%ds
    2044:	89 e0                	mov    %esp,%eax
    2046:	50                   	push   %eax
    2047:	68 ca 00 00 00       	push   $0xca
    204c:	e8 c2 15 00 00       	call   3613 <v86_handleinterrupt>
    2051:	83 c4 08             	add    $0x8,%esp
    2054:	5d                   	pop    %ebp
    2055:	5f                   	pop    %edi
    2056:	5e                   	pop    %esi
    2057:	5a                   	pop    %edx
    2058:	59                   	pop    %ecx
    2059:	5b                   	pop    %ebx
    205a:	58                   	pop    %eax
    205b:	5c                   	pop    %esp
    205c:	cf                   	iret   

000000000000205d <__runtime_v86_idtstub203>:
    205d:	54                   	push   %esp
    205e:	50                   	push   %eax
    205f:	53                   	push   %ebx
    2060:	51                   	push   %ecx
    2061:	52                   	push   %edx
    2062:	56                   	push   %esi
    2063:	57                   	push   %edi
    2064:	55                   	push   %ebp
    2065:	66 b8 1c 00          	mov    $0x1c,%ax
    2069:	8e d8                	mov    %eax,%ds
    206b:	89 e0                	mov    %esp,%eax
    206d:	50                   	push   %eax
    206e:	68 cb 00 00 00       	push   $0xcb
    2073:	e8 9b 15 00 00       	call   3613 <v86_handleinterrupt>
    2078:	83 c4 08             	add    $0x8,%esp
    207b:	5d                   	pop    %ebp
    207c:	5f                   	pop    %edi
    207d:	5e                   	pop    %esi
    207e:	5a                   	pop    %edx
    207f:	59                   	pop    %ecx
    2080:	5b                   	pop    %ebx
    2081:	58                   	pop    %eax
    2082:	5c                   	pop    %esp
    2083:	cf                   	iret   

0000000000002084 <__runtime_v86_idtstub204>:
    2084:	54                   	push   %esp
    2085:	50                   	push   %eax
    2086:	53                   	push   %ebx
    2087:	51                   	push   %ecx
    2088:	52                   	push   %edx
    2089:	56                   	push   %esi
    208a:	57                   	push   %edi
    208b:	55                   	push   %ebp
    208c:	66 b8 1c 00          	mov    $0x1c,%ax
    2090:	8e d8                	mov    %eax,%ds
    2092:	89 e0                	mov    %esp,%eax
    2094:	50                   	push   %eax
    2095:	68 cc 00 00 00       	push   $0xcc
    209a:	e8 74 15 00 00       	call   3613 <v86_handleinterrupt>
    209f:	83 c4 08             	add    $0x8,%esp
    20a2:	5d                   	pop    %ebp
    20a3:	5f                   	pop    %edi
    20a4:	5e                   	pop    %esi
    20a5:	5a                   	pop    %edx
    20a6:	59                   	pop    %ecx
    20a7:	5b                   	pop    %ebx
    20a8:	58                   	pop    %eax
    20a9:	5c                   	pop    %esp
    20aa:	cf                   	iret   

00000000000020ab <__runtime_v86_idtstub205>:
    20ab:	54                   	push   %esp
    20ac:	50                   	push   %eax
    20ad:	53                   	push   %ebx
    20ae:	51                   	push   %ecx
    20af:	52                   	push   %edx
    20b0:	56                   	push   %esi
    20b1:	57                   	push   %edi
    20b2:	55                   	push   %ebp
    20b3:	66 b8 1c 00          	mov    $0x1c,%ax
    20b7:	8e d8                	mov    %eax,%ds
    20b9:	89 e0                	mov    %esp,%eax
    20bb:	50                   	push   %eax
    20bc:	68 cd 00 00 00       	push   $0xcd
    20c1:	e8 4d 15 00 00       	call   3613 <v86_handleinterrupt>
    20c6:	83 c4 08             	add    $0x8,%esp
    20c9:	5d                   	pop    %ebp
    20ca:	5f                   	pop    %edi
    20cb:	5e                   	pop    %esi
    20cc:	5a                   	pop    %edx
    20cd:	59                   	pop    %ecx
    20ce:	5b                   	pop    %ebx
    20cf:	58                   	pop    %eax
    20d0:	5c                   	pop    %esp
    20d1:	cf                   	iret   

00000000000020d2 <__runtime_v86_idtstub206>:
    20d2:	54                   	push   %esp
    20d3:	50                   	push   %eax
    20d4:	53                   	push   %ebx
    20d5:	51                   	push   %ecx
    20d6:	52                   	push   %edx
    20d7:	56                   	push   %esi
    20d8:	57                   	push   %edi
    20d9:	55                   	push   %ebp
    20da:	66 b8 1c 00          	mov    $0x1c,%ax
    20de:	8e d8                	mov    %eax,%ds
    20e0:	89 e0                	mov    %esp,%eax
    20e2:	50                   	push   %eax
    20e3:	68 ce 00 00 00       	push   $0xce
    20e8:	e8 26 15 00 00       	call   3613 <v86_handleinterrupt>
    20ed:	83 c4 08             	add    $0x8,%esp
    20f0:	5d                   	pop    %ebp
    20f1:	5f                   	pop    %edi
    20f2:	5e                   	pop    %esi
    20f3:	5a                   	pop    %edx
    20f4:	59                   	pop    %ecx
    20f5:	5b                   	pop    %ebx
    20f6:	58                   	pop    %eax
    20f7:	5c                   	pop    %esp
    20f8:	cf                   	iret   

00000000000020f9 <__runtime_v86_idtstub207>:
    20f9:	54                   	push   %esp
    20fa:	50                   	push   %eax
    20fb:	53                   	push   %ebx
    20fc:	51                   	push   %ecx
    20fd:	52                   	push   %edx
    20fe:	56                   	push   %esi
    20ff:	57                   	push   %edi
    2100:	55                   	push   %ebp
    2101:	66 b8 1c 00          	mov    $0x1c,%ax
    2105:	8e d8                	mov    %eax,%ds
    2107:	89 e0                	mov    %esp,%eax
    2109:	50                   	push   %eax
    210a:	68 cf 00 00 00       	push   $0xcf
    210f:	e8 ff 14 00 00       	call   3613 <v86_handleinterrupt>
    2114:	83 c4 08             	add    $0x8,%esp
    2117:	5d                   	pop    %ebp
    2118:	5f                   	pop    %edi
    2119:	5e                   	pop    %esi
    211a:	5a                   	pop    %edx
    211b:	59                   	pop    %ecx
    211c:	5b                   	pop    %ebx
    211d:	58                   	pop    %eax
    211e:	5c                   	pop    %esp
    211f:	cf                   	iret   

0000000000002120 <__runtime_v86_idtstub208>:
    2120:	54                   	push   %esp
    2121:	50                   	push   %eax
    2122:	53                   	push   %ebx
    2123:	51                   	push   %ecx
    2124:	52                   	push   %edx
    2125:	56                   	push   %esi
    2126:	57                   	push   %edi
    2127:	55                   	push   %ebp
    2128:	66 b8 1c 00          	mov    $0x1c,%ax
    212c:	8e d8                	mov    %eax,%ds
    212e:	89 e0                	mov    %esp,%eax
    2130:	50                   	push   %eax
    2131:	68 d0 00 00 00       	push   $0xd0
    2136:	e8 d8 14 00 00       	call   3613 <v86_handleinterrupt>
    213b:	83 c4 08             	add    $0x8,%esp
    213e:	5d                   	pop    %ebp
    213f:	5f                   	pop    %edi
    2140:	5e                   	pop    %esi
    2141:	5a                   	pop    %edx
    2142:	59                   	pop    %ecx
    2143:	5b                   	pop    %ebx
    2144:	58                   	pop    %eax
    2145:	5c                   	pop    %esp
    2146:	cf                   	iret   

0000000000002147 <__runtime_v86_idtstub209>:
    2147:	54                   	push   %esp
    2148:	50                   	push   %eax
    2149:	53                   	push   %ebx
    214a:	51                   	push   %ecx
    214b:	52                   	push   %edx
    214c:	56                   	push   %esi
    214d:	57                   	push   %edi
    214e:	55                   	push   %ebp
    214f:	66 b8 1c 00          	mov    $0x1c,%ax
    2153:	8e d8                	mov    %eax,%ds
    2155:	89 e0                	mov    %esp,%eax
    2157:	50                   	push   %eax
    2158:	68 d1 00 00 00       	push   $0xd1
    215d:	e8 b1 14 00 00       	call   3613 <v86_handleinterrupt>
    2162:	83 c4 08             	add    $0x8,%esp
    2165:	5d                   	pop    %ebp
    2166:	5f                   	pop    %edi
    2167:	5e                   	pop    %esi
    2168:	5a                   	pop    %edx
    2169:	59                   	pop    %ecx
    216a:	5b                   	pop    %ebx
    216b:	58                   	pop    %eax
    216c:	5c                   	pop    %esp
    216d:	cf                   	iret   

000000000000216e <__runtime_v86_idtstub210>:
    216e:	54                   	push   %esp
    216f:	50                   	push   %eax
    2170:	53                   	push   %ebx
    2171:	51                   	push   %ecx
    2172:	52                   	push   %edx
    2173:	56                   	push   %esi
    2174:	57                   	push   %edi
    2175:	55                   	push   %ebp
    2176:	66 b8 1c 00          	mov    $0x1c,%ax
    217a:	8e d8                	mov    %eax,%ds
    217c:	89 e0                	mov    %esp,%eax
    217e:	50                   	push   %eax
    217f:	68 d2 00 00 00       	push   $0xd2
    2184:	e8 8a 14 00 00       	call   3613 <v86_handleinterrupt>
    2189:	83 c4 08             	add    $0x8,%esp
    218c:	5d                   	pop    %ebp
    218d:	5f                   	pop    %edi
    218e:	5e                   	pop    %esi
    218f:	5a                   	pop    %edx
    2190:	59                   	pop    %ecx
    2191:	5b                   	pop    %ebx
    2192:	58                   	pop    %eax
    2193:	5c                   	pop    %esp
    2194:	cf                   	iret   

0000000000002195 <__runtime_v86_idtstub211>:
    2195:	54                   	push   %esp
    2196:	50                   	push   %eax
    2197:	53                   	push   %ebx
    2198:	51                   	push   %ecx
    2199:	52                   	push   %edx
    219a:	56                   	push   %esi
    219b:	57                   	push   %edi
    219c:	55                   	push   %ebp
    219d:	66 b8 1c 00          	mov    $0x1c,%ax
    21a1:	8e d8                	mov    %eax,%ds
    21a3:	89 e0                	mov    %esp,%eax
    21a5:	50                   	push   %eax
    21a6:	68 d3 00 00 00       	push   $0xd3
    21ab:	e8 63 14 00 00       	call   3613 <v86_handleinterrupt>
    21b0:	83 c4 08             	add    $0x8,%esp
    21b3:	5d                   	pop    %ebp
    21b4:	5f                   	pop    %edi
    21b5:	5e                   	pop    %esi
    21b6:	5a                   	pop    %edx
    21b7:	59                   	pop    %ecx
    21b8:	5b                   	pop    %ebx
    21b9:	58                   	pop    %eax
    21ba:	5c                   	pop    %esp
    21bb:	cf                   	iret   

00000000000021bc <__runtime_v86_idtstub212>:
    21bc:	54                   	push   %esp
    21bd:	50                   	push   %eax
    21be:	53                   	push   %ebx
    21bf:	51                   	push   %ecx
    21c0:	52                   	push   %edx
    21c1:	56                   	push   %esi
    21c2:	57                   	push   %edi
    21c3:	55                   	push   %ebp
    21c4:	66 b8 1c 00          	mov    $0x1c,%ax
    21c8:	8e d8                	mov    %eax,%ds
    21ca:	89 e0                	mov    %esp,%eax
    21cc:	50                   	push   %eax
    21cd:	68 d4 00 00 00       	push   $0xd4
    21d2:	e8 3c 14 00 00       	call   3613 <v86_handleinterrupt>
    21d7:	83 c4 08             	add    $0x8,%esp
    21da:	5d                   	pop    %ebp
    21db:	5f                   	pop    %edi
    21dc:	5e                   	pop    %esi
    21dd:	5a                   	pop    %edx
    21de:	59                   	pop    %ecx
    21df:	5b                   	pop    %ebx
    21e0:	58                   	pop    %eax
    21e1:	5c                   	pop    %esp
    21e2:	cf                   	iret   

00000000000021e3 <__runtime_v86_idtstub213>:
    21e3:	54                   	push   %esp
    21e4:	50                   	push   %eax
    21e5:	53                   	push   %ebx
    21e6:	51                   	push   %ecx
    21e7:	52                   	push   %edx
    21e8:	56                   	push   %esi
    21e9:	57                   	push   %edi
    21ea:	55                   	push   %ebp
    21eb:	66 b8 1c 00          	mov    $0x1c,%ax
    21ef:	8e d8                	mov    %eax,%ds
    21f1:	89 e0                	mov    %esp,%eax
    21f3:	50                   	push   %eax
    21f4:	68 d5 00 00 00       	push   $0xd5
    21f9:	e8 15 14 00 00       	call   3613 <v86_handleinterrupt>
    21fe:	83 c4 08             	add    $0x8,%esp
    2201:	5d                   	pop    %ebp
    2202:	5f                   	pop    %edi
    2203:	5e                   	pop    %esi
    2204:	5a                   	pop    %edx
    2205:	59                   	pop    %ecx
    2206:	5b                   	pop    %ebx
    2207:	58                   	pop    %eax
    2208:	5c                   	pop    %esp
    2209:	cf                   	iret   

000000000000220a <__runtime_v86_idtstub214>:
    220a:	54                   	push   %esp
    220b:	50                   	push   %eax
    220c:	53                   	push   %ebx
    220d:	51                   	push   %ecx
    220e:	52                   	push   %edx
    220f:	56                   	push   %esi
    2210:	57                   	push   %edi
    2211:	55                   	push   %ebp
    2212:	66 b8 1c 00          	mov    $0x1c,%ax
    2216:	8e d8                	mov    %eax,%ds
    2218:	89 e0                	mov    %esp,%eax
    221a:	50                   	push   %eax
    221b:	68 d6 00 00 00       	push   $0xd6
    2220:	e8 ee 13 00 00       	call   3613 <v86_handleinterrupt>
    2225:	83 c4 08             	add    $0x8,%esp
    2228:	5d                   	pop    %ebp
    2229:	5f                   	pop    %edi
    222a:	5e                   	pop    %esi
    222b:	5a                   	pop    %edx
    222c:	59                   	pop    %ecx
    222d:	5b                   	pop    %ebx
    222e:	58                   	pop    %eax
    222f:	5c                   	pop    %esp
    2230:	cf                   	iret   

0000000000002231 <__runtime_v86_idtstub215>:
    2231:	54                   	push   %esp
    2232:	50                   	push   %eax
    2233:	53                   	push   %ebx
    2234:	51                   	push   %ecx
    2235:	52                   	push   %edx
    2236:	56                   	push   %esi
    2237:	57                   	push   %edi
    2238:	55                   	push   %ebp
    2239:	66 b8 1c 00          	mov    $0x1c,%ax
    223d:	8e d8                	mov    %eax,%ds
    223f:	89 e0                	mov    %esp,%eax
    2241:	50                   	push   %eax
    2242:	68 d7 00 00 00       	push   $0xd7
    2247:	e8 c7 13 00 00       	call   3613 <v86_handleinterrupt>
    224c:	83 c4 08             	add    $0x8,%esp
    224f:	5d                   	pop    %ebp
    2250:	5f                   	pop    %edi
    2251:	5e                   	pop    %esi
    2252:	5a                   	pop    %edx
    2253:	59                   	pop    %ecx
    2254:	5b                   	pop    %ebx
    2255:	58                   	pop    %eax
    2256:	5c                   	pop    %esp
    2257:	cf                   	iret   

0000000000002258 <__runtime_v86_idtstub216>:
    2258:	54                   	push   %esp
    2259:	50                   	push   %eax
    225a:	53                   	push   %ebx
    225b:	51                   	push   %ecx
    225c:	52                   	push   %edx
    225d:	56                   	push   %esi
    225e:	57                   	push   %edi
    225f:	55                   	push   %ebp
    2260:	66 b8 1c 00          	mov    $0x1c,%ax
    2264:	8e d8                	mov    %eax,%ds
    2266:	89 e0                	mov    %esp,%eax
    2268:	50                   	push   %eax
    2269:	68 d8 00 00 00       	push   $0xd8
    226e:	e8 a0 13 00 00       	call   3613 <v86_handleinterrupt>
    2273:	83 c4 08             	add    $0x8,%esp
    2276:	5d                   	pop    %ebp
    2277:	5f                   	pop    %edi
    2278:	5e                   	pop    %esi
    2279:	5a                   	pop    %edx
    227a:	59                   	pop    %ecx
    227b:	5b                   	pop    %ebx
    227c:	58                   	pop    %eax
    227d:	5c                   	pop    %esp
    227e:	cf                   	iret   

000000000000227f <__runtime_v86_idtstub217>:
    227f:	54                   	push   %esp
    2280:	50                   	push   %eax
    2281:	53                   	push   %ebx
    2282:	51                   	push   %ecx
    2283:	52                   	push   %edx
    2284:	56                   	push   %esi
    2285:	57                   	push   %edi
    2286:	55                   	push   %ebp
    2287:	66 b8 1c 00          	mov    $0x1c,%ax
    228b:	8e d8                	mov    %eax,%ds
    228d:	89 e0                	mov    %esp,%eax
    228f:	50                   	push   %eax
    2290:	68 d9 00 00 00       	push   $0xd9
    2295:	e8 79 13 00 00       	call   3613 <v86_handleinterrupt>
    229a:	83 c4 08             	add    $0x8,%esp
    229d:	5d                   	pop    %ebp
    229e:	5f                   	pop    %edi
    229f:	5e                   	pop    %esi
    22a0:	5a                   	pop    %edx
    22a1:	59                   	pop    %ecx
    22a2:	5b                   	pop    %ebx
    22a3:	58                   	pop    %eax
    22a4:	5c                   	pop    %esp
    22a5:	cf                   	iret   

00000000000022a6 <__runtime_v86_idtstub218>:
    22a6:	54                   	push   %esp
    22a7:	50                   	push   %eax
    22a8:	53                   	push   %ebx
    22a9:	51                   	push   %ecx
    22aa:	52                   	push   %edx
    22ab:	56                   	push   %esi
    22ac:	57                   	push   %edi
    22ad:	55                   	push   %ebp
    22ae:	66 b8 1c 00          	mov    $0x1c,%ax
    22b2:	8e d8                	mov    %eax,%ds
    22b4:	89 e0                	mov    %esp,%eax
    22b6:	50                   	push   %eax
    22b7:	68 da 00 00 00       	push   $0xda
    22bc:	e8 52 13 00 00       	call   3613 <v86_handleinterrupt>
    22c1:	83 c4 08             	add    $0x8,%esp
    22c4:	5d                   	pop    %ebp
    22c5:	5f                   	pop    %edi
    22c6:	5e                   	pop    %esi
    22c7:	5a                   	pop    %edx
    22c8:	59                   	pop    %ecx
    22c9:	5b                   	pop    %ebx
    22ca:	58                   	pop    %eax
    22cb:	5c                   	pop    %esp
    22cc:	cf                   	iret   

00000000000022cd <__runtime_v86_idtstub219>:
    22cd:	54                   	push   %esp
    22ce:	50                   	push   %eax
    22cf:	53                   	push   %ebx
    22d0:	51                   	push   %ecx
    22d1:	52                   	push   %edx
    22d2:	56                   	push   %esi
    22d3:	57                   	push   %edi
    22d4:	55                   	push   %ebp
    22d5:	66 b8 1c 00          	mov    $0x1c,%ax
    22d9:	8e d8                	mov    %eax,%ds
    22db:	89 e0                	mov    %esp,%eax
    22dd:	50                   	push   %eax
    22de:	68 db 00 00 00       	push   $0xdb
    22e3:	e8 2b 13 00 00       	call   3613 <v86_handleinterrupt>
    22e8:	83 c4 08             	add    $0x8,%esp
    22eb:	5d                   	pop    %ebp
    22ec:	5f                   	pop    %edi
    22ed:	5e                   	pop    %esi
    22ee:	5a                   	pop    %edx
    22ef:	59                   	pop    %ecx
    22f0:	5b                   	pop    %ebx
    22f1:	58                   	pop    %eax
    22f2:	5c                   	pop    %esp
    22f3:	cf                   	iret   

00000000000022f4 <__runtime_v86_idtstub220>:
    22f4:	54                   	push   %esp
    22f5:	50                   	push   %eax
    22f6:	53                   	push   %ebx
    22f7:	51                   	push   %ecx
    22f8:	52                   	push   %edx
    22f9:	56                   	push   %esi
    22fa:	57                   	push   %edi
    22fb:	55                   	push   %ebp
    22fc:	66 b8 1c 00          	mov    $0x1c,%ax
    2300:	8e d8                	mov    %eax,%ds
    2302:	89 e0                	mov    %esp,%eax
    2304:	50                   	push   %eax
    2305:	68 dc 00 00 00       	push   $0xdc
    230a:	e8 04 13 00 00       	call   3613 <v86_handleinterrupt>
    230f:	83 c4 08             	add    $0x8,%esp
    2312:	5d                   	pop    %ebp
    2313:	5f                   	pop    %edi
    2314:	5e                   	pop    %esi
    2315:	5a                   	pop    %edx
    2316:	59                   	pop    %ecx
    2317:	5b                   	pop    %ebx
    2318:	58                   	pop    %eax
    2319:	5c                   	pop    %esp
    231a:	cf                   	iret   

000000000000231b <__runtime_v86_idtstub221>:
    231b:	54                   	push   %esp
    231c:	50                   	push   %eax
    231d:	53                   	push   %ebx
    231e:	51                   	push   %ecx
    231f:	52                   	push   %edx
    2320:	56                   	push   %esi
    2321:	57                   	push   %edi
    2322:	55                   	push   %ebp
    2323:	66 b8 1c 00          	mov    $0x1c,%ax
    2327:	8e d8                	mov    %eax,%ds
    2329:	89 e0                	mov    %esp,%eax
    232b:	50                   	push   %eax
    232c:	68 dd 00 00 00       	push   $0xdd
    2331:	e8 dd 12 00 00       	call   3613 <v86_handleinterrupt>
    2336:	83 c4 08             	add    $0x8,%esp
    2339:	5d                   	pop    %ebp
    233a:	5f                   	pop    %edi
    233b:	5e                   	pop    %esi
    233c:	5a                   	pop    %edx
    233d:	59                   	pop    %ecx
    233e:	5b                   	pop    %ebx
    233f:	58                   	pop    %eax
    2340:	5c                   	pop    %esp
    2341:	cf                   	iret   

0000000000002342 <__runtime_v86_idtstub222>:
    2342:	54                   	push   %esp
    2343:	50                   	push   %eax
    2344:	53                   	push   %ebx
    2345:	51                   	push   %ecx
    2346:	52                   	push   %edx
    2347:	56                   	push   %esi
    2348:	57                   	push   %edi
    2349:	55                   	push   %ebp
    234a:	66 b8 1c 00          	mov    $0x1c,%ax
    234e:	8e d8                	mov    %eax,%ds
    2350:	89 e0                	mov    %esp,%eax
    2352:	50                   	push   %eax
    2353:	68 de 00 00 00       	push   $0xde
    2358:	e8 b6 12 00 00       	call   3613 <v86_handleinterrupt>
    235d:	83 c4 08             	add    $0x8,%esp
    2360:	5d                   	pop    %ebp
    2361:	5f                   	pop    %edi
    2362:	5e                   	pop    %esi
    2363:	5a                   	pop    %edx
    2364:	59                   	pop    %ecx
    2365:	5b                   	pop    %ebx
    2366:	58                   	pop    %eax
    2367:	5c                   	pop    %esp
    2368:	cf                   	iret   

0000000000002369 <__runtime_v86_idtstub223>:
    2369:	54                   	push   %esp
    236a:	50                   	push   %eax
    236b:	53                   	push   %ebx
    236c:	51                   	push   %ecx
    236d:	52                   	push   %edx
    236e:	56                   	push   %esi
    236f:	57                   	push   %edi
    2370:	55                   	push   %ebp
    2371:	66 b8 1c 00          	mov    $0x1c,%ax
    2375:	8e d8                	mov    %eax,%ds
    2377:	89 e0                	mov    %esp,%eax
    2379:	50                   	push   %eax
    237a:	68 df 00 00 00       	push   $0xdf
    237f:	e8 8f 12 00 00       	call   3613 <v86_handleinterrupt>
    2384:	83 c4 08             	add    $0x8,%esp
    2387:	5d                   	pop    %ebp
    2388:	5f                   	pop    %edi
    2389:	5e                   	pop    %esi
    238a:	5a                   	pop    %edx
    238b:	59                   	pop    %ecx
    238c:	5b                   	pop    %ebx
    238d:	58                   	pop    %eax
    238e:	5c                   	pop    %esp
    238f:	cf                   	iret   

0000000000002390 <__runtime_v86_idtstub224>:
    2390:	54                   	push   %esp
    2391:	50                   	push   %eax
    2392:	53                   	push   %ebx
    2393:	51                   	push   %ecx
    2394:	52                   	push   %edx
    2395:	56                   	push   %esi
    2396:	57                   	push   %edi
    2397:	55                   	push   %ebp
    2398:	66 b8 1c 00          	mov    $0x1c,%ax
    239c:	8e d8                	mov    %eax,%ds
    239e:	89 e0                	mov    %esp,%eax
    23a0:	50                   	push   %eax
    23a1:	68 e0 00 00 00       	push   $0xe0
    23a6:	e8 68 12 00 00       	call   3613 <v86_handleinterrupt>
    23ab:	83 c4 08             	add    $0x8,%esp
    23ae:	5d                   	pop    %ebp
    23af:	5f                   	pop    %edi
    23b0:	5e                   	pop    %esi
    23b1:	5a                   	pop    %edx
    23b2:	59                   	pop    %ecx
    23b3:	5b                   	pop    %ebx
    23b4:	58                   	pop    %eax
    23b5:	5c                   	pop    %esp
    23b6:	cf                   	iret   

00000000000023b7 <__runtime_v86_idtstub225>:
    23b7:	54                   	push   %esp
    23b8:	50                   	push   %eax
    23b9:	53                   	push   %ebx
    23ba:	51                   	push   %ecx
    23bb:	52                   	push   %edx
    23bc:	56                   	push   %esi
    23bd:	57                   	push   %edi
    23be:	55                   	push   %ebp
    23bf:	66 b8 1c 00          	mov    $0x1c,%ax
    23c3:	8e d8                	mov    %eax,%ds
    23c5:	89 e0                	mov    %esp,%eax
    23c7:	50                   	push   %eax
    23c8:	68 e1 00 00 00       	push   $0xe1
    23cd:	e8 41 12 00 00       	call   3613 <v86_handleinterrupt>
    23d2:	83 c4 08             	add    $0x8,%esp
    23d5:	5d                   	pop    %ebp
    23d6:	5f                   	pop    %edi
    23d7:	5e                   	pop    %esi
    23d8:	5a                   	pop    %edx
    23d9:	59                   	pop    %ecx
    23da:	5b                   	pop    %ebx
    23db:	58                   	pop    %eax
    23dc:	5c                   	pop    %esp
    23dd:	cf                   	iret   

00000000000023de <__runtime_v86_idtstub226>:
    23de:	54                   	push   %esp
    23df:	50                   	push   %eax
    23e0:	53                   	push   %ebx
    23e1:	51                   	push   %ecx
    23e2:	52                   	push   %edx
    23e3:	56                   	push   %esi
    23e4:	57                   	push   %edi
    23e5:	55                   	push   %ebp
    23e6:	66 b8 1c 00          	mov    $0x1c,%ax
    23ea:	8e d8                	mov    %eax,%ds
    23ec:	89 e0                	mov    %esp,%eax
    23ee:	50                   	push   %eax
    23ef:	68 e2 00 00 00       	push   $0xe2
    23f4:	e8 1a 12 00 00       	call   3613 <v86_handleinterrupt>
    23f9:	83 c4 08             	add    $0x8,%esp
    23fc:	5d                   	pop    %ebp
    23fd:	5f                   	pop    %edi
    23fe:	5e                   	pop    %esi
    23ff:	5a                   	pop    %edx
    2400:	59                   	pop    %ecx
    2401:	5b                   	pop    %ebx
    2402:	58                   	pop    %eax
    2403:	5c                   	pop    %esp
    2404:	cf                   	iret   

0000000000002405 <__runtime_v86_idtstub227>:
    2405:	54                   	push   %esp
    2406:	50                   	push   %eax
    2407:	53                   	push   %ebx
    2408:	51                   	push   %ecx
    2409:	52                   	push   %edx
    240a:	56                   	push   %esi
    240b:	57                   	push   %edi
    240c:	55                   	push   %ebp
    240d:	66 b8 1c 00          	mov    $0x1c,%ax
    2411:	8e d8                	mov    %eax,%ds
    2413:	89 e0                	mov    %esp,%eax
    2415:	50                   	push   %eax
    2416:	68 e3 00 00 00       	push   $0xe3
    241b:	e8 f3 11 00 00       	call   3613 <v86_handleinterrupt>
    2420:	83 c4 08             	add    $0x8,%esp
    2423:	5d                   	pop    %ebp
    2424:	5f                   	pop    %edi
    2425:	5e                   	pop    %esi
    2426:	5a                   	pop    %edx
    2427:	59                   	pop    %ecx
    2428:	5b                   	pop    %ebx
    2429:	58                   	pop    %eax
    242a:	5c                   	pop    %esp
    242b:	cf                   	iret   

000000000000242c <__runtime_v86_idtstub228>:
    242c:	54                   	push   %esp
    242d:	50                   	push   %eax
    242e:	53                   	push   %ebx
    242f:	51                   	push   %ecx
    2430:	52                   	push   %edx
    2431:	56                   	push   %esi
    2432:	57                   	push   %edi
    2433:	55                   	push   %ebp
    2434:	66 b8 1c 00          	mov    $0x1c,%ax
    2438:	8e d8                	mov    %eax,%ds
    243a:	89 e0                	mov    %esp,%eax
    243c:	50                   	push   %eax
    243d:	68 e4 00 00 00       	push   $0xe4
    2442:	e8 cc 11 00 00       	call   3613 <v86_handleinterrupt>
    2447:	83 c4 08             	add    $0x8,%esp
    244a:	5d                   	pop    %ebp
    244b:	5f                   	pop    %edi
    244c:	5e                   	pop    %esi
    244d:	5a                   	pop    %edx
    244e:	59                   	pop    %ecx
    244f:	5b                   	pop    %ebx
    2450:	58                   	pop    %eax
    2451:	5c                   	pop    %esp
    2452:	cf                   	iret   

0000000000002453 <__runtime_v86_idtstub229>:
    2453:	54                   	push   %esp
    2454:	50                   	push   %eax
    2455:	53                   	push   %ebx
    2456:	51                   	push   %ecx
    2457:	52                   	push   %edx
    2458:	56                   	push   %esi
    2459:	57                   	push   %edi
    245a:	55                   	push   %ebp
    245b:	66 b8 1c 00          	mov    $0x1c,%ax
    245f:	8e d8                	mov    %eax,%ds
    2461:	89 e0                	mov    %esp,%eax
    2463:	50                   	push   %eax
    2464:	68 e5 00 00 00       	push   $0xe5
    2469:	e8 a5 11 00 00       	call   3613 <v86_handleinterrupt>
    246e:	83 c4 08             	add    $0x8,%esp
    2471:	5d                   	pop    %ebp
    2472:	5f                   	pop    %edi
    2473:	5e                   	pop    %esi
    2474:	5a                   	pop    %edx
    2475:	59                   	pop    %ecx
    2476:	5b                   	pop    %ebx
    2477:	58                   	pop    %eax
    2478:	5c                   	pop    %esp
    2479:	cf                   	iret   

000000000000247a <__runtime_v86_idtstub230>:
    247a:	54                   	push   %esp
    247b:	50                   	push   %eax
    247c:	53                   	push   %ebx
    247d:	51                   	push   %ecx
    247e:	52                   	push   %edx
    247f:	56                   	push   %esi
    2480:	57                   	push   %edi
    2481:	55                   	push   %ebp
    2482:	66 b8 1c 00          	mov    $0x1c,%ax
    2486:	8e d8                	mov    %eax,%ds
    2488:	89 e0                	mov    %esp,%eax
    248a:	50                   	push   %eax
    248b:	68 e6 00 00 00       	push   $0xe6
    2490:	e8 7e 11 00 00       	call   3613 <v86_handleinterrupt>
    2495:	83 c4 08             	add    $0x8,%esp
    2498:	5d                   	pop    %ebp
    2499:	5f                   	pop    %edi
    249a:	5e                   	pop    %esi
    249b:	5a                   	pop    %edx
    249c:	59                   	pop    %ecx
    249d:	5b                   	pop    %ebx
    249e:	58                   	pop    %eax
    249f:	5c                   	pop    %esp
    24a0:	cf                   	iret   

00000000000024a1 <__runtime_v86_idtstub231>:
    24a1:	54                   	push   %esp
    24a2:	50                   	push   %eax
    24a3:	53                   	push   %ebx
    24a4:	51                   	push   %ecx
    24a5:	52                   	push   %edx
    24a6:	56                   	push   %esi
    24a7:	57                   	push   %edi
    24a8:	55                   	push   %ebp
    24a9:	66 b8 1c 00          	mov    $0x1c,%ax
    24ad:	8e d8                	mov    %eax,%ds
    24af:	89 e0                	mov    %esp,%eax
    24b1:	50                   	push   %eax
    24b2:	68 e7 00 00 00       	push   $0xe7
    24b7:	e8 57 11 00 00       	call   3613 <v86_handleinterrupt>
    24bc:	83 c4 08             	add    $0x8,%esp
    24bf:	5d                   	pop    %ebp
    24c0:	5f                   	pop    %edi
    24c1:	5e                   	pop    %esi
    24c2:	5a                   	pop    %edx
    24c3:	59                   	pop    %ecx
    24c4:	5b                   	pop    %ebx
    24c5:	58                   	pop    %eax
    24c6:	5c                   	pop    %esp
    24c7:	cf                   	iret   

00000000000024c8 <__runtime_v86_idtstub232>:
    24c8:	54                   	push   %esp
    24c9:	50                   	push   %eax
    24ca:	53                   	push   %ebx
    24cb:	51                   	push   %ecx
    24cc:	52                   	push   %edx
    24cd:	56                   	push   %esi
    24ce:	57                   	push   %edi
    24cf:	55                   	push   %ebp
    24d0:	66 b8 1c 00          	mov    $0x1c,%ax
    24d4:	8e d8                	mov    %eax,%ds
    24d6:	89 e0                	mov    %esp,%eax
    24d8:	50                   	push   %eax
    24d9:	68 e8 00 00 00       	push   $0xe8
    24de:	e8 30 11 00 00       	call   3613 <v86_handleinterrupt>
    24e3:	83 c4 08             	add    $0x8,%esp
    24e6:	5d                   	pop    %ebp
    24e7:	5f                   	pop    %edi
    24e8:	5e                   	pop    %esi
    24e9:	5a                   	pop    %edx
    24ea:	59                   	pop    %ecx
    24eb:	5b                   	pop    %ebx
    24ec:	58                   	pop    %eax
    24ed:	5c                   	pop    %esp
    24ee:	cf                   	iret   

00000000000024ef <__runtime_v86_idtstub233>:
    24ef:	54                   	push   %esp
    24f0:	50                   	push   %eax
    24f1:	53                   	push   %ebx
    24f2:	51                   	push   %ecx
    24f3:	52                   	push   %edx
    24f4:	56                   	push   %esi
    24f5:	57                   	push   %edi
    24f6:	55                   	push   %ebp
    24f7:	66 b8 1c 00          	mov    $0x1c,%ax
    24fb:	8e d8                	mov    %eax,%ds
    24fd:	89 e0                	mov    %esp,%eax
    24ff:	50                   	push   %eax
    2500:	68 e9 00 00 00       	push   $0xe9
    2505:	e8 09 11 00 00       	call   3613 <v86_handleinterrupt>
    250a:	83 c4 08             	add    $0x8,%esp
    250d:	5d                   	pop    %ebp
    250e:	5f                   	pop    %edi
    250f:	5e                   	pop    %esi
    2510:	5a                   	pop    %edx
    2511:	59                   	pop    %ecx
    2512:	5b                   	pop    %ebx
    2513:	58                   	pop    %eax
    2514:	5c                   	pop    %esp
    2515:	cf                   	iret   

0000000000002516 <__runtime_v86_idtstub234>:
    2516:	54                   	push   %esp
    2517:	50                   	push   %eax
    2518:	53                   	push   %ebx
    2519:	51                   	push   %ecx
    251a:	52                   	push   %edx
    251b:	56                   	push   %esi
    251c:	57                   	push   %edi
    251d:	55                   	push   %ebp
    251e:	66 b8 1c 00          	mov    $0x1c,%ax
    2522:	8e d8                	mov    %eax,%ds
    2524:	89 e0                	mov    %esp,%eax
    2526:	50                   	push   %eax
    2527:	68 ea 00 00 00       	push   $0xea
    252c:	e8 e2 10 00 00       	call   3613 <v86_handleinterrupt>
    2531:	83 c4 08             	add    $0x8,%esp
    2534:	5d                   	pop    %ebp
    2535:	5f                   	pop    %edi
    2536:	5e                   	pop    %esi
    2537:	5a                   	pop    %edx
    2538:	59                   	pop    %ecx
    2539:	5b                   	pop    %ebx
    253a:	58                   	pop    %eax
    253b:	5c                   	pop    %esp
    253c:	cf                   	iret   

000000000000253d <__runtime_v86_idtstub235>:
    253d:	54                   	push   %esp
    253e:	50                   	push   %eax
    253f:	53                   	push   %ebx
    2540:	51                   	push   %ecx
    2541:	52                   	push   %edx
    2542:	56                   	push   %esi
    2543:	57                   	push   %edi
    2544:	55                   	push   %ebp
    2545:	66 b8 1c 00          	mov    $0x1c,%ax
    2549:	8e d8                	mov    %eax,%ds
    254b:	89 e0                	mov    %esp,%eax
    254d:	50                   	push   %eax
    254e:	68 eb 00 00 00       	push   $0xeb
    2553:	e8 bb 10 00 00       	call   3613 <v86_handleinterrupt>
    2558:	83 c4 08             	add    $0x8,%esp
    255b:	5d                   	pop    %ebp
    255c:	5f                   	pop    %edi
    255d:	5e                   	pop    %esi
    255e:	5a                   	pop    %edx
    255f:	59                   	pop    %ecx
    2560:	5b                   	pop    %ebx
    2561:	58                   	pop    %eax
    2562:	5c                   	pop    %esp
    2563:	cf                   	iret   

0000000000002564 <__runtime_v86_idtstub236>:
    2564:	54                   	push   %esp
    2565:	50                   	push   %eax
    2566:	53                   	push   %ebx
    2567:	51                   	push   %ecx
    2568:	52                   	push   %edx
    2569:	56                   	push   %esi
    256a:	57                   	push   %edi
    256b:	55                   	push   %ebp
    256c:	66 b8 1c 00          	mov    $0x1c,%ax
    2570:	8e d8                	mov    %eax,%ds
    2572:	89 e0                	mov    %esp,%eax
    2574:	50                   	push   %eax
    2575:	68 ec 00 00 00       	push   $0xec
    257a:	e8 94 10 00 00       	call   3613 <v86_handleinterrupt>
    257f:	83 c4 08             	add    $0x8,%esp
    2582:	5d                   	pop    %ebp
    2583:	5f                   	pop    %edi
    2584:	5e                   	pop    %esi
    2585:	5a                   	pop    %edx
    2586:	59                   	pop    %ecx
    2587:	5b                   	pop    %ebx
    2588:	58                   	pop    %eax
    2589:	5c                   	pop    %esp
    258a:	cf                   	iret   

000000000000258b <__runtime_v86_idtstub237>:
    258b:	54                   	push   %esp
    258c:	50                   	push   %eax
    258d:	53                   	push   %ebx
    258e:	51                   	push   %ecx
    258f:	52                   	push   %edx
    2590:	56                   	push   %esi
    2591:	57                   	push   %edi
    2592:	55                   	push   %ebp
    2593:	66 b8 1c 00          	mov    $0x1c,%ax
    2597:	8e d8                	mov    %eax,%ds
    2599:	89 e0                	mov    %esp,%eax
    259b:	50                   	push   %eax
    259c:	68 ed 00 00 00       	push   $0xed
    25a1:	e8 6d 10 00 00       	call   3613 <v86_handleinterrupt>
    25a6:	83 c4 08             	add    $0x8,%esp
    25a9:	5d                   	pop    %ebp
    25aa:	5f                   	pop    %edi
    25ab:	5e                   	pop    %esi
    25ac:	5a                   	pop    %edx
    25ad:	59                   	pop    %ecx
    25ae:	5b                   	pop    %ebx
    25af:	58                   	pop    %eax
    25b0:	5c                   	pop    %esp
    25b1:	cf                   	iret   

00000000000025b2 <__runtime_v86_idtstub238>:
    25b2:	54                   	push   %esp
    25b3:	50                   	push   %eax
    25b4:	53                   	push   %ebx
    25b5:	51                   	push   %ecx
    25b6:	52                   	push   %edx
    25b7:	56                   	push   %esi
    25b8:	57                   	push   %edi
    25b9:	55                   	push   %ebp
    25ba:	66 b8 1c 00          	mov    $0x1c,%ax
    25be:	8e d8                	mov    %eax,%ds
    25c0:	89 e0                	mov    %esp,%eax
    25c2:	50                   	push   %eax
    25c3:	68 ee 00 00 00       	push   $0xee
    25c8:	e8 46 10 00 00       	call   3613 <v86_handleinterrupt>
    25cd:	83 c4 08             	add    $0x8,%esp
    25d0:	5d                   	pop    %ebp
    25d1:	5f                   	pop    %edi
    25d2:	5e                   	pop    %esi
    25d3:	5a                   	pop    %edx
    25d4:	59                   	pop    %ecx
    25d5:	5b                   	pop    %ebx
    25d6:	58                   	pop    %eax
    25d7:	5c                   	pop    %esp
    25d8:	cf                   	iret   

00000000000025d9 <__runtime_v86_idtstub239>:
    25d9:	54                   	push   %esp
    25da:	50                   	push   %eax
    25db:	53                   	push   %ebx
    25dc:	51                   	push   %ecx
    25dd:	52                   	push   %edx
    25de:	56                   	push   %esi
    25df:	57                   	push   %edi
    25e0:	55                   	push   %ebp
    25e1:	66 b8 1c 00          	mov    $0x1c,%ax
    25e5:	8e d8                	mov    %eax,%ds
    25e7:	89 e0                	mov    %esp,%eax
    25e9:	50                   	push   %eax
    25ea:	68 ef 00 00 00       	push   $0xef
    25ef:	e8 1f 10 00 00       	call   3613 <v86_handleinterrupt>
    25f4:	83 c4 08             	add    $0x8,%esp
    25f7:	5d                   	pop    %ebp
    25f8:	5f                   	pop    %edi
    25f9:	5e                   	pop    %esi
    25fa:	5a                   	pop    %edx
    25fb:	59                   	pop    %ecx
    25fc:	5b                   	pop    %ebx
    25fd:	58                   	pop    %eax
    25fe:	5c                   	pop    %esp
    25ff:	cf                   	iret   

0000000000002600 <__runtime_v86_idtstub240>:
    2600:	54                   	push   %esp
    2601:	50                   	push   %eax
    2602:	53                   	push   %ebx
    2603:	51                   	push   %ecx
    2604:	52                   	push   %edx
    2605:	56                   	push   %esi
    2606:	57                   	push   %edi
    2607:	55                   	push   %ebp
    2608:	66 b8 1c 00          	mov    $0x1c,%ax
    260c:	8e d8                	mov    %eax,%ds
    260e:	89 e0                	mov    %esp,%eax
    2610:	50                   	push   %eax
    2611:	68 f0 00 00 00       	push   $0xf0
    2616:	e8 f8 0f 00 00       	call   3613 <v86_handleinterrupt>
    261b:	83 c4 08             	add    $0x8,%esp
    261e:	5d                   	pop    %ebp
    261f:	5f                   	pop    %edi
    2620:	5e                   	pop    %esi
    2621:	5a                   	pop    %edx
    2622:	59                   	pop    %ecx
    2623:	5b                   	pop    %ebx
    2624:	58                   	pop    %eax
    2625:	5c                   	pop    %esp
    2626:	cf                   	iret   

0000000000002627 <__runtime_v86_idtstub241>:
    2627:	54                   	push   %esp
    2628:	50                   	push   %eax
    2629:	53                   	push   %ebx
    262a:	51                   	push   %ecx
    262b:	52                   	push   %edx
    262c:	56                   	push   %esi
    262d:	57                   	push   %edi
    262e:	55                   	push   %ebp
    262f:	66 b8 1c 00          	mov    $0x1c,%ax
    2633:	8e d8                	mov    %eax,%ds
    2635:	89 e0                	mov    %esp,%eax
    2637:	50                   	push   %eax
    2638:	68 f1 00 00 00       	push   $0xf1
    263d:	e8 d1 0f 00 00       	call   3613 <v86_handleinterrupt>
    2642:	83 c4 08             	add    $0x8,%esp
    2645:	5d                   	pop    %ebp
    2646:	5f                   	pop    %edi
    2647:	5e                   	pop    %esi
    2648:	5a                   	pop    %edx
    2649:	59                   	pop    %ecx
    264a:	5b                   	pop    %ebx
    264b:	58                   	pop    %eax
    264c:	5c                   	pop    %esp
    264d:	cf                   	iret   

000000000000264e <__runtime_v86_idtstub242>:
    264e:	54                   	push   %esp
    264f:	50                   	push   %eax
    2650:	53                   	push   %ebx
    2651:	51                   	push   %ecx
    2652:	52                   	push   %edx
    2653:	56                   	push   %esi
    2654:	57                   	push   %edi
    2655:	55                   	push   %ebp
    2656:	66 b8 1c 00          	mov    $0x1c,%ax
    265a:	8e d8                	mov    %eax,%ds
    265c:	89 e0                	mov    %esp,%eax
    265e:	50                   	push   %eax
    265f:	68 f2 00 00 00       	push   $0xf2
    2664:	e8 aa 0f 00 00       	call   3613 <v86_handleinterrupt>
    2669:	83 c4 08             	add    $0x8,%esp
    266c:	5d                   	pop    %ebp
    266d:	5f                   	pop    %edi
    266e:	5e                   	pop    %esi
    266f:	5a                   	pop    %edx
    2670:	59                   	pop    %ecx
    2671:	5b                   	pop    %ebx
    2672:	58                   	pop    %eax
    2673:	5c                   	pop    %esp
    2674:	cf                   	iret   

0000000000002675 <__runtime_v86_idtstub243>:
    2675:	54                   	push   %esp
    2676:	50                   	push   %eax
    2677:	53                   	push   %ebx
    2678:	51                   	push   %ecx
    2679:	52                   	push   %edx
    267a:	56                   	push   %esi
    267b:	57                   	push   %edi
    267c:	55                   	push   %ebp
    267d:	66 b8 1c 00          	mov    $0x1c,%ax
    2681:	8e d8                	mov    %eax,%ds
    2683:	89 e0                	mov    %esp,%eax
    2685:	50                   	push   %eax
    2686:	68 f3 00 00 00       	push   $0xf3
    268b:	e8 83 0f 00 00       	call   3613 <v86_handleinterrupt>
    2690:	83 c4 08             	add    $0x8,%esp
    2693:	5d                   	pop    %ebp
    2694:	5f                   	pop    %edi
    2695:	5e                   	pop    %esi
    2696:	5a                   	pop    %edx
    2697:	59                   	pop    %ecx
    2698:	5b                   	pop    %ebx
    2699:	58                   	pop    %eax
    269a:	5c                   	pop    %esp
    269b:	cf                   	iret   

000000000000269c <__runtime_v86_idtstub244>:
    269c:	54                   	push   %esp
    269d:	50                   	push   %eax
    269e:	53                   	push   %ebx
    269f:	51                   	push   %ecx
    26a0:	52                   	push   %edx
    26a1:	56                   	push   %esi
    26a2:	57                   	push   %edi
    26a3:	55                   	push   %ebp
    26a4:	66 b8 1c 00          	mov    $0x1c,%ax
    26a8:	8e d8                	mov    %eax,%ds
    26aa:	89 e0                	mov    %esp,%eax
    26ac:	50                   	push   %eax
    26ad:	68 f4 00 00 00       	push   $0xf4
    26b2:	e8 5c 0f 00 00       	call   3613 <v86_handleinterrupt>
    26b7:	83 c4 08             	add    $0x8,%esp
    26ba:	5d                   	pop    %ebp
    26bb:	5f                   	pop    %edi
    26bc:	5e                   	pop    %esi
    26bd:	5a                   	pop    %edx
    26be:	59                   	pop    %ecx
    26bf:	5b                   	pop    %ebx
    26c0:	58                   	pop    %eax
    26c1:	5c                   	pop    %esp
    26c2:	cf                   	iret   

00000000000026c3 <__runtime_v86_idtstub245>:
    26c3:	54                   	push   %esp
    26c4:	50                   	push   %eax
    26c5:	53                   	push   %ebx
    26c6:	51                   	push   %ecx
    26c7:	52                   	push   %edx
    26c8:	56                   	push   %esi
    26c9:	57                   	push   %edi
    26ca:	55                   	push   %ebp
    26cb:	66 b8 1c 00          	mov    $0x1c,%ax
    26cf:	8e d8                	mov    %eax,%ds
    26d1:	89 e0                	mov    %esp,%eax
    26d3:	50                   	push   %eax
    26d4:	68 f5 00 00 00       	push   $0xf5
    26d9:	e8 35 0f 00 00       	call   3613 <v86_handleinterrupt>
    26de:	83 c4 08             	add    $0x8,%esp
    26e1:	5d                   	pop    %ebp
    26e2:	5f                   	pop    %edi
    26e3:	5e                   	pop    %esi
    26e4:	5a                   	pop    %edx
    26e5:	59                   	pop    %ecx
    26e6:	5b                   	pop    %ebx
    26e7:	58                   	pop    %eax
    26e8:	5c                   	pop    %esp
    26e9:	cf                   	iret   

00000000000026ea <__runtime_v86_idtstub246>:
    26ea:	54                   	push   %esp
    26eb:	50                   	push   %eax
    26ec:	53                   	push   %ebx
    26ed:	51                   	push   %ecx
    26ee:	52                   	push   %edx
    26ef:	56                   	push   %esi
    26f0:	57                   	push   %edi
    26f1:	55                   	push   %ebp
    26f2:	66 b8 1c 00          	mov    $0x1c,%ax
    26f6:	8e d8                	mov    %eax,%ds
    26f8:	89 e0                	mov    %esp,%eax
    26fa:	50                   	push   %eax
    26fb:	68 f6 00 00 00       	push   $0xf6
    2700:	e8 0e 0f 00 00       	call   3613 <v86_handleinterrupt>
    2705:	83 c4 08             	add    $0x8,%esp
    2708:	5d                   	pop    %ebp
    2709:	5f                   	pop    %edi
    270a:	5e                   	pop    %esi
    270b:	5a                   	pop    %edx
    270c:	59                   	pop    %ecx
    270d:	5b                   	pop    %ebx
    270e:	58                   	pop    %eax
    270f:	5c                   	pop    %esp
    2710:	cf                   	iret   

0000000000002711 <__runtime_v86_idtstub247>:
    2711:	54                   	push   %esp
    2712:	50                   	push   %eax
    2713:	53                   	push   %ebx
    2714:	51                   	push   %ecx
    2715:	52                   	push   %edx
    2716:	56                   	push   %esi
    2717:	57                   	push   %edi
    2718:	55                   	push   %ebp
    2719:	66 b8 1c 00          	mov    $0x1c,%ax
    271d:	8e d8                	mov    %eax,%ds
    271f:	89 e0                	mov    %esp,%eax
    2721:	50                   	push   %eax
    2722:	68 f7 00 00 00       	push   $0xf7
    2727:	e8 e7 0e 00 00       	call   3613 <v86_handleinterrupt>
    272c:	83 c4 08             	add    $0x8,%esp
    272f:	5d                   	pop    %ebp
    2730:	5f                   	pop    %edi
    2731:	5e                   	pop    %esi
    2732:	5a                   	pop    %edx
    2733:	59                   	pop    %ecx
    2734:	5b                   	pop    %ebx
    2735:	58                   	pop    %eax
    2736:	5c                   	pop    %esp
    2737:	cf                   	iret   

0000000000002738 <__runtime_v86_idtstub248>:
    2738:	54                   	push   %esp
    2739:	50                   	push   %eax
    273a:	53                   	push   %ebx
    273b:	51                   	push   %ecx
    273c:	52                   	push   %edx
    273d:	56                   	push   %esi
    273e:	57                   	push   %edi
    273f:	55                   	push   %ebp
    2740:	66 b8 1c 00          	mov    $0x1c,%ax
    2744:	8e d8                	mov    %eax,%ds
    2746:	89 e0                	mov    %esp,%eax
    2748:	50                   	push   %eax
    2749:	68 f8 00 00 00       	push   $0xf8
    274e:	e8 c0 0e 00 00       	call   3613 <v86_handleinterrupt>
    2753:	83 c4 08             	add    $0x8,%esp
    2756:	5d                   	pop    %ebp
    2757:	5f                   	pop    %edi
    2758:	5e                   	pop    %esi
    2759:	5a                   	pop    %edx
    275a:	59                   	pop    %ecx
    275b:	5b                   	pop    %ebx
    275c:	58                   	pop    %eax
    275d:	5c                   	pop    %esp
    275e:	cf                   	iret   

000000000000275f <__runtime_v86_idtstub249>:
    275f:	54                   	push   %esp
    2760:	50                   	push   %eax
    2761:	53                   	push   %ebx
    2762:	51                   	push   %ecx
    2763:	52                   	push   %edx
    2764:	56                   	push   %esi
    2765:	57                   	push   %edi
    2766:	55                   	push   %ebp
    2767:	66 b8 1c 00          	mov    $0x1c,%ax
    276b:	8e d8                	mov    %eax,%ds
    276d:	89 e0                	mov    %esp,%eax
    276f:	50                   	push   %eax
    2770:	68 f9 00 00 00       	push   $0xf9
    2775:	e8 99 0e 00 00       	call   3613 <v86_handleinterrupt>
    277a:	83 c4 08             	add    $0x8,%esp
    277d:	5d                   	pop    %ebp
    277e:	5f                   	pop    %edi
    277f:	5e                   	pop    %esi
    2780:	5a                   	pop    %edx
    2781:	59                   	pop    %ecx
    2782:	5b                   	pop    %ebx
    2783:	58                   	pop    %eax
    2784:	5c                   	pop    %esp
    2785:	cf                   	iret   

0000000000002786 <__runtime_v86_idtstub250>:
    2786:	54                   	push   %esp
    2787:	50                   	push   %eax
    2788:	53                   	push   %ebx
    2789:	51                   	push   %ecx
    278a:	52                   	push   %edx
    278b:	56                   	push   %esi
    278c:	57                   	push   %edi
    278d:	55                   	push   %ebp
    278e:	66 b8 1c 00          	mov    $0x1c,%ax
    2792:	8e d8                	mov    %eax,%ds
    2794:	89 e0                	mov    %esp,%eax
    2796:	50                   	push   %eax
    2797:	68 fa 00 00 00       	push   $0xfa
    279c:	e8 72 0e 00 00       	call   3613 <v86_handleinterrupt>
    27a1:	83 c4 08             	add    $0x8,%esp
    27a4:	5d                   	pop    %ebp
    27a5:	5f                   	pop    %edi
    27a6:	5e                   	pop    %esi
    27a7:	5a                   	pop    %edx
    27a8:	59                   	pop    %ecx
    27a9:	5b                   	pop    %ebx
    27aa:	58                   	pop    %eax
    27ab:	5c                   	pop    %esp
    27ac:	cf                   	iret   

00000000000027ad <__runtime_v86_idtstub251>:
    27ad:	54                   	push   %esp
    27ae:	50                   	push   %eax
    27af:	53                   	push   %ebx
    27b0:	51                   	push   %ecx
    27b1:	52                   	push   %edx
    27b2:	56                   	push   %esi
    27b3:	57                   	push   %edi
    27b4:	55                   	push   %ebp
    27b5:	66 b8 1c 00          	mov    $0x1c,%ax
    27b9:	8e d8                	mov    %eax,%ds
    27bb:	89 e0                	mov    %esp,%eax
    27bd:	50                   	push   %eax
    27be:	68 fb 00 00 00       	push   $0xfb
    27c3:	e8 4b 0e 00 00       	call   3613 <v86_handleinterrupt>
    27c8:	83 c4 08             	add    $0x8,%esp
    27cb:	5d                   	pop    %ebp
    27cc:	5f                   	pop    %edi
    27cd:	5e                   	pop    %esi
    27ce:	5a                   	pop    %edx
    27cf:	59                   	pop    %ecx
    27d0:	5b                   	pop    %ebx
    27d1:	58                   	pop    %eax
    27d2:	5c                   	pop    %esp
    27d3:	cf                   	iret   

00000000000027d4 <__runtime_v86_idtstub252>:
    27d4:	54                   	push   %esp
    27d5:	50                   	push   %eax
    27d6:	53                   	push   %ebx
    27d7:	51                   	push   %ecx
    27d8:	52                   	push   %edx
    27d9:	56                   	push   %esi
    27da:	57                   	push   %edi
    27db:	55                   	push   %ebp
    27dc:	66 b8 1c 00          	mov    $0x1c,%ax
    27e0:	8e d8                	mov    %eax,%ds
    27e2:	89 e0                	mov    %esp,%eax
    27e4:	50                   	push   %eax
    27e5:	68 fc 00 00 00       	push   $0xfc
    27ea:	e8 24 0e 00 00       	call   3613 <v86_handleinterrupt>
    27ef:	83 c4 08             	add    $0x8,%esp
    27f2:	5d                   	pop    %ebp
    27f3:	5f                   	pop    %edi
    27f4:	5e                   	pop    %esi
    27f5:	5a                   	pop    %edx
    27f6:	59                   	pop    %ecx
    27f7:	5b                   	pop    %ebx
    27f8:	58                   	pop    %eax
    27f9:	5c                   	pop    %esp
    27fa:	cf                   	iret   

00000000000027fb <__runtime_v86_idtstub253>:
    27fb:	54                   	push   %esp
    27fc:	50                   	push   %eax
    27fd:	53                   	push   %ebx
    27fe:	51                   	push   %ecx
    27ff:	52                   	push   %edx
    2800:	56                   	push   %esi
    2801:	57                   	push   %edi
    2802:	55                   	push   %ebp
    2803:	66 b8 1c 00          	mov    $0x1c,%ax
    2807:	8e d8                	mov    %eax,%ds
    2809:	89 e0                	mov    %esp,%eax
    280b:	50                   	push   %eax
    280c:	68 fd 00 00 00       	push   $0xfd
    2811:	e8 fd 0d 00 00       	call   3613 <v86_handleinterrupt>
    2816:	83 c4 08             	add    $0x8,%esp
    2819:	5d                   	pop    %ebp
    281a:	5f                   	pop    %edi
    281b:	5e                   	pop    %esi
    281c:	5a                   	pop    %edx
    281d:	59                   	pop    %ecx
    281e:	5b                   	pop    %ebx
    281f:	58                   	pop    %eax
    2820:	5c                   	pop    %esp
    2821:	cf                   	iret   

0000000000002822 <__runtime_v86_idtstub254>:
    2822:	54                   	push   %esp
    2823:	50                   	push   %eax
    2824:	53                   	push   %ebx
    2825:	51                   	push   %ecx
    2826:	52                   	push   %edx
    2827:	56                   	push   %esi
    2828:	57                   	push   %edi
    2829:	55                   	push   %ebp
    282a:	66 b8 1c 00          	mov    $0x1c,%ax
    282e:	8e d8                	mov    %eax,%ds
    2830:	89 e0                	mov    %esp,%eax
    2832:	50                   	push   %eax
    2833:	68 fe 00 00 00       	push   $0xfe
    2838:	e8 d6 0d 00 00       	call   3613 <v86_handleinterrupt>
    283d:	83 c4 08             	add    $0x8,%esp
    2840:	5d                   	pop    %ebp
    2841:	5f                   	pop    %edi
    2842:	5e                   	pop    %esi
    2843:	5a                   	pop    %edx
    2844:	59                   	pop    %ecx
    2845:	5b                   	pop    %ebx
    2846:	58                   	pop    %eax
    2847:	5c                   	pop    %esp
    2848:	cf                   	iret   

0000000000002849 <__runtime_v86_idtstub255>:
    2849:	54                   	push   %esp
    284a:	50                   	push   %eax
    284b:	53                   	push   %ebx
    284c:	51                   	push   %ecx
    284d:	52                   	push   %edx
    284e:	56                   	push   %esi
    284f:	57                   	push   %edi
    2850:	55                   	push   %ebp
    2851:	66 b8 1c 00          	mov    $0x1c,%ax
    2855:	8e d8                	mov    %eax,%ds
    2857:	89 e0                	mov    %esp,%eax
    2859:	50                   	push   %eax
    285a:	68 ff 00 00 00       	push   $0xff
    285f:	e8 af 0d 00 00       	call   3613 <v86_handleinterrupt>
    2864:	83 c4 08             	add    $0x8,%esp
    2867:	5d                   	pop    %ebp
    2868:	5f                   	pop    %edi
    2869:	5e                   	pop    %esi
    286a:	5a                   	pop    %edx
    286b:	59                   	pop    %ecx
    286c:	5b                   	pop    %ebx
    286d:	58                   	pop    %eax
    286e:	5c                   	pop    %esp
    286f:	cf                   	iret   

0000000000002870 <__v86_gpfh_stub>:
    2870:	53                   	push   %ebx
    2871:	66 bb 1c 00          	mov    $0x1c,%bx
    2875:	8e db                	mov    %ebx,%ds
    2877:	8d 1d 00 d0 42 70    	lea    0x7042d000,%ebx
    287d:	81 c3 00 40 00 00    	add    $0x4000,%ebx
    2883:	29 e3                	sub    %esp,%ebx
    2885:	83 eb 04             	sub    $0x4,%ebx
    2888:	83 fb 24             	cmp    $0x24,%ebx
    288b:	77 06                	ja     2893 <continuefault>
    288d:	5b                   	pop    %ebx
    288e:	e9 31 dc ff ff       	jmp    4c4 <__runtime_v86_idtstub13>

0000000000002893 <continuefault>:
    2893:	5b                   	pop    %ebx
    2894:	83 c4 04             	add    $0x4,%esp
    2897:	54                   	push   %esp
    2898:	50                   	push   %eax
    2899:	53                   	push   %ebx
    289a:	51                   	push   %ecx
    289b:	52                   	push   %edx
    289c:	56                   	push   %esi
    289d:	57                   	push   %edi
    289e:	55                   	push   %ebp
    289f:	89 e0                	mov    %esp,%eax
    28a1:	50                   	push   %eax
    28a2:	e8 98 07 00 00       	call   303f <v86_gpfh>
    28a7:	83 c4 04             	add    $0x4,%esp
    28aa:	5d                   	pop    %ebp
    28ab:	5f                   	pop    %edi
    28ac:	5e                   	pop    %esi
    28ad:	5a                   	pop    %edx
    28ae:	59                   	pop    %ecx
    28af:	5b                   	pop    %ebx
    28b0:	58                   	pop    %eax
    28b1:	5c                   	pop    %esp
    28b2:	cf                   	iret   
    28b3:	90                   	nop    
    28b4:	90                   	nop    
    28b5:	90                   	nop    
    28b6:	90                   	nop    
    28b7:	90                   	nop    
    28b8:	90                   	nop    
    28b9:	90                   	nop    
    28ba:	90                   	nop    
    28bb:	90                   	nop    
    28bc:	90                   	nop    
    28bd:	90                   	nop    
    28be:	90                   	nop    
    28bf:	90                   	nop    

00000000000028c0 <__islayer_callback>:
    28c0:	a3 10 a0 00 70       	mov    %eax,0x7000a010
    28c5:	89 1d 14 a0 00 70    	mov    %ebx,0x7000a014
    28cb:	89 0d 18 a0 00 70    	mov    %ecx,0x7000a018
    28d1:	89 15 1c a0 00 70    	mov    %edx,0x7000a01c
    28d7:	89 2d 20 a0 00 70    	mov    %ebp,0x7000a020
    28dd:	89 35 24 a0 00 70    	mov    %esi,0x7000a024
    28e3:	89 3d 28 a0 00 70    	mov    %edi,0x7000a028
    28e9:	0f 20 d0             	mov    %cr2,%eax
    28ec:	a3 c0 9e 00 70       	mov    %eax,0x70009ec0

00000000000028f1 <read>:
    28f1:	31 d2                	xor    %edx,%edx
    28f3:	8b 0d f4 7f 00 70    	mov    0x70007ff4,%ecx

00000000000028f9 <nxrd>:
    28f9:	8b 82 a0 9b 00 70    	mov    0x70009ba0(%edx),%eax
    28ff:	8b 9a a4 9b 00 70    	mov    0x70009ba4(%edx),%ebx
    2905:	0f 78 03             	vmread %eax,(%ebx)
    2908:	76 7a                	jbe    2984 <vt_vmfail>
    290a:	83 c2 08             	add    $0x8,%edx
    290d:	e2 ea                	loop   28f9 <nxrd>

000000000000290f <read_1>:
    290f:	31 d2                	xor    %edx,%edx
    2911:	8b 0d f0 7f 00 70    	mov    0x70007ff0,%ecx

0000000000002917 <nxrd_1>:
    2917:	8b 82 20 98 00 70    	mov    0x70009820(%edx),%eax
    291d:	8b 9a 24 98 00 70    	mov    0x70009824(%edx),%ebx
    2923:	0f 78 03             	vmread %eax,(%ebx)
    2926:	76 5c                	jbe    2984 <vt_vmfail>
    2928:	83 c2 08             	add    $0x8,%edx
    292b:	e2 ea                	loop   2917 <nxrd_1>
    292d:	e8 3b 29 00 00       	call   526d <vt_intercepthandler>
    2932:	31 d2                	xor    %edx,%edx
    2934:	8b 0d f0 7f 00 70    	mov    0x70007ff0,%ecx

000000000000293a <lt_0>:
    293a:	8b 82 20 98 00 70    	mov    0x70009820(%edx),%eax
    2940:	8b 9a 24 98 00 70    	mov    0x70009824(%edx),%ebx
    2946:	0f 79 03             	vmwrite (%ebx),%eax
    2949:	76 39                	jbe    2984 <vt_vmfail>
    294b:	83 c2 08             	add    $0x8,%edx
    294e:	e2 ea                	loop   293a <lt_0>
    2950:	a1 c0 9e 00 70       	mov    0x70009ec0,%eax
    2955:	0f 22 d0             	mov    %eax,%cr2
    2958:	a1 10 a0 00 70       	mov    0x7000a010,%eax
    295d:	8b 1d 14 a0 00 70    	mov    0x7000a014,%ebx
    2963:	8b 0d 18 a0 00 70    	mov    0x7000a018,%ecx
    2969:	8b 15 1c a0 00 70    	mov    0x7000a01c,%edx
    296f:	8b 2d 20 a0 00 70    	mov    0x7000a020,%ebp
    2975:	8b 35 24 a0 00 70    	mov    0x7000a024,%esi
    297b:	8b 3d 28 a0 00 70    	mov    0x7000a028,%edi
    2981:	0f 01 c3             	vmresume 

0000000000002984 <vt_vmfail>:
    2984:	72 0e                	jb     2994 <failInvalid>

0000000000002986 <failValid>:
    2986:	b8 00 44 00 00       	mov    $0x4400,%eax
    298b:	8d 1d c4 9e 00 70    	lea    0x70009ec4,%ebx
    2991:	0f 78 03             	vmread %eax,(%ebx)

0000000000002994 <failInvalid>:
    2994:	e8 93 2f 00 00       	call   592c <vt_handleerror>
    2999:	0f 0b                	ud2a   
    299b:	90                   	nop    
    299c:	90                   	nop    
    299d:	90                   	nop    
    299e:	90                   	nop    
    299f:	90                   	nop    

00000000000029a0 <.text>:
    29a0:	0a 6e 75             	or     0x75(%esi),%ch
    29a3:	6d                   	insl   (%dx),%es:(%edi)
    29a4:	3d 30 78 25 30       	cmp    $0x30257830,%eax
    29a9:	38 6c 78 00          	cmp    %ch,0x0(%eax,%edi,2)

00000000000029ad <runtime_printnum>:
    29ad:	55                   	push   %ebp
    29ae:	89 e5                	mov    %esp,%ebp
    29b0:	83 ec 08             	sub    $0x8,%esp
    29b3:	8b 45 08             	mov    0x8(%ebp),%eax
    29b6:	89 44 24 04          	mov    %eax,0x4(%esp)
    29ba:	c7 04 24 a0 29 00 70 	movl   $0x700029a0,(%esp)
    29c1:	e8 b2 63 00 00       	call   8d78 <printf>
    29c6:	c9                   	leave  
    29c7:	c3                   	ret    
    29c8:	0a 72 75             	or     0x75(%edx),%dh
    29cb:	6e                   	outsb  %ds:(%esi),(%dx)
    29cc:	74 69                	je     2a37 <runtime_idtexceptionhandler+0x46>
    29ce:	6d                   	insl   (%dx),%es:(%edi)
    29cf:	65 20 65 78          	and    %ah,%gs:0x78(%ebp)
    29d3:	63 65 70             	arpl   %sp,0x70(%ebp)
    29d6:	74 69                	je     2a41 <runtime_idtexceptionhandler+0x50>
    29d8:	6f                   	outsl  %ds:(%esi),(%dx)
    29d9:	6e                   	outsb  %ds:(%esi),(%dx)
    29da:	20 30                	and    %dh,(%eax)
    29dc:	78 25                	js     2a03 <runtime_idtexceptionhandler+0x12>
    29de:	30 38                	xor    %bh,(%eax)
    29e0:	6c                   	insb   (%dx),%es:(%edi)
    29e1:	78 20                	js     2a03 <runtime_idtexceptionhandler+0x12>
    29e3:	28 45 53             	sub    %al,0x53(%ebp)
    29e6:	50                   	push   %eax
    29e7:	3d 30 78 25 30       	cmp    $0x30257830,%eax
    29ec:	38 6c 78 29          	cmp    %ch,0x29(%eax,%edi,2)
	...

00000000000029f1 <runtime_idtexceptionhandler>:
    29f1:	55                   	push   %ebp
    29f2:	89 e5                	mov    %esp,%ebp
    29f4:	83 ec 18             	sub    $0x18,%esp
    29f7:	8b 45 0c             	mov    0xc(%ebp),%eax
    29fa:	89 44 24 08          	mov    %eax,0x8(%esp)
    29fe:	8b 45 08             	mov    0x8(%ebp),%eax
    2a01:	89 44 24 04          	mov    %eax,0x4(%esp)
    2a05:	c7 04 24 c8 29 00 70 	movl   $0x700029c8,(%esp)
    2a0c:	e8 67 63 00 00       	call   8d78 <printf>
    2a11:	f4                   	hlt    
    2a12:	c9                   	leave  
    2a13:	c3                   	ret    
    2a14:	0a 53 65             	or     0x65(%ebx),%dl
    2a17:	74 74                	je     2a8d <setupenvironment+0xe>
    2a19:	69 6e 67 20 75 70 20 	imul   $0x20707520,0x67(%esi),%ebp
    2a20:	52                   	push   %edx
    2a21:	75 6e                	jne    2a91 <setupenvironment+0x12>
    2a23:	74 69                	je     2a8e <setupenvironment+0xf>
    2a25:	6d                   	insl   (%dx),%es:(%edi)
    2a26:	65 20 49 44          	and    %cl,%gs:0x44(%ecx)
    2a2a:	54                   	push   %esp
    2a2b:	2e 2e 2e 00 44 6f 6e 	add    %al,%cs:0x6e(%edi,%ebp,2)
    2a32:	65 2e 00 8d 76 00 0a 	add    %cl,%cs:%gs:0x530a0076(%ebp)
    2a39:	53 
    2a3a:	65                   	gs
    2a3b:	74 74                	je     2ab1 <setupenvironment+0x32>
    2a3d:	69 6e 67 20 75 70 20 	imul   $0x20707520,0x67(%esi),%ebp
    2a44:	72 75                	jb     2abb <setupenvironment+0x3c>
    2a46:	6e                   	outsb  %ds:(%esi),(%dx)
    2a47:	74 69                	je     2ab2 <setupenvironment+0x33>
    2a49:	6d                   	insl   (%dx),%es:(%edi)
    2a4a:	65 20 54 53 53       	and    %dl,%gs:0x53(%ebx,%edx,2)
    2a4f:	20 64 65 73          	and    %ah,0x73(%ebp)
    2a53:	63 72 69             	arpl   %si,0x69(%edx)
    2a56:	70 74                	jo     2acc <setupenvironment+0x4d>
    2a58:	6f                   	outsl  %ds:(%esi),(%dx)
    2a59:	72 20                	jb     2a7b <runtime_idtexceptionhandler+0x8a>
    2a5b:	61                   	popa   
    2a5c:	6e                   	outsb  %ds:(%esi),(%dx)
    2a5d:	64 20 54 52 2e       	and    %dl,%fs:0x2e(%edx,%edx,2)
    2a62:	2e 2e 00 0a          	add    %cl,%cs:(%edx)
    2a66:	73 65                	jae    2acd <setupenvironment+0x4e>
    2a68:	74 74                	je     2ade <setupenvironment+0x5f>
    2a6a:	69 6e 67 20 75 70 20 	imul   $0x20707520,0x67(%esi),%ebp
    2a71:	50                   	push   %eax
    2a72:	41                   	inc    %ecx
    2a73:	45                   	inc    %ebp
    2a74:	20 70 61             	and    %dh,0x61(%eax)
    2a77:	67 69 6e 67 2e 2e 2e 	addr16 imul $0x2e2e2e,0x67(%bp),%ebp
    2a7e:	00 

0000000000002a7f <setupenvironment>:
    2a7f:	55                   	push   %ebp
    2a80:	89 e5                	mov    %esp,%ebp
    2a82:	56                   	push   %esi
    2a83:	53                   	push   %ebx
    2a84:	83 ec 60             	sub    $0x60,%esp
    2a87:	c7 04 24 14 2a 00 70 	movl   $0x70002a14,(%esp)
    2a8e:	e8 e5 62 00 00       	call   8d78 <printf>
    2a93:	c7 45 b4 40 91 00 70 	movl   $0x70009140,-0x4c(%ebp)
    2a9a:	c7 45 b8 40 90 00 70 	movl   $0x70009040,-0x48(%ebp)
    2aa1:	c7 45 bc 00 00 00 00 	movl   $0x0,-0x44(%ebp)
    2aa8:	eb 51                	jmp    2afb <setupenvironment+0x7c>
    2aaa:	8b 45 bc             	mov    -0x44(%ebp),%eax
    2aad:	c1 e0 03             	shl    $0x3,%eax
    2ab0:	03 45 b8             	add    -0x48(%ebp),%eax
    2ab3:	89 45 c0             	mov    %eax,-0x40(%ebp)
    2ab6:	8b 45 bc             	mov    -0x44(%ebp),%eax
    2ab9:	c1 e0 02             	shl    $0x2,%eax
    2abc:	03 45 b4             	add    -0x4c(%ebp),%eax
    2abf:	8b 00                	mov    (%eax),%eax
    2ac1:	89 c2                	mov    %eax,%edx
    2ac3:	8b 45 c0             	mov    -0x40(%ebp),%eax
    2ac6:	66 89 10             	mov    %dx,(%eax)
    2ac9:	8b 45 bc             	mov    -0x44(%ebp),%eax
    2acc:	c1 e0 02             	shl    $0x2,%eax
    2acf:	03 45 b4             	add    -0x4c(%ebp),%eax
    2ad2:	8b 00                	mov    (%eax),%eax
    2ad4:	c1 e8 10             	shr    $0x10,%eax
    2ad7:	89 c2                	mov    %eax,%edx
    2ad9:	8b 45 c0             	mov    -0x40(%ebp),%eax
    2adc:	66 89 50 06          	mov    %dx,0x6(%eax)
    2ae0:	8b 45 c0             	mov    -0x40(%ebp),%eax
    2ae3:	66 c7 40 02 08 00    	movw   $0x8,0x2(%eax)
    2ae9:	8b 45 c0             	mov    -0x40(%ebp),%eax
    2aec:	c6 40 04 00          	movb   $0x0,0x4(%eax)
    2af0:	8b 45 c0             	mov    -0x40(%ebp),%eax
    2af3:	c6 40 05 8e          	movb   $0x8e,0x5(%eax)
    2af7:	83 45 bc 01          	addl   $0x1,-0x44(%ebp)
    2afb:	83 7d bc 1f          	cmpl   $0x1f,-0x44(%ebp)
    2aff:	76 a9                	jbe    2aaa <setupenvironment+0x2b>
    2b01:	0f 01 1d 30 90 00 70 	lidtl  0x70009030
    2b08:	c7 04 24 2f 2a 00 70 	movl   $0x70002a2f,(%esp)
    2b0f:	e8 64 62 00 00       	call   8d78 <printf>
    2b14:	c7 04 24 38 2a 00 70 	movl   $0x70002a38,(%esp)
    2b1b:	e8 58 62 00 00       	call   8d78 <printf>
    2b20:	c7 45 c8 00 f0 00 70 	movl   $0x7000f000,-0x38(%ebp)
    2b27:	c7 45 c4 28 90 00 70 	movl   $0x70009028,-0x3c(%ebp)
    2b2e:	8b 45 c4             	mov    -0x3c(%ebp),%eax
    2b31:	c6 40 05 89          	movb   $0x89,0x5(%eax)
    2b35:	8b 45 c4             	mov    -0x3c(%ebp),%eax
    2b38:	c6 40 06 10          	movb   $0x10,0x6(%eax)
    2b3c:	8b 45 c8             	mov    -0x38(%ebp),%eax
    2b3f:	89 c2                	mov    %eax,%edx
    2b41:	8b 45 c4             	mov    -0x3c(%ebp),%eax
    2b44:	66 89 50 02          	mov    %dx,0x2(%eax)
    2b48:	8b 45 c8             	mov    -0x38(%ebp),%eax
    2b4b:	25 00 00 ff 00       	and    $0xff0000,%eax
    2b50:	c1 e8 10             	shr    $0x10,%eax
    2b53:	89 c2                	mov    %eax,%edx
    2b55:	8b 45 c4             	mov    -0x3c(%ebp),%eax
    2b58:	88 50 04             	mov    %dl,0x4(%eax)
    2b5b:	8b 45 c8             	mov    -0x38(%ebp),%eax
    2b5e:	c1 e8 18             	shr    $0x18,%eax
    2b61:	89 c2                	mov    %eax,%edx
    2b63:	8b 45 c4             	mov    -0x3c(%ebp),%eax
    2b66:	88 50 07             	mov    %dl,0x7(%eax)
    2b69:	8b 45 c4             	mov    -0x3c(%ebp),%eax
    2b6c:	66 c7 00 67 00       	movw   $0x67,(%eax)
    2b71:	66 b8 18 00          	mov    $0x18,%ax
    2b75:	0f 00 d8             	ltr    %ax
    2b78:	c7 04 24 2f 2a 00 70 	movl   $0x70002a2f,(%esp)
    2b7f:	e8 f4 61 00 00       	call   8d78 <printf>
    2b84:	c7 04 24 65 2a 00 70 	movl   $0x70002a65,(%esp)
    2b8b:	e8 e8 61 00 00       	call   8d78 <printf>
    2b90:	c7 45 d4 00 00 00 00 	movl   $0x0,-0x2c(%ebp)
    2b97:	c7 45 cc 00 00 01 70 	movl   $0x70010000,-0x34(%ebp)
    2b9e:	c7 45 d0 00 10 01 70 	movl   $0x70011000,-0x30(%ebp)
    2ba5:	c7 45 f0 01 00 00 00 	movl   $0x1,-0x10(%ebp)
    2bac:	c7 45 f4 00 00 00 00 	movl   $0x0,-0xc(%ebp)
    2bb3:	c7 44 24 08 00 10 00 	movl   $0x1000,0x8(%esp)
    2bba:	00 
    2bbb:	c7 44 24 04 00 00 00 	movl   $0x0,0x4(%esp)
    2bc2:	00 
    2bc3:	c7 04 24 00 00 01 70 	movl   $0x70010000,(%esp)
    2bca:	e8 d5 54 00 00       	call   80a4 <memset>
    2bcf:	c7 45 d8 00 00 00 00 	movl   $0x0,-0x28(%ebp)
    2bd6:	eb 42                	jmp    2c1a <setupenvironment+0x19b>
    2bd8:	8b 45 d8             	mov    -0x28(%ebp),%eax
    2bdb:	c1 e0 0c             	shl    $0xc,%eax
    2bde:	03 45 d0             	add    -0x30(%ebp),%eax
    2be1:	89 45 e0             	mov    %eax,-0x20(%ebp)
    2be4:	8b 45 d8             	mov    -0x28(%ebp),%eax
    2be7:	c1 e0 03             	shl    $0x3,%eax
    2bea:	89 c6                	mov    %eax,%esi
    2bec:	03 75 cc             	add    -0x34(%ebp),%esi
    2bef:	8b 45 e0             	mov    -0x20(%ebp),%eax
    2bf2:	ba 00 00 00 00       	mov    $0x0,%edx
    2bf7:	89 c1                	mov    %eax,%ecx
    2bf9:	81 e1 00 f0 ff ff    	and    $0xfffff000,%ecx
    2bff:	89 d3                	mov    %edx,%ebx
    2c01:	81 e3 ff ff ff 7f    	and    $0x7fffffff,%ebx
    2c07:	89 c8                	mov    %ecx,%eax
    2c09:	0b 45 f0             	or     -0x10(%ebp),%eax
    2c0c:	89 da                	mov    %ebx,%edx
    2c0e:	0b 55 f4             	or     -0xc(%ebp),%edx
    2c11:	89 06                	mov    %eax,(%esi)
    2c13:	89 56 04             	mov    %edx,0x4(%esi)
    2c16:	83 45 d8 01          	addl   $0x1,-0x28(%ebp)
    2c1a:	83 7d d8 03          	cmpl   $0x3,-0x28(%ebp)
    2c1e:	76 b8                	jbe    2bd8 <setupenvironment+0x159>
    2c20:	c7 45 dc 00 08 00 00 	movl   $0x800,-0x24(%ebp)
    2c27:	c7 45 f0 83 00 00 00 	movl   $0x83,-0x10(%ebp)
    2c2e:	c7 45 f4 00 00 00 00 	movl   $0x0,-0xc(%ebp)
    2c35:	c7 45 d8 00 00 00 00 	movl   $0x0,-0x28(%ebp)
    2c3c:	c7 45 d4 00 00 00 00 	movl   $0x0,-0x2c(%ebp)
    2c43:	eb 3d                	jmp    2c82 <setupenvironment+0x203>
    2c45:	8b 45 d8             	mov    -0x28(%ebp),%eax
    2c48:	c1 e0 03             	shl    $0x3,%eax
    2c4b:	89 c6                	mov    %eax,%esi
    2c4d:	03 75 d0             	add    -0x30(%ebp),%esi
    2c50:	8b 45 d4             	mov    -0x2c(%ebp),%eax
    2c53:	ba 00 00 00 00       	mov    $0x0,%edx
    2c58:	89 c1                	mov    %eax,%ecx
    2c5a:	81 e1 00 00 e0 ff    	and    $0xffe00000,%ecx
    2c60:	89 d3                	mov    %edx,%ebx
    2c62:	81 e3 ff ff ff 7f    	and    $0x7fffffff,%ebx
    2c68:	89 c8                	mov    %ecx,%eax
    2c6a:	0b 45 f0             	or     -0x10(%ebp),%eax
    2c6d:	89 da                	mov    %ebx,%edx
    2c6f:	0b 55 f4             	or     -0xc(%ebp),%edx
    2c72:	89 06                	mov    %eax,(%esi)
    2c74:	89 56 04             	mov    %edx,0x4(%esi)
    2c77:	83 45 d8 01          	addl   $0x1,-0x28(%ebp)
    2c7b:	81 45 d4 00 00 20 00 	addl   $0x200000,-0x2c(%ebp)
    2c82:	8b 45 d8             	mov    -0x28(%ebp),%eax
    2c85:	3b 45 dc             	cmp    -0x24(%ebp),%eax
    2c88:	72 bb                	jb     2c45 <setupenvironment+0x1c6>
    2c8a:	c7 45 ec 30 00 00 00 	movl   $0x30,-0x14(%ebp)
    2c91:	c7 45 e4 21 00 00 80 	movl   $0x80000021,-0x1c(%ebp)
    2c98:	8b 45 cc             	mov    -0x34(%ebp),%eax
    2c9b:	89 45 e8             	mov    %eax,-0x18(%ebp)
    2c9e:	8b 45 e8             	mov    -0x18(%ebp),%eax
    2ca1:	89 04 24             	mov    %eax,(%esp)
    2ca4:	e8 29 00 00 00       	call   2cd2 <write_cr3>
    2ca9:	8b 45 ec             	mov    -0x14(%ebp),%eax
    2cac:	89 04 24             	mov    %eax,(%esp)
    2caf:	e8 2b 00 00 00       	call   2cdf <write_cr4>
    2cb4:	8b 45 e4             	mov    -0x1c(%ebp),%eax
    2cb7:	89 04 24             	mov    %eax,(%esp)
    2cba:	e8 2b 00 00 00       	call   2cea <write_cr0>
    2cbf:	c7 04 24 2f 2a 00 70 	movl   $0x70002a2f,(%esp)
    2cc6:	e8 ad 60 00 00       	call   8d78 <printf>
    2ccb:	83 c4 60             	add    $0x60,%esp
    2cce:	5b                   	pop    %ebx
    2ccf:	5e                   	pop    %esi
    2cd0:	5d                   	pop    %ebp
    2cd1:	c3                   	ret    

0000000000002cd2 <write_cr3>:
    2cd2:	55                   	push   %ebp
    2cd3:	89 e5                	mov    %esp,%ebp
    2cd5:	8b 45 08             	mov    0x8(%ebp),%eax
    2cd8:	0f 22 d8             	mov    %eax,%cr3
    2cdb:	eb 00                	jmp    2cdd <write_cr3+0xb>
    2cdd:	5d                   	pop    %ebp
    2cde:	c3                   	ret    

0000000000002cdf <write_cr4>:
    2cdf:	55                   	push   %ebp
    2ce0:	89 e5                	mov    %esp,%ebp
    2ce2:	8b 45 08             	mov    0x8(%ebp),%eax
    2ce5:	0f 22 e0             	mov    %eax,%cr4
    2ce8:	5d                   	pop    %ebp
    2ce9:	c3                   	ret    

0000000000002cea <write_cr0>:
    2cea:	55                   	push   %ebp
    2ceb:	89 e5                	mov    %esp,%ebp
    2ced:	8b 45 08             	mov    0x8(%ebp),%eax
    2cf0:	0f 22 c0             	mov    %eax,%cr0
    2cf3:	5d                   	pop    %ebp
    2cf4:	c3                   	ret    
    2cf5:	0a 72 75             	or     0x75(%edx),%dh
    2cf8:	6e                   	outsb  %ds:(%esi),(%dx)
    2cf9:	74 69                	je     2d64 <write_cr0+0x7a>
    2cfb:	6d                   	insl   (%dx),%es:(%edi)
    2cfc:	65 3a 00             	cmp    %gs:(%eax),%al
    2cff:	90                   	nop    
    2d00:	0a 69 6e             	or     0x6e(%ecx),%ch
    2d03:	69 74 69 61 6c 69 7a 	imul   $0x697a696c,0x61(%ecx,%ebp,2),%esi
    2d0a:	69 
    2d0b:	6e                   	outsb  %ds:(%esi),(%dx)
    2d0c:	67 20 6f 70          	addr16 and %ch,0x70(%bx)
    2d10:	65                   	gs
    2d11:	72 61                	jb     2d74 <write_cr0+0x8a>
    2d13:	74 69                	je     2d7e <write_cr0+0x94>
    2d15:	6e                   	outsb  %ds:(%esi),(%dx)
    2d16:	67 20 65 6e          	addr16 and %ah,0x6e(%di)
    2d1a:	76 69                	jbe    2d85 <write_cr0+0x9b>
    2d1c:	72 6f                	jb     2d8d <write_cr0+0xa3>
    2d1e:	6e                   	outsb  %ds:(%esi),(%dx)
    2d1f:	6d                   	insl   (%dx),%es:(%edi)
    2d20:	65 6e                	outsb  %gs:(%esi),(%dx)
    2d22:	74 2e                	je     2d52 <write_cr0+0x68>
    2d24:	2e 2e 00 90 0a 6f 70 	add    %dl,%cs:0x65706f0a(%eax)
    2d2b:	65 
    2d2c:	72 61                	jb     2d8f <write_cr0+0xa5>
    2d2e:	74 69                	je     2d99 <write_cr0+0xaf>
    2d30:	6e                   	outsb  %ds:(%esi),(%dx)
    2d31:	67 20 65 6e          	addr16 and %ah,0x6e(%di)
    2d35:	76 69                	jbe    2da0 <write_cr0+0xb6>
    2d37:	72 6f                	jb     2da8 <write_cr0+0xbe>
    2d39:	6e                   	outsb  %ds:(%esi),(%dx)
    2d3a:	6d                   	insl   (%dx),%es:(%edi)
    2d3b:	65 6e                	outsb  %gs:(%esi),(%dx)
    2d3d:	74 20                	je     2d5f <write_cr0+0x75>
    2d3f:	69 6e 69 74 69 61 6c 	imul   $0x6c616974,0x69(%esi),%ebp
    2d46:	69 7a 65 64 21 00 0a 	imul   $0xa002164,0x65(%edx),%edi
    2d4d:	69 6e 69 74 69 61 6c 	imul   $0x6c616974,0x69(%esi),%ebp
    2d54:	69 7a 69 6e 67 20 56 	imul   $0x5620676e,0x69(%edx),%edi
    2d5b:	54                   	push   %esp
    2d5c:	2e 2e 2e 00 0a       	add    %cl,%cs:(%edx)
    2d61:	48                   	dec    %eax
    2d62:	41                   	inc    %ecx
    2d63:	4c                   	dec    %esp
    2d64:	54                   	push   %esp
    2d65:	3a 20                	cmp    (%eax),%ah
    2d67:	65                   	gs
    2d68:	72 72                	jb     2ddc <write_cr0+0xf2>
    2d6a:	6f                   	outsl  %ds:(%esi),(%dx)
    2d6b:	72 20                	jb     2d8d <write_cr0+0xa3>
    2d6d:	69 6e 69 74 69 61 6c 	imul   $0x6c616974,0x69(%esi),%ebp
    2d74:	69 7a 69 6e 67 20 56 	imul   $0x5620676e,0x69(%edx),%edi
    2d7b:	54                   	push   %esp
    2d7c:	21 00                	and    %eax,(%eax)
    2d7e:	0a 56 54             	or     0x54(%esi),%dl
    2d81:	20 69 6e             	and    %ch,0x6e(%ecx)
    2d84:	69 74 69 61 6c 69 7a 	imul   $0x657a696c,0x61(%ecx,%ebp,2),%esi
    2d8b:	65 
    2d8c:	64 21 00             	and    %eax,%fs:(%eax)
    2d8f:	90                   	nop    
    2d90:	0a 43 6f             	or     0x6f(%ebx),%al
    2d93:	70 79                	jo     2e0e <write_cr0+0x124>
    2d95:	69 6e 67 20 62 6f 6f 	imul   $0x6f6f6220,0x67(%esi),%ebp
    2d9c:	74 6d                	je     2e0b <write_cr0+0x121>
    2d9e:	6f                   	outsl  %ds:(%esi),(%dx)
    2d9f:	64                   	fs
    2da0:	75 6c                	jne    2e0e <write_cr0+0x124>
    2da2:	65 28 66 72          	sub    %ah,%gs:0x72(%esi)
    2da6:	6f                   	outsl  %ds:(%esi),(%dx)
    2da7:	6d                   	insl   (%dx),%es:(%edi)
    2da8:	20 30                	and    %dh,(%eax)
    2daa:	78 25                	js     2dd1 <write_cr0+0xe7>
    2dac:	30 38                	xor    %bh,(%eax)
    2dae:	6c                   	insb   (%dx),%es:(%edi)
    2daf:	78 2c                	js     2ddd <write_cr0+0xf3>
    2db1:	20 73 69             	and    %dh,0x69(%ebx)
    2db4:	7a 65                	jp     2e1b <write_cr0+0x131>
    2db6:	3d 30 78 25 30       	cmp    $0x30257830,%eax
    2dbb:	38 6c 78 00          	cmp    %ch,0x0(%eax,%edi,2)
    2dbf:	90                   	nop    
    2dc0:	0a 43 6f             	or     0x6f(%ebx),%al
    2dc3:	70 79                	jo     2e3e <write_cr0+0x154>
    2dc5:	69 6e 67 20 62 6f 6f 	imul   $0x6f6f6220,0x67(%esi),%ebp
    2dcc:	74 6d                	je     2e3b <write_cr0+0x151>
    2dce:	6f                   	outsl  %ds:(%esi),(%dx)
    2dcf:	64                   	fs
    2dd0:	75 6c                	jne    2e3e <write_cr0+0x154>
    2dd2:	65 31 28             	xor    %ebp,%gs:(%eax)
    2dd5:	66                   	data16
    2dd6:	72 6f                	jb     2e47 <write_cr0+0x15d>
    2dd8:	6d                   	insl   (%dx),%es:(%edi)
    2dd9:	20 30                	and    %dh,(%eax)
    2ddb:	78 25                	js     2e02 <write_cr0+0x118>
    2ddd:	30 38                	xor    %bh,(%eax)
    2ddf:	6c                   	insb   (%dx),%es:(%edi)
    2de0:	78 2c                	js     2e0e <write_cr0+0x124>
    2de2:	20 73 69             	and    %dh,0x69(%ebx)
    2de5:	7a 65                	jp     2e4c <write_cr0+0x162>
    2de7:	3d 30 78 25 30       	cmp    $0x30257830,%eax
    2dec:	38 6c 78 00          	cmp    %ch,0x0(%eax,%edi,2)
    2df0:	0a 50 72             	or     0x72(%eax),%dl
    2df3:	65                   	gs
    2df4:	70 61                	jo     2e57 <cstartup+0x3>
    2df6:	72 69                	jb     2e61 <cstartup+0xd>
    2df8:	6e                   	outsb  %ds:(%esi),(%dx)
    2df9:	67 20 56 4d          	addr16 and %dl,0x4d(%bp)
    2dfd:	43                   	inc    %ebx
    2dfe:	53                   	push   %ebx
    2dff:	20 66 6f             	and    %ah,0x6f(%esi)
    2e02:	72 20                	jb     2e24 <write_cr0+0x13a>
    2e04:	6c                   	insb   (%dx),%es:(%edi)
    2e05:	61                   	popa   
    2e06:	75 6e                	jne    2e76 <cstartup+0x22>
    2e08:	63 68 2e             	arpl   %bp,0x2e(%eax)
    2e0b:	2e 2e 00 0a          	add    %cl,%cs:(%edx)
    2e0f:	44                   	inc    %esp
    2e10:	6f                   	outsl  %ds:(%esi),(%dx)
    2e11:	6e                   	outsb  %ds:(%esi),(%dx)
    2e12:	65 2e 00 0a          	add    %cl,%cs:%gs:(%edx)
    2e16:	4c                   	dec    %esp
    2e17:	61                   	popa   
    2e18:	75 6e                	jne    2e88 <cstartup+0x34>
    2e1a:	63 68 69             	arpl   %bp,0x69(%eax)
    2e1d:	6e                   	outsb  %ds:(%esi),(%dx)
    2e1e:	67 20 47 55          	addr16 and %al,0x55(%bx)
    2e22:	45                   	inc    %ebp
    2e23:	53                   	push   %ebx
    2e24:	54                   	push   %esp
    2e25:	2e 2e 2e 00 8d 76 00 	add    %cl,%cs:0x480a0076(%ebp)
    2e2c:	0a 48 
    2e2e:	41                   	inc    %ecx
    2e2f:	4c                   	dec    %esp
    2e30:	54                   	push   %esp
    2e31:	3a 20                	cmp    (%eax),%ah
    2e33:	72 75                	jb     2eaa <cstartup+0x56>
    2e35:	6e                   	outsb  %ds:(%esi),(%dx)
    2e36:	74 69                	je     2ea1 <cstartup+0x4d>
    2e38:	6d                   	insl   (%dx),%es:(%edi)
    2e39:	65                   	gs
    2e3a:	2c 20                	sub    $0x20,%al
    2e3c:	77 65                	ja     2ea3 <cstartup+0x4f>
    2e3e:	20 6d 75             	and    %ch,0x75(%ebp)
    2e41:	73 74                	jae    2eb7 <cstartup+0x63>
    2e43:	20 6e 65             	and    %ch,0x65(%esi)
    2e46:	76 65                	jbe    2ead <cstartup+0x59>
    2e48:	72 20                	jb     2e6a <cstartup+0x16>
    2e4a:	67                   	addr16
    2e4b:	65                   	gs
    2e4c:	74 20                	je     2e6e <cstartup+0x1a>
    2e4e:	68 65 72 65 21       	push   $0x21657265
	...

0000000000002e54 <cstartup>:
    2e54:	55                   	push   %ebp
    2e55:	89 e5                	mov    %esp,%ebp
    2e57:	83 ec 18             	sub    $0x18,%esp
    2e5a:	e8 05 60 00 00       	call   8e64 <init_uart>
    2e5f:	c7 04 24 f5 2c 00 70 	movl   $0x70002cf5,(%esp)
    2e66:	e8 0d 5f 00 00       	call   8d78 <printf>
    2e6b:	c7 04 24 00 2d 00 70 	movl   $0x70002d00,(%esp)
    2e72:	e8 01 5f 00 00       	call   8d78 <printf>
    2e77:	e8 03 fc ff ff       	call   2a7f <setupenvironment>
    2e7c:	c7 04 24 28 2d 00 70 	movl   $0x70002d28,(%esp)
    2e83:	e8 f0 5e 00 00       	call   8d78 <printf>
    2e88:	c7 04 24 4c 2d 00 70 	movl   $0x70002d4c,(%esp)
    2e8f:	e8 e4 5e 00 00       	call   8d78 <printf>
    2e94:	e8 ae 2b 00 00       	call   5a47 <runtime_initVT>
    2e99:	85 c0                	test   %eax,%eax
    2e9b:	75 0d                	jne    2eaa <cstartup+0x56>
    2e9d:	c7 04 24 60 2d 00 70 	movl   $0x70002d60,(%esp)
    2ea4:	e8 cf 5e 00 00       	call   8d78 <printf>
    2ea9:	f4                   	hlt    
    2eaa:	c7 04 24 7e 2d 00 70 	movl   $0x70002d7e,(%esp)
    2eb1:	e8 c2 5e 00 00       	call   8d78 <printf>
    2eb6:	8b 45 0c             	mov    0xc(%ebp),%eax
    2eb9:	89 44 24 08          	mov    %eax,0x8(%esp)
    2ebd:	8b 45 08             	mov    0x8(%ebp),%eax
    2ec0:	89 44 24 04          	mov    %eax,0x4(%esp)
    2ec4:	c7 04 24 90 2d 00 70 	movl   $0x70002d90,(%esp)
    2ecb:	e8 a8 5e 00 00       	call   8d78 <printf>
    2ed0:	8b 55 08             	mov    0x8(%ebp),%edx
    2ed3:	8b 45 0c             	mov    0xc(%ebp),%eax
    2ed6:	89 44 24 08          	mov    %eax,0x8(%esp)
    2eda:	89 54 24 04          	mov    %edx,0x4(%esp)
    2ede:	c7 04 24 00 7c 00 00 	movl   $0x7c00,(%esp)
    2ee5:	e8 7f 51 00 00       	call   8069 <memcpy>
    2eea:	8b 45 14             	mov    0x14(%ebp),%eax
    2eed:	89 44 24 08          	mov    %eax,0x8(%esp)
    2ef1:	8b 45 10             	mov    0x10(%ebp),%eax
    2ef4:	89 44 24 04          	mov    %eax,0x4(%esp)
    2ef8:	c7 04 24 c0 2d 00 70 	movl   $0x70002dc0,(%esp)
    2eff:	e8 74 5e 00 00       	call   8d78 <printf>
    2f04:	8b 55 10             	mov    0x10(%ebp),%edx
    2f07:	8b 45 14             	mov    0x14(%ebp),%eax
    2f0a:	89 44 24 08          	mov    %eax,0x8(%esp)
    2f0e:	89 54 24 04          	mov    %edx,0x4(%esp)
    2f12:	c7 04 24 00 00 40 00 	movl   $0x400000,(%esp)
    2f19:	e8 4b 51 00 00       	call   8069 <memcpy>
    2f1e:	c7 04 24 f0 2d 00 70 	movl   $0x70002df0,(%esp)
    2f25:	e8 4e 5e 00 00       	call   8d78 <printf>
    2f2a:	c7 05 14 98 00 70 00 	movl   $0x0,0x70009814
    2f31:	00 00 00 
    2f34:	c7 05 18 98 00 70 01 	movl   $0x1,0x70009818
    2f3b:	00 00 00 
    2f3e:	a1 18 98 00 70       	mov    0x70009818,%eax
    2f43:	8b 15 14 98 00 70    	mov    0x70009814,%edx
    2f49:	89 44 24 04          	mov    %eax,0x4(%esp)
    2f4d:	89 14 24             	mov    %edx,(%esp)
    2f50:	e8 d3 31 00 00       	call   6128 <isl_prepareVMCS>
    2f55:	a3 14 98 00 70       	mov    %eax,0x70009814
    2f5a:	c7 04 24 0e 2e 00 70 	movl   $0x70002e0e,(%esp)
    2f61:	e8 12 5e 00 00       	call   8d78 <printf>
    2f66:	c7 04 24 15 2e 00 70 	movl   $0x70002e15,(%esp)
    2f6d:	e8 06 5e 00 00       	call   8d78 <printf>
    2f72:	e8 8e 2e 00 00       	call   5e05 <runtime_launch_guest>
    2f77:	c7 04 24 2c 2e 00 70 	movl   $0x70002e2c,(%esp)
    2f7e:	e8 f5 5d 00 00       	call   8d78 <printf>
    2f83:	f4                   	hlt    
    2f84:	c9                   	leave  
    2f85:	c3                   	ret    
    2f86:	90                   	nop    
    2f87:	90                   	nop    
    2f88:	90                   	nop    
    2f89:	90                   	nop    
    2f8a:	90                   	nop    
    2f8b:	90                   	nop    
    2f8c:	90                   	nop    
    2f8d:	90                   	nop    
    2f8e:	90                   	nop    
    2f8f:	90                   	nop    

0000000000002f90 <.text>:
    2f90:	0a 70 61             	or     0x61(%eax),%dh
    2f93:	6e                   	outsb  %ds:(%esi),(%dx)
    2f94:	69 63 3a 20 75 6e 68 	imul   $0x686e7520,0x3a(%ebx),%esp
    2f9b:	61                   	popa   
    2f9c:	6e                   	outsb  %ds:(%esi),(%dx)
    2f9d:	64                   	fs
    2f9e:	6c                   	insb   (%dx),%es:(%edi)
    2f9f:	65 64 20 4c 47 44    	and    %cl,%fs:%gs:0x44(%edi,%eax,2)
    2fa5:	54                   	push   %esp
    2fa6:	2f                   	das    
    2fa7:	4c                   	dec    %esp
    2fa8:	49                   	dec    %ecx
    2fa9:	44                   	inc    %esp
    2faa:	54                   	push   %esp
    2fab:	20 69 6e             	and    %ch,0x6e(%ecx)
    2fae:	73 74                	jae    3024 <.text+0x94>
    2fb0:	72 75                	jb     3027 <.text+0x97>
    2fb2:	63 74 69 6f          	arpl   %si,0x6f(%ecx,%ebp,2)
    2fb6:	6e                   	outsb  %ds:(%esi),(%dx)
    2fb7:	20 66 6f             	and    %ah,0x6f(%esi)
    2fba:	72 6d                	jb     3029 <.text+0x99>
    2fbc:	61                   	popa   
    2fbd:	74 21                	je     2fe0 <.text+0x50>
    2fbf:	00 0a                	add    %cl,(%edx)
    2fc1:	70 61                	jo     3024 <.text+0x94>
    2fc3:	6e                   	outsb  %ds:(%esi),(%dx)
    2fc4:	69 63 3a 20 75 6e 68 	imul   $0x686e7520,0x3a(%ebx),%esp
    2fcb:	61                   	popa   
    2fcc:	6e                   	outsb  %ds:(%esi),(%dx)
    2fcd:	64                   	fs
    2fce:	6c                   	insb   (%dx),%es:(%edi)
    2fcf:	65 64 20 4d 4f       	and    %cl,%fs:%gs:0x4f(%ebp)
    2fd4:	56                   	push   %esi
    2fd5:	20 66 72             	and    %ah,0x72(%esi)
    2fd8:	6f                   	outsl  %ds:(%esi),(%dx)
    2fd9:	6d                   	insl   (%dx),%es:(%edi)
    2fda:	20 43 52             	and    %al,0x52(%ebx)
    2fdd:	58                   	pop    %eax
    2fde:	2c 20                	sub    $0x20,%al
    2fe0:	63 72 78             	arpl   %si,0x78(%edx)
    2fe3:	3d 30 78 25 30       	cmp    $0x30257830,%eax
    2fe8:	32 78 2c             	xor    0x2c(%eax),%bh
    2feb:	20 72 65             	and    %dh,0x65(%edx)
    2fee:	67 3d 30 78 25 30    	addr16 cmp $0x30257830,%eax
    2ff4:	32 78 00             	xor    0x0(%eax),%bh
    2ff7:	90                   	nop    
    2ff8:	0a 70 61             	or     0x61(%eax),%dh
    2ffb:	6e                   	outsb  %ds:(%esi),(%dx)
    2ffc:	69 63 3a 20 75 6e 68 	imul   $0x686e7520,0x3a(%ebx),%esp
    3003:	61                   	popa   
    3004:	6e                   	outsb  %ds:(%esi),(%dx)
    3005:	64                   	fs
    3006:	6c                   	insb   (%dx),%es:(%edi)
    3007:	65 64 20 69 6e       	and    %ch,%fs:%gs:0x6e(%ecx)
    300c:	73 74                	jae    3082 <v86_gpfh+0x43>
    300e:	72 75                	jb     3085 <v86_gpfh+0x46>
    3010:	63 74 69 6f          	arpl   %si,0x6f(%ecx,%ebp,2)
    3014:	6e                   	outsb  %ds:(%esi),(%dx)
    3015:	21 00                	and    %eax,(%eax)
    3017:	0a 43 53             	or     0x53(%ebx),%al
    301a:	3d 30 78 25 30       	cmp    $0x30257830,%eax
    301f:	34 78                	xor    $0x78,%al
    3021:	2c 20                	sub    $0x20,%al
    3023:	45                   	inc    %ebp
    3024:	49                   	dec    %ecx
    3025:	50                   	push   %eax
    3026:	3d 30 78 25 30       	cmp    $0x30257830,%eax
    302b:	38 6c 78 00          	cmp    %ch,0x0(%eax,%edi,2)
    302f:	0a 44 75 6d          	or     0x6d(%ebp,%esi,2),%al
    3033:	70 3a                	jo     306f <v86_gpfh+0x30>
    3035:	0a 00                	or     (%eax),%al
    3037:	30 78 25             	xor    %bh,0x25(%eax)
    303a:	30 32                	xor    %dh,(%edx)
    303c:	78 20                	js     305e <v86_gpfh+0x1f>
	...

000000000000303f <v86_gpfh>:
    303f:	55                   	push   %ebp
    3040:	89 e5                	mov    %esp,%ebp
    3042:	83 ec 48             	sub    $0x48,%esp
    3045:	8b 45 08             	mov    0x8(%ebp),%eax
    3048:	89 45 d4             	mov    %eax,-0x2c(%ebp)
    304b:	8b 45 d4             	mov    -0x2c(%ebp),%eax
    304e:	8b 40 1c             	mov    0x1c(%eax),%eax
    3051:	89 45 d8             	mov    %eax,-0x28(%ebp)
    3054:	8b 45 d8             	mov    -0x28(%ebp),%eax
    3057:	8b 40 04             	mov    0x4(%eax),%eax
    305a:	0f b7 c0             	movzwl %ax,%eax
    305d:	89 c2                	mov    %eax,%edx
    305f:	c1 e2 04             	shl    $0x4,%edx
    3062:	8b 45 d8             	mov    -0x28(%ebp),%eax
    3065:	8b 00                	mov    (%eax),%eax
    3067:	0f b7 c0             	movzwl %ax,%eax
    306a:	8d 04 02             	lea    (%edx,%eax,1),%eax
    306d:	89 45 dc             	mov    %eax,-0x24(%ebp)
    3070:	8b 45 dc             	mov    -0x24(%ebp),%eax
    3073:	89 45 e0             	mov    %eax,-0x20(%ebp)
    3076:	8b 45 e0             	mov    -0x20(%ebp),%eax
    3079:	0f b6 00             	movzbl (%eax),%eax
    307c:	3c 0f                	cmp    $0xf,%al
    307e:	0f 85 e7 00 00 00    	jne    316b <v86_gpfh+0x12c>
    3084:	8b 45 e0             	mov    -0x20(%ebp),%eax
    3087:	83 c0 01             	add    $0x1,%eax
    308a:	0f b6 00             	movzbl (%eax),%eax
    308d:	3c 01                	cmp    $0x1,%al
    308f:	0f 85 d6 00 00 00    	jne    316b <v86_gpfh+0x12c>
    3095:	8b 45 e0             	mov    -0x20(%ebp),%eax
    3098:	83 c0 02             	add    $0x2,%eax
    309b:	0f b6 00             	movzbl (%eax),%eax
    309e:	0f b6 c0             	movzbl %al,%eax
    30a1:	83 e0 38             	and    $0x38,%eax
    30a4:	c1 f8 03             	sar    $0x3,%eax
    30a7:	83 f8 02             	cmp    $0x2,%eax
    30aa:	75 4d                	jne    30f9 <v86_gpfh+0xba>
    30ac:	8b 45 e0             	mov    -0x20(%ebp),%eax
    30af:	83 c0 03             	add    $0x3,%eax
    30b2:	0f b7 00             	movzwl (%eax),%eax
    30b5:	66 89 45 e6          	mov    %ax,-0x1a(%ebp)
    30b9:	8b 45 d8             	mov    -0x28(%ebp),%eax
    30bc:	8b 40 18             	mov    0x18(%eax),%eax
    30bf:	89 c2                	mov    %eax,%edx
    30c1:	c1 e2 04             	shl    $0x4,%edx
    30c4:	0f b7 45 e6          	movzwl -0x1a(%ebp),%eax
    30c8:	8d 04 02             	lea    (%edx,%eax,1),%eax
    30cb:	89 45 e8             	mov    %eax,-0x18(%ebp)
    30ce:	8b 45 e8             	mov    -0x18(%ebp),%eax
    30d1:	0f b7 00             	movzwl (%eax),%eax
    30d4:	66 a3 44 96 00 70    	mov    %ax,0x70009644
    30da:	8b 45 e8             	mov    -0x18(%ebp),%eax
    30dd:	83 c0 02             	add    $0x2,%eax
    30e0:	8b 00                	mov    (%eax),%eax
    30e2:	a3 40 96 00 70       	mov    %eax,0x70009640
    30e7:	8b 45 d8             	mov    -0x28(%ebp),%eax
    30ea:	8b 00                	mov    (%eax),%eax
    30ec:	8d 50 05             	lea    0x5(%eax),%edx
    30ef:	8b 45 d8             	mov    -0x28(%ebp),%eax
    30f2:	89 10                	mov    %edx,(%eax)
    30f4:	e9 09 03 00 00       	jmp    3402 <v86_gpfh+0x3c3>
    30f9:	8b 45 e0             	mov    -0x20(%ebp),%eax
    30fc:	83 c0 02             	add    $0x2,%eax
    30ff:	0f b6 00             	movzbl (%eax),%eax
    3102:	0f b6 c0             	movzbl %al,%eax
    3105:	83 e0 38             	and    $0x38,%eax
    3108:	c1 f8 03             	sar    $0x3,%eax
    310b:	83 f8 03             	cmp    $0x3,%eax
    310e:	75 4d                	jne    315d <v86_gpfh+0x11e>
    3110:	8b 45 e0             	mov    -0x20(%ebp),%eax
    3113:	83 c0 03             	add    $0x3,%eax
    3116:	0f b7 00             	movzwl (%eax),%eax
    3119:	66 89 45 ee          	mov    %ax,-0x12(%ebp)
    311d:	8b 45 d8             	mov    -0x28(%ebp),%eax
    3120:	8b 40 18             	mov    0x18(%eax),%eax
    3123:	89 c2                	mov    %eax,%edx
    3125:	c1 e2 04             	shl    $0x4,%edx
    3128:	0f b7 45 ee          	movzwl -0x12(%ebp),%eax
    312c:	8d 04 02             	lea    (%edx,%eax,1),%eax
    312f:	89 45 f0             	mov    %eax,-0x10(%ebp)
    3132:	8b 45 f0             	mov    -0x10(%ebp),%eax
    3135:	0f b7 00             	movzwl (%eax),%eax
    3138:	66 a3 4c 96 00 70    	mov    %ax,0x7000964c
    313e:	8b 45 f0             	mov    -0x10(%ebp),%eax
    3141:	83 c0 02             	add    $0x2,%eax
    3144:	8b 00                	mov    (%eax),%eax
    3146:	a3 48 96 00 70       	mov    %eax,0x70009648
    314b:	8b 45 d8             	mov    -0x28(%ebp),%eax
    314e:	8b 00                	mov    (%eax),%eax
    3150:	8d 50 05             	lea    0x5(%eax),%edx
    3153:	8b 45 d8             	mov    -0x28(%ebp),%eax
    3156:	89 10                	mov    %edx,(%eax)
    3158:	e9 a5 02 00 00       	jmp    3402 <v86_gpfh+0x3c3>
    315d:	c7 04 24 90 2f 00 70 	movl   $0x70002f90,(%esp)
    3164:	e8 0f 5c 00 00       	call   8d78 <printf>
    3169:	eb fe                	jmp    3169 <v86_gpfh+0x12a>
    316b:	8b 45 e0             	mov    -0x20(%ebp),%eax
    316e:	0f b6 00             	movzbl (%eax),%eax
    3171:	3c 0f                	cmp    $0xf,%al
    3173:	0f 85 a7 00 00 00    	jne    3220 <v86_gpfh+0x1e1>
    3179:	8b 45 e0             	mov    -0x20(%ebp),%eax
    317c:	83 c0 01             	add    $0x1,%eax
    317f:	0f b6 00             	movzbl (%eax),%eax
    3182:	3c 20                	cmp    $0x20,%al
    3184:	0f 85 96 00 00 00    	jne    3220 <v86_gpfh+0x1e1>
    318a:	8b 45 e0             	mov    -0x20(%ebp),%eax
    318d:	83 c0 02             	add    $0x2,%eax
    3190:	0f b6 00             	movzbl (%eax),%eax
    3193:	0f b6 c0             	movzbl %al,%eax
    3196:	83 e0 38             	and    $0x38,%eax
    3199:	c1 f8 03             	sar    $0x3,%eax
    319c:	88 45 f4             	mov    %al,-0xc(%ebp)
    319f:	8b 45 e0             	mov    -0x20(%ebp),%eax
    31a2:	83 c0 02             	add    $0x2,%eax
    31a5:	0f b6 00             	movzbl (%eax),%eax
    31a8:	83 e0 07             	and    $0x7,%eax
    31ab:	88 45 f5             	mov    %al,-0xb(%ebp)
    31ae:	80 7d f4 00          	cmpb   $0x0,-0xc(%ebp)
    31b2:	75 24                	jne    31d8 <v86_gpfh+0x199>
    31b4:	80 7d f5 00          	cmpb   $0x0,-0xb(%ebp)
    31b8:	75 1e                	jne    31d8 <v86_gpfh+0x199>
    31ba:	8b 15 50 96 00 70    	mov    0x70009650,%edx
    31c0:	8b 45 d4             	mov    -0x2c(%ebp),%eax
    31c3:	89 50 18             	mov    %edx,0x18(%eax)
    31c6:	8b 45 d8             	mov    -0x28(%ebp),%eax
    31c9:	8b 00                	mov    (%eax),%eax
    31cb:	8d 50 03             	lea    0x3(%eax),%edx
    31ce:	8b 45 d8             	mov    -0x28(%ebp),%eax
    31d1:	89 10                	mov    %edx,(%eax)
    31d3:	e9 2a 02 00 00       	jmp    3402 <v86_gpfh+0x3c3>
    31d8:	80 7d f4 03          	cmpb   $0x3,-0xc(%ebp)
    31dc:	75 24                	jne    3202 <v86_gpfh+0x1c3>
    31de:	80 7d f5 00          	cmpb   $0x0,-0xb(%ebp)
    31e2:	75 1e                	jne    3202 <v86_gpfh+0x1c3>
    31e4:	8b 15 88 96 00 70    	mov    0x70009688,%edx
    31ea:	8b 45 d4             	mov    -0x2c(%ebp),%eax
    31ed:	89 50 18             	mov    %edx,0x18(%eax)
    31f0:	8b 45 d8             	mov    -0x28(%ebp),%eax
    31f3:	8b 00                	mov    (%eax),%eax
    31f5:	8d 50 03             	lea    0x3(%eax),%edx
    31f8:	8b 45 d8             	mov    -0x28(%ebp),%eax
    31fb:	89 10                	mov    %edx,(%eax)
    31fd:	e9 00 02 00 00       	jmp    3402 <v86_gpfh+0x3c3>
    3202:	0f b6 45 f5          	movzbl -0xb(%ebp),%eax
    3206:	0f b6 55 f4          	movzbl -0xc(%ebp),%edx
    320a:	89 44 24 08          	mov    %eax,0x8(%esp)
    320e:	89 54 24 04          	mov    %edx,0x4(%esp)
    3212:	c7 04 24 c0 2f 00 70 	movl   $0x70002fc0,(%esp)
    3219:	e8 5a 5b 00 00       	call   8d78 <printf>
    321e:	eb fe                	jmp    321e <v86_gpfh+0x1df>
    3220:	8b 45 e0             	mov    -0x20(%ebp),%eax
    3223:	0f b6 00             	movzbl (%eax),%eax
    3226:	3c 0f                	cmp    $0xf,%al
    3228:	0f 85 45 01 00 00    	jne    3373 <v86_gpfh+0x334>
    322e:	8b 45 e0             	mov    -0x20(%ebp),%eax
    3231:	83 c0 01             	add    $0x1,%eax
    3234:	0f b6 00             	movzbl (%eax),%eax
    3237:	3c 22                	cmp    $0x22,%al
    3239:	0f 85 34 01 00 00    	jne    3373 <v86_gpfh+0x334>
    323f:	8b 45 e0             	mov    -0x20(%ebp),%eax
    3242:	83 c0 02             	add    $0x2,%eax
    3245:	0f b6 00             	movzbl (%eax),%eax
    3248:	0f b6 c0             	movzbl %al,%eax
    324b:	83 e0 38             	and    $0x38,%eax
    324e:	c1 f8 03             	sar    $0x3,%eax
    3251:	88 45 f6             	mov    %al,-0xa(%ebp)
    3254:	8b 45 e0             	mov    -0x20(%ebp),%eax
    3257:	83 c0 02             	add    $0x2,%eax
    325a:	0f b6 00             	movzbl (%eax),%eax
    325d:	83 e0 07             	and    $0x7,%eax
    3260:	88 45 f7             	mov    %al,-0x9(%ebp)
    3263:	80 7d f6 00          	cmpb   $0x0,-0xa(%ebp)
    3267:	0f 85 bf 00 00 00    	jne    332c <v86_gpfh+0x2ed>
    326d:	80 7d f7 00          	cmpb   $0x0,-0x9(%ebp)
    3271:	0f 85 b5 00 00 00    	jne    332c <v86_gpfh+0x2ed>
    3277:	8b 45 d4             	mov    -0x2c(%ebp),%eax
    327a:	8b 40 18             	mov    0x18(%eax),%eax
    327d:	a3 50 96 00 70       	mov    %eax,0x70009650
    3282:	8b 45 d8             	mov    -0x28(%ebp),%eax
    3285:	8b 00                	mov    (%eax),%eax
    3287:	8d 50 03             	lea    0x3(%eax),%edx
    328a:	8b 45 d8             	mov    -0x28(%ebp),%eax
    328d:	89 10                	mov    %edx,(%eax)
    328f:	a1 50 96 00 70       	mov    0x70009650,%eax
    3294:	83 e0 01             	and    $0x1,%eax
    3297:	84 c0                	test   %al,%al
    3299:	0f 84 d4 00 00 00    	je     3373 <v86_gpfh+0x334>
    329f:	8b 45 d4             	mov    -0x2c(%ebp),%eax
    32a2:	8b 40 18             	mov    0x18(%eax),%eax
    32a5:	a3 54 96 00 70       	mov    %eax,0x70009654
    32aa:	8b 45 d4             	mov    -0x2c(%ebp),%eax
    32ad:	8b 40 14             	mov    0x14(%eax),%eax
    32b0:	a3 58 96 00 70       	mov    %eax,0x70009658
    32b5:	8b 45 d4             	mov    -0x2c(%ebp),%eax
    32b8:	8b 40 10             	mov    0x10(%eax),%eax
    32bb:	a3 5c 96 00 70       	mov    %eax,0x7000965c
    32c0:	8b 45 d4             	mov    -0x2c(%ebp),%eax
    32c3:	8b 40 0c             	mov    0xc(%eax),%eax
    32c6:	a3 60 96 00 70       	mov    %eax,0x70009660
    32cb:	8b 45 d4             	mov    -0x2c(%ebp),%eax
    32ce:	8b 40 08             	mov    0x8(%eax),%eax
    32d1:	a3 64 96 00 70       	mov    %eax,0x70009664
    32d6:	8b 45 d4             	mov    -0x2c(%ebp),%eax
    32d9:	8b 40 04             	mov    0x4(%eax),%eax
    32dc:	a3 68 96 00 70       	mov    %eax,0x70009668
    32e1:	8b 45 d4             	mov    -0x2c(%ebp),%eax
    32e4:	8b 00                	mov    (%eax),%eax
    32e6:	a3 6c 96 00 70       	mov    %eax,0x7000966c
    32eb:	8b 45 d8             	mov    -0x28(%ebp),%eax
    32ee:	8b 40 0c             	mov    0xc(%eax),%eax
    32f1:	a3 70 96 00 70       	mov    %eax,0x70009670
    32f6:	8b 45 d8             	mov    -0x28(%ebp),%eax
    32f9:	8b 00                	mov    (%eax),%eax
    32fb:	a3 74 96 00 70       	mov    %eax,0x70009674
    3300:	8b 45 d8             	mov    -0x28(%ebp),%eax
    3303:	8b 40 10             	mov    0x10(%eax),%eax
    3306:	a3 7c 96 00 70       	mov    %eax,0x7000967c
    330b:	8b 45 d8             	mov    -0x28(%ebp),%eax
    330e:	8b 40 04             	mov    0x4(%eax),%eax
    3311:	a3 78 96 00 70       	mov    %eax,0x70009678
    3316:	8b 45 d8             	mov    -0x28(%ebp),%eax
    3319:	8b 40 08             	mov    0x8(%eax),%eax
    331c:	a3 80 96 00 70       	mov    %eax,0x70009680
    3321:	0f 20 e0             	mov    %cr4,%eax
    3324:	a3 84 96 00 70       	mov    %eax,0x70009684
    3329:	f4                   	hlt    
    332a:	eb 47                	jmp    3373 <v86_gpfh+0x334>
    332c:	80 7d f6 03          	cmpb   $0x3,-0xa(%ebp)
    3330:	75 23                	jne    3355 <v86_gpfh+0x316>
    3332:	80 7d f7 00          	cmpb   $0x0,-0x9(%ebp)
    3336:	75 1d                	jne    3355 <v86_gpfh+0x316>
    3338:	8b 45 d4             	mov    -0x2c(%ebp),%eax
    333b:	8b 40 18             	mov    0x18(%eax),%eax
    333e:	a3 88 96 00 70       	mov    %eax,0x70009688
    3343:	8b 45 d8             	mov    -0x28(%ebp),%eax
    3346:	8b 00                	mov    (%eax),%eax
    3348:	8d 50 03             	lea    0x3(%eax),%edx
    334b:	8b 45 d8             	mov    -0x28(%ebp),%eax
    334e:	89 10                	mov    %edx,(%eax)
    3350:	e9 ad 00 00 00       	jmp    3402 <v86_gpfh+0x3c3>
    3355:	0f b6 45 f7          	movzbl -0x9(%ebp),%eax
    3359:	0f b6 55 f6          	movzbl -0xa(%ebp),%edx
    335d:	89 44 24 08          	mov    %eax,0x8(%esp)
    3361:	89 54 24 04          	mov    %edx,0x4(%esp)
    3365:	c7 04 24 c0 2f 00 70 	movl   $0x70002fc0,(%esp)
    336c:	e8 07 5a 00 00       	call   8d78 <printf>
    3371:	eb fe                	jmp    3371 <v86_gpfh+0x332>
    3373:	c7 04 24 f8 2f 00 70 	movl   $0x70002ff8,(%esp)
    337a:	e8 f9 59 00 00       	call   8d78 <printf>
    337f:	8b 45 d8             	mov    -0x28(%ebp),%eax
    3382:	8b 10                	mov    (%eax),%edx
    3384:	8b 45 d8             	mov    -0x28(%ebp),%eax
    3387:	8b 40 04             	mov    0x4(%eax),%eax
    338a:	0f b7 c0             	movzwl %ax,%eax
    338d:	89 54 24 08          	mov    %edx,0x8(%esp)
    3391:	89 44 24 04          	mov    %eax,0x4(%esp)
    3395:	c7 04 24 17 30 00 70 	movl   $0x70003017,(%esp)
    339c:	e8 d7 59 00 00       	call   8d78 <printf>
    33a1:	c7 04 24 2f 30 00 70 	movl   $0x7000302f,(%esp)
    33a8:	e8 cb 59 00 00       	call   8d78 <printf>
    33ad:	8b 45 d8             	mov    -0x28(%ebp),%eax
    33b0:	8b 40 04             	mov    0x4(%eax),%eax
    33b3:	0f b7 c0             	movzwl %ax,%eax
    33b6:	89 c2                	mov    %eax,%edx
    33b8:	c1 e2 04             	shl    $0x4,%edx
    33bb:	8b 45 d8             	mov    -0x28(%ebp),%eax
    33be:	8b 00                	mov    (%eax),%eax
    33c0:	0f b7 c0             	movzwl %ax,%eax
    33c3:	8d 04 02             	lea    (%edx,%eax,1),%eax
    33c6:	89 45 dc             	mov    %eax,-0x24(%ebp)
    33c9:	8b 45 dc             	mov    -0x24(%ebp),%eax
    33cc:	89 45 fc             	mov    %eax,-0x4(%ebp)
    33cf:	c7 45 f8 00 00 00 00 	movl   $0x0,-0x8(%ebp)
    33d6:	eb 22                	jmp    33fa <v86_gpfh+0x3bb>
    33d8:	8b 55 f8             	mov    -0x8(%ebp),%edx
    33db:	8b 45 fc             	mov    -0x4(%ebp),%eax
    33de:	01 d0                	add    %edx,%eax
    33e0:	0f b6 00             	movzbl (%eax),%eax
    33e3:	0f b6 c0             	movzbl %al,%eax
    33e6:	89 44 24 04          	mov    %eax,0x4(%esp)
    33ea:	c7 04 24 37 30 00 70 	movl   $0x70003037,(%esp)
    33f1:	e8 82 59 00 00       	call   8d78 <printf>
    33f6:	83 45 f8 01          	addl   $0x1,-0x8(%ebp)
    33fa:	83 7d f8 0f          	cmpl   $0xf,-0x8(%ebp)
    33fe:	76 d8                	jbe    33d8 <v86_gpfh+0x399>
    3400:	eb fe                	jmp    3400 <v86_gpfh+0x3c1>
    3402:	c9                   	leave  
    3403:	c3                   	ret    
    3404:	0a 75 6e             	or     0x6e(%ebp),%dh
    3407:	68 61 6e 64 6c       	push   $0x6c646e61
    340c:	65 64 20 49 4e       	and    %cl,%fs:%gs:0x4e(%ecx)
    3411:	54                   	push   %esp
    3412:	31 35 68 20 45 38    	xor    %esi,0x38452068
    3418:	32 30                	xor    (%eax),%dh
    341a:	2c 20                	sub    $0x20,%al
    341c:	69 6e 76 61 6c 69 64 	imul   $0x64696c61,0x76(%esi),%ebp
    3423:	20 73 69             	and    %dh,0x69(%ebx)
    3426:	67 6e                	addr16 outsb %ds:(%si),(%dx)
    3428:	61                   	popa   
    3429:	74 75                	je     34a0 <v86_gpfh+0x461>
    342b:	72 65                	jb     3492 <v86_gpfh+0x453>
    342d:	21 00                	and    %eax,(%eax)
    342f:	90                   	nop    
    3430:	0a 69 6e             	or     0x6e(%ecx),%ch
    3433:	76 61                	jbe    3496 <v86_gpfh+0x457>
    3435:	6c                   	insb   (%dx),%es:(%edi)
    3436:	69 64 20 63 6f 6e 74 	imul   $0x69746e6f,0x63(%eax),%esp
    343d:	69 
    343e:	6e                   	outsb  %ds:(%esi),(%dx)
    343f:	75 61                	jne    34a2 <v86_gpfh+0x463>
    3441:	74 69                	je     34ac <handle_e820+0x3>
    3443:	6f                   	outsl  %ds:(%esi),(%dx)
    3444:	6e                   	outsb  %ds:(%esi),(%dx)
    3445:	20 76 61             	and    %dh,0x61(%esi)
    3448:	6c                   	insb   (%dx),%es:(%edi)
    3449:	75 65                	jne    34b0 <handle_e820+0x7>
    344b:	20 73 70             	and    %dh,0x70(%ebx)
    344e:	65 63 69 66          	arpl   %bp,%gs:0x66(%ecx)
    3452:	69 65 64 21 00 0a 45 	imul   $0x450a0021,0x64(%ebp),%esp
    3459:	43                   	inc    %ebx
    345a:	58                   	pop    %eax
    345b:	3d 25 75 00 0a       	cmp    $0xa007525,%eax
    3460:	72 65                	jb     34c7 <handle_e820+0x1e>
    3462:	74 75                	je     34d9 <handle_e820+0x30>
    3464:	72 6e                	jb     34d4 <handle_e820+0x2b>
    3466:	69 6e 67 20 66 6f 72 	imul   $0x726f6620,0x67(%esi),%ebp
    346d:	20 69 6e             	and    %ch,0x6e(%ecx)
    3470:	64                   	fs
    3471:	65                   	gs
    3472:	78 3d                	js     34b1 <handle_e820+0x8>
    3474:	25 75 00 0a 45       	and    $0x450a0075,%eax
    3479:	53                   	push   %ebx
    347a:	3d 30 78 25 30       	cmp    $0x30257830,%eax
    347f:	34 58                	xor    $0x58,%al
    3481:	2c 20                	sub    $0x20,%al
    3483:	44                   	inc    %esp
    3484:	49                   	dec    %ecx
    3485:	3d 30 78 25 30       	cmp    $0x30257830,%eax
    348a:	34 58                	xor    $0x58,%al
    348c:	00 0a                	add    %cl,(%edx)
    348e:	6e                   	outsb  %ds:(%esi),(%dx)
    348f:	65                   	gs
    3490:	78 74                	js     3506 <handle_e820+0x5d>
    3492:	20 63 6f             	and    %ah,0x6f(%ebx)
    3495:	6e                   	outsb  %ds:(%esi),(%dx)
    3496:	74 69                	je     3501 <handle_e820+0x58>
    3498:	6e                   	outsb  %ds:(%esi),(%dx)
    3499:	75 61                	jne    34fc <handle_e820+0x53>
    349b:	74 69                	je     3506 <handle_e820+0x5d>
    349d:	6f                   	outsl  %ds:(%esi),(%dx)
    349e:	6e                   	outsb  %ds:(%esi),(%dx)
    349f:	20 76 61             	and    %dh,0x61(%esi)
    34a2:	6c                   	insb   (%dx),%es:(%edi)
    34a3:	75 65                	jne    350a <handle_e820+0x61>
    34a5:	3d 25 75 00 55       	cmp    $0x55007525,%eax

00000000000034a9 <handle_e820>:
    34a9:	55                   	push   %ebp
    34aa:	89 e5                	mov    %esp,%ebp
    34ac:	83 ec 18             	sub    $0x18,%esp
    34af:	8b 45 08             	mov    0x8(%ebp),%eax
    34b2:	8b 40 0c             	mov    0xc(%eax),%eax
    34b5:	3d 50 41 4d 53       	cmp    $0x534d4150,%eax
    34ba:	74 0e                	je     34ca <handle_e820+0x21>
    34bc:	c7 04 24 04 34 00 70 	movl   $0x70003404,(%esp)
    34c3:	e8 b0 58 00 00       	call   8d78 <printf>
    34c8:	eb fe                	jmp    34c8 <handle_e820+0x1f>
    34ca:	8b 45 08             	mov    0x8(%ebp),%eax
    34cd:	8b 40 14             	mov    0x14(%eax),%eax
    34d0:	83 f8 0a             	cmp    $0xa,%eax
    34d3:	76 0e                	jbe    34e3 <handle_e820+0x3a>
    34d5:	c7 04 24 30 34 00 70 	movl   $0x70003430,(%esp)
    34dc:	e8 97 58 00 00       	call   8d78 <printf>
    34e1:	eb fe                	jmp    34e1 <handle_e820+0x38>
    34e3:	8b 45 08             	mov    0x8(%ebp),%eax
    34e6:	8b 40 10             	mov    0x10(%eax),%eax
    34e9:	89 44 24 04          	mov    %eax,0x4(%esp)
    34ed:	c7 04 24 57 34 00 70 	movl   $0x70003457,(%esp)
    34f4:	e8 7f 58 00 00       	call   8d78 <printf>
    34f9:	8b 45 08             	mov    0x8(%ebp),%eax
    34fc:	8b 40 14             	mov    0x14(%eax),%eax
    34ff:	89 44 24 04          	mov    %eax,0x4(%esp)
    3503:	c7 04 24 5f 34 00 70 	movl   $0x7000345f,(%esp)
    350a:	e8 69 58 00 00       	call   8d78 <printf>
    350f:	8b 45 08             	mov    0x8(%ebp),%eax
    3512:	8b 40 04             	mov    0x4(%eax),%eax
    3515:	0f b7 d0             	movzwl %ax,%edx
    3518:	8b 45 0c             	mov    0xc(%ebp),%eax
    351b:	8b 40 14             	mov    0x14(%eax),%eax
    351e:	0f b7 c0             	movzwl %ax,%eax
    3521:	89 54 24 08          	mov    %edx,0x8(%esp)
    3525:	89 44 24 04          	mov    %eax,0x4(%esp)
    3529:	c7 04 24 77 34 00 70 	movl   $0x70003477,(%esp)
    3530:	e8 43 58 00 00       	call   8d78 <printf>
    3535:	8b 45 08             	mov    0x8(%ebp),%eax
    3538:	8b 50 14             	mov    0x14(%eax),%edx
    353b:	89 d0                	mov    %edx,%eax
    353d:	c1 e0 02             	shl    $0x2,%eax
    3540:	01 d0                	add    %edx,%eax
    3542:	c1 e0 02             	shl    $0x2,%eax
    3545:	8d 88 90 96 00 70    	lea    0x70009690(%eax),%ecx
    354b:	8b 45 0c             	mov    0xc(%ebp),%eax
    354e:	8b 40 14             	mov    0x14(%eax),%eax
    3551:	89 c2                	mov    %eax,%edx
    3553:	c1 e2 04             	shl    $0x4,%edx
    3556:	8b 45 08             	mov    0x8(%ebp),%eax
    3559:	8b 40 04             	mov    0x4(%eax),%eax
    355c:	0f b7 c0             	movzwl %ax,%eax
    355f:	8d 04 02             	lea    (%edx,%eax,1),%eax
    3562:	c7 44 24 08 14 00 00 	movl   $0x14,0x8(%esp)
    3569:	00 
    356a:	89 4c 24 04          	mov    %ecx,0x4(%esp)
    356e:	89 04 24             	mov    %eax,(%esp)
    3571:	e8 f3 4a 00 00       	call   8069 <memcpy>
    3576:	8b 45 08             	mov    0x8(%ebp),%eax
    3579:	8b 40 14             	mov    0x14(%eax),%eax
    357c:	8d 50 01             	lea    0x1(%eax),%edx
    357f:	8b 45 08             	mov    0x8(%ebp),%eax
    3582:	89 50 14             	mov    %edx,0x14(%eax)
    3585:	8b 45 08             	mov    0x8(%ebp),%eax
    3588:	8b 50 0c             	mov    0xc(%eax),%edx
    358b:	8b 45 08             	mov    0x8(%ebp),%eax
    358e:	89 50 18             	mov    %edx,0x18(%eax)
    3591:	8b 45 08             	mov    0x8(%ebp),%eax
    3594:	c7 40 10 14 00 00 00 	movl   $0x14,0x10(%eax)
    359b:	8b 45 08             	mov    0x8(%ebp),%eax
    359e:	8b 40 14             	mov    0x14(%eax),%eax
    35a1:	83 f8 0a             	cmp    $0xa,%eax
    35a4:	76 1d                	jbe    35c3 <handle_e820+0x11a>
    35a6:	8b 45 08             	mov    0x8(%ebp),%eax
    35a9:	c7 40 14 00 00 00 00 	movl   $0x0,0x14(%eax)
    35b0:	8b 45 0c             	mov    0xc(%ebp),%eax
    35b3:	8b 40 08             	mov    0x8(%eax),%eax
    35b6:	89 c2                	mov    %eax,%edx
    35b8:	83 ca 01             	or     $0x1,%edx
    35bb:	8b 45 0c             	mov    0xc(%ebp),%eax
    35be:	89 50 08             	mov    %edx,0x8(%eax)
    35c1:	eb 11                	jmp    35d4 <handle_e820+0x12b>
    35c3:	8b 45 0c             	mov    0xc(%ebp),%eax
    35c6:	8b 40 08             	mov    0x8(%eax),%eax
    35c9:	89 c2                	mov    %eax,%edx
    35cb:	83 e2 fe             	and    $0xfffffffe,%edx
    35ce:	8b 45 0c             	mov    0xc(%ebp),%eax
    35d1:	89 50 08             	mov    %edx,0x8(%eax)
    35d4:	8b 45 08             	mov    0x8(%ebp),%eax
    35d7:	8b 40 14             	mov    0x14(%eax),%eax
    35da:	89 44 24 04          	mov    %eax,0x4(%esp)
    35de:	c7 04 24 8d 34 00 70 	movl   $0x7000348d,(%esp)
    35e5:	e8 8e 57 00 00       	call   8d78 <printf>
    35ea:	c9                   	leave  
    35eb:	c3                   	ret    
    35ec:	0a 45 38             	or     0x38(%ebp),%al
    35ef:	32 30                	xor    (%eax),%dh
    35f1:	20 72 65             	and    %dh,0x65(%edx)
    35f4:	71 75                	jno    366b <v86_handleinterrupt+0x58>
    35f6:	65                   	gs
    35f7:	73 74                	jae    366d <v86_handleinterrupt+0x5a>
    35f9:	20 61 74             	and    %ah,0x74(%ecx)
    35fc:	20 43 53             	and    %al,0x53(%ebx)
    35ff:	3a 45 49             	cmp    0x49(%ebp),%al
    3602:	50                   	push   %eax
    3603:	3d 30 78 25 30       	cmp    $0x30257830,%eax
    3608:	34 78                	xor    $0x78,%al
    360a:	3a 30                	cmp    (%eax),%dh
    360c:	78 25                	js     3633 <v86_handleinterrupt+0x20>
    360e:	30 38                	xor    %bh,(%eax)
    3610:	6c                   	insb   (%dx),%es:(%edi)
    3611:	78 00                	js     3613 <v86_handleinterrupt>

0000000000003613 <v86_handleinterrupt>:
    3613:	55                   	push   %ebp
    3614:	89 e5                	mov    %esp,%ebp
    3616:	83 ec 28             	sub    $0x28,%esp
    3619:	8b 45 0c             	mov    0xc(%ebp),%eax
    361c:	89 45 f4             	mov    %eax,-0xc(%ebp)
    361f:	8b 45 f4             	mov    -0xc(%ebp),%eax
    3622:	8b 40 1c             	mov    0x1c(%eax),%eax
    3625:	89 45 f8             	mov    %eax,-0x8(%ebp)
    3628:	83 7d 08 15          	cmpl   $0x15,0x8(%ebp)
    362c:	75 5a                	jne    3688 <v86_handleinterrupt+0x75>
    362e:	8b 45 f4             	mov    -0xc(%ebp),%eax
    3631:	8b 40 18             	mov    0x18(%eax),%eax
    3634:	3d 20 e8 00 00       	cmp    $0xe820,%eax
    3639:	75 4d                	jne    3688 <v86_handleinterrupt+0x75>
    363b:	8b 45 f8             	mov    -0x8(%ebp),%eax
    363e:	8b 10                	mov    (%eax),%edx
    3640:	8b 45 f8             	mov    -0x8(%ebp),%eax
    3643:	8b 40 04             	mov    0x4(%eax),%eax
    3646:	0f b7 c0             	movzwl %ax,%eax
    3649:	89 54 24 0c          	mov    %edx,0xc(%esp)
    364d:	89 44 24 08          	mov    %eax,0x8(%esp)
    3651:	8b 45 08             	mov    0x8(%ebp),%eax
    3654:	89 44 24 04          	mov    %eax,0x4(%esp)
    3658:	c7 04 24 ec 35 00 70 	movl   $0x700035ec,(%esp)
    365f:	e8 14 57 00 00       	call   8d78 <printf>
    3664:	8b 45 f8             	mov    -0x8(%ebp),%eax
    3667:	89 44 24 04          	mov    %eax,0x4(%esp)
    366b:	8b 45 f4             	mov    -0xc(%ebp),%eax
    366e:	89 04 24             	mov    %eax,(%esp)
    3671:	e8 33 fe ff ff       	call   34a9 <handle_e820>
    3676:	8b 45 f8             	mov    -0x8(%ebp),%eax
    3679:	8b 00                	mov    (%eax),%eax
    367b:	8d 50 02             	lea    0x2(%eax),%edx
    367e:	8b 45 f8             	mov    -0x8(%ebp),%eax
    3681:	89 10                	mov    %edx,(%eax)
    3683:	e9 c5 00 00 00       	jmp    374d <v86_handleinterrupt+0x13a>
    3688:	8b 45 f8             	mov    -0x8(%ebp),%eax
    368b:	8b 40 0c             	mov    0xc(%eax),%eax
    368e:	8d 50 fe             	lea    -0x2(%eax),%edx
    3691:	8b 45 f8             	mov    -0x8(%ebp),%eax
    3694:	89 50 0c             	mov    %edx,0xc(%eax)
    3697:	8b 45 f8             	mov    -0x8(%ebp),%eax
    369a:	8b 40 10             	mov    0x10(%eax),%eax
    369d:	89 c2                	mov    %eax,%edx
    369f:	c1 e2 04             	shl    $0x4,%edx
    36a2:	8b 45 f8             	mov    -0x8(%ebp),%eax
    36a5:	8b 40 0c             	mov    0xc(%eax),%eax
    36a8:	0f b7 c0             	movzwl %ax,%eax
    36ab:	8d 04 02             	lea    (%edx,%eax,1),%eax
    36ae:	89 45 fc             	mov    %eax,-0x4(%ebp)
    36b1:	8b 55 fc             	mov    -0x4(%ebp),%edx
    36b4:	8b 45 f8             	mov    -0x8(%ebp),%eax
    36b7:	8b 40 08             	mov    0x8(%eax),%eax
    36ba:	66 89 02             	mov    %ax,(%edx)
    36bd:	8b 45 f8             	mov    -0x8(%ebp),%eax
    36c0:	8b 40 0c             	mov    0xc(%eax),%eax
    36c3:	8d 50 fe             	lea    -0x2(%eax),%edx
    36c6:	8b 45 f8             	mov    -0x8(%ebp),%eax
    36c9:	89 50 0c             	mov    %edx,0xc(%eax)
    36cc:	8b 45 f8             	mov    -0x8(%ebp),%eax
    36cf:	8b 40 10             	mov    0x10(%eax),%eax
    36d2:	89 c2                	mov    %eax,%edx
    36d4:	c1 e2 04             	shl    $0x4,%edx
    36d7:	8b 45 f8             	mov    -0x8(%ebp),%eax
    36da:	8b 40 0c             	mov    0xc(%eax),%eax
    36dd:	0f b7 c0             	movzwl %ax,%eax
    36e0:	8d 04 02             	lea    (%edx,%eax,1),%eax
    36e3:	89 45 fc             	mov    %eax,-0x4(%ebp)
    36e6:	8b 55 fc             	mov    -0x4(%ebp),%edx
    36e9:	8b 45 f8             	mov    -0x8(%ebp),%eax
    36ec:	8b 40 04             	mov    0x4(%eax),%eax
    36ef:	66 89 02             	mov    %ax,(%edx)
    36f2:	8b 45 f8             	mov    -0x8(%ebp),%eax
    36f5:	8b 40 0c             	mov    0xc(%eax),%eax
    36f8:	8d 50 fe             	lea    -0x2(%eax),%edx
    36fb:	8b 45 f8             	mov    -0x8(%ebp),%eax
    36fe:	89 50 0c             	mov    %edx,0xc(%eax)
    3701:	8b 45 f8             	mov    -0x8(%ebp),%eax
    3704:	8b 40 10             	mov    0x10(%eax),%eax
    3707:	89 c2                	mov    %eax,%edx
    3709:	c1 e2 04             	shl    $0x4,%edx
    370c:	8b 45 f8             	mov    -0x8(%ebp),%eax
    370f:	8b 40 0c             	mov    0xc(%eax),%eax
    3712:	0f b7 c0             	movzwl %ax,%eax
    3715:	8d 04 02             	lea    (%edx,%eax,1),%eax
    3718:	89 45 fc             	mov    %eax,-0x4(%ebp)
    371b:	8b 55 fc             	mov    -0x4(%ebp),%edx
    371e:	8b 45 f8             	mov    -0x8(%ebp),%eax
    3721:	8b 00                	mov    (%eax),%eax
    3723:	66 89 02             	mov    %ax,(%edx)
    3726:	8b 45 08             	mov    0x8(%ebp),%eax
    3729:	01 c0                	add    %eax,%eax
    372b:	83 c0 01             	add    $0x1,%eax
    372e:	01 c0                	add    %eax,%eax
    3730:	0f b7 00             	movzwl (%eax),%eax
    3733:	0f b7 d0             	movzwl %ax,%edx
    3736:	8b 45 f8             	mov    -0x8(%ebp),%eax
    3739:	89 50 04             	mov    %edx,0x4(%eax)
    373c:	8b 45 08             	mov    0x8(%ebp),%eax
    373f:	c1 e0 02             	shl    $0x2,%eax
    3742:	0f b7 00             	movzwl (%eax),%eax
    3745:	0f b7 d0             	movzwl %ax,%edx
    3748:	8b 45 f8             	mov    -0x8(%ebp),%eax
    374b:	89 10                	mov    %edx,(%eax)
    374d:	c9                   	leave  
    374e:	c3                   	ret    
    374f:	90                   	nop    

0000000000003750 <.text>:
    3750:	49                   	dec    %ecx
    3751:	41                   	inc    %ecx
    3752:	33 32                	xor    (%edx),%esi
    3754:	5f                   	pop    %edi
    3755:	56                   	push   %esi
    3756:	4d                   	dec    %ebp
    3757:	58                   	pop    %eax
    3758:	5f                   	pop    %edi
    3759:	42                   	inc    %edx
    375a:	41                   	inc    %ecx
    375b:	53                   	push   %ebx
    375c:	49                   	dec    %ecx
    375d:	43                   	inc    %ebx
    375e:	5f                   	pop    %edi
    375f:	4d                   	dec    %ebp
    3760:	53                   	push   %ebx
    3761:	52                   	push   %edx
    3762:	00 49 41             	add    %cl,0x41(%ecx)
    3765:	33 32                	xor    (%edx),%esi
    3767:	5f                   	pop    %edi
    3768:	56                   	push   %esi
    3769:	4d                   	dec    %ebp
    376a:	58                   	pop    %eax
    376b:	5f                   	pop    %edi
    376c:	50                   	push   %eax
    376d:	49                   	dec    %ecx
    376e:	4e                   	dec    %esi
    376f:	42                   	inc    %edx
    3770:	41                   	inc    %ecx
    3771:	53                   	push   %ebx
    3772:	45                   	inc    %ebp
    3773:	44                   	inc    %esp
    3774:	5f                   	pop    %edi
    3775:	43                   	inc    %ebx
    3776:	54                   	push   %esp
    3777:	4c                   	dec    %esp
    3778:	53                   	push   %ebx
    3779:	5f                   	pop    %edi
    377a:	4d                   	dec    %ebp
    377b:	53                   	push   %ebx
    377c:	52                   	push   %edx
    377d:	00 49 41             	add    %cl,0x41(%ecx)
    3780:	33 32                	xor    (%edx),%esi
    3782:	5f                   	pop    %edi
    3783:	56                   	push   %esi
    3784:	4d                   	dec    %ebp
    3785:	58                   	pop    %eax
    3786:	5f                   	pop    %edi
    3787:	50                   	push   %eax
    3788:	52                   	push   %edx
    3789:	4f                   	dec    %edi
    378a:	43                   	inc    %ebx
    378b:	42                   	inc    %edx
    378c:	41                   	inc    %ecx
    378d:	53                   	push   %ebx
    378e:	45                   	inc    %ebp
    378f:	44                   	inc    %esp
    3790:	5f                   	pop    %edi
    3791:	43                   	inc    %ebx
    3792:	54                   	push   %esp
    3793:	4c                   	dec    %esp
    3794:	53                   	push   %ebx
    3795:	5f                   	pop    %edi
    3796:	4d                   	dec    %ebp
    3797:	53                   	push   %ebx
    3798:	52                   	push   %edx
    3799:	00 49 41             	add    %cl,0x41(%ecx)
    379c:	33 32                	xor    (%edx),%esi
    379e:	5f                   	pop    %edi
    379f:	56                   	push   %esi
    37a0:	4d                   	dec    %ebp
    37a1:	58                   	pop    %eax
    37a2:	5f                   	pop    %edi
    37a3:	45                   	inc    %ebp
    37a4:	58                   	pop    %eax
    37a5:	49                   	dec    %ecx
    37a6:	54                   	push   %esp
    37a7:	5f                   	pop    %edi
    37a8:	43                   	inc    %ebx
    37a9:	54                   	push   %esp
    37aa:	4c                   	dec    %esp
    37ab:	53                   	push   %ebx
    37ac:	5f                   	pop    %edi
    37ad:	4d                   	dec    %ebp
    37ae:	53                   	push   %ebx
    37af:	52                   	push   %edx
    37b0:	00 49 41             	add    %cl,0x41(%ecx)
    37b3:	33 32                	xor    (%edx),%esi
    37b5:	5f                   	pop    %edi
    37b6:	56                   	push   %esi
    37b7:	4d                   	dec    %ebp
    37b8:	58                   	pop    %eax
    37b9:	5f                   	pop    %edi
    37ba:	45                   	inc    %ebp
    37bb:	4e                   	dec    %esi
    37bc:	54                   	push   %esp
    37bd:	52                   	push   %edx
    37be:	59                   	pop    %ecx
    37bf:	5f                   	pop    %edi
    37c0:	43                   	inc    %ebx
    37c1:	54                   	push   %esp
    37c2:	4c                   	dec    %esp
    37c3:	53                   	push   %ebx
    37c4:	5f                   	pop    %edi
    37c5:	4d                   	dec    %ebp
    37c6:	53                   	push   %ebx
    37c7:	52                   	push   %edx
    37c8:	00 49 41             	add    %cl,0x41(%ecx)
    37cb:	33 32                	xor    (%edx),%esi
    37cd:	5f                   	pop    %edi
    37ce:	56                   	push   %esi
    37cf:	4d                   	dec    %ebp
    37d0:	58                   	pop    %eax
    37d1:	5f                   	pop    %edi
    37d2:	4d                   	dec    %ebp
    37d3:	49                   	dec    %ecx
    37d4:	53                   	push   %ebx
    37d5:	43                   	inc    %ebx
    37d6:	5f                   	pop    %edi
    37d7:	4d                   	dec    %ebp
    37d8:	53                   	push   %ebx
    37d9:	52                   	push   %edx
    37da:	00 49 41             	add    %cl,0x41(%ecx)
    37dd:	33 32                	xor    (%edx),%esi
    37df:	5f                   	pop    %edi
    37e0:	56                   	push   %esi
    37e1:	4d                   	dec    %ebp
    37e2:	58                   	pop    %eax
    37e3:	5f                   	pop    %edi
    37e4:	43                   	inc    %ebx
    37e5:	52                   	push   %edx
    37e6:	30 5f 46             	xor    %bl,0x46(%edi)
    37e9:	49                   	dec    %ecx
    37ea:	58                   	pop    %eax
    37eb:	45                   	inc    %ebp
    37ec:	44                   	inc    %esp
    37ed:	30 5f 4d             	xor    %bl,0x4d(%edi)
    37f0:	53                   	push   %ebx
    37f1:	52                   	push   %edx
    37f2:	00 49 41             	add    %cl,0x41(%ecx)
    37f5:	33 32                	xor    (%edx),%esi
    37f7:	5f                   	pop    %edi
    37f8:	56                   	push   %esi
    37f9:	4d                   	dec    %ebp
    37fa:	58                   	pop    %eax
    37fb:	5f                   	pop    %edi
    37fc:	43                   	inc    %ebx
    37fd:	52                   	push   %edx
    37fe:	30 5f 46             	xor    %bl,0x46(%edi)
    3801:	49                   	dec    %ecx
    3802:	58                   	pop    %eax
    3803:	45                   	inc    %ebp
    3804:	44                   	inc    %esp
    3805:	31 5f 4d             	xor    %ebx,0x4d(%edi)
    3808:	53                   	push   %ebx
    3809:	52                   	push   %edx
    380a:	00 49 41             	add    %cl,0x41(%ecx)
    380d:	33 32                	xor    (%edx),%esi
    380f:	5f                   	pop    %edi
    3810:	56                   	push   %esi
    3811:	4d                   	dec    %ebp
    3812:	58                   	pop    %eax
    3813:	5f                   	pop    %edi
    3814:	43                   	inc    %ebx
    3815:	52                   	push   %edx
    3816:	34 5f                	xor    $0x5f,%al
    3818:	46                   	inc    %esi
    3819:	49                   	dec    %ecx
    381a:	58                   	pop    %eax
    381b:	45                   	inc    %ebp
    381c:	44                   	inc    %esp
    381d:	30 5f 4d             	xor    %bl,0x4d(%edi)
    3820:	53                   	push   %ebx
    3821:	52                   	push   %edx
    3822:	00 49 41             	add    %cl,0x41(%ecx)
    3825:	33 32                	xor    (%edx),%esi
    3827:	5f                   	pop    %edi
    3828:	56                   	push   %esi
    3829:	4d                   	dec    %ebp
    382a:	58                   	pop    %eax
    382b:	5f                   	pop    %edi
    382c:	43                   	inc    %ebx
    382d:	52                   	push   %edx
    382e:	34 5f                	xor    $0x5f,%al
    3830:	46                   	inc    %esi
    3831:	49                   	dec    %ecx
    3832:	58                   	pop    %eax
    3833:	45                   	inc    %ebp
    3834:	44                   	inc    %esp
    3835:	31 5f 4d             	xor    %ebx,0x4d(%edi)
    3838:	53                   	push   %ebx
    3839:	52                   	push   %edx
    383a:	00 49 41             	add    %cl,0x41(%ecx)
    383d:	33 32                	xor    (%edx),%esi
    383f:	5f                   	pop    %edi
    3840:	56                   	push   %esi
    3841:	4d                   	dec    %ebp
    3842:	58                   	pop    %eax
    3843:	5f                   	pop    %edi
    3844:	56                   	push   %esi
    3845:	4d                   	dec    %ebp
    3846:	43                   	inc    %ebx
    3847:	53                   	push   %ebx
    3848:	5f                   	pop    %edi
    3849:	45                   	inc    %ebp
    384a:	4e                   	dec    %esi
    384b:	55                   	push   %ebp
    384c:	4d                   	dec    %ebp
    384d:	5f                   	pop    %edi
    384e:	4d                   	dec    %ebp
    384f:	53                   	push   %ebx
    3850:	52                   	push   %edx
    3851:	00 49 41             	add    %cl,0x41(%ecx)
    3854:	33 32                	xor    (%edx),%esi
    3856:	5f                   	pop    %edi
    3857:	56                   	push   %esi
    3858:	4d                   	dec    %ebp
    3859:	58                   	pop    %eax
    385a:	5f                   	pop    %edi
    385b:	50                   	push   %eax
    385c:	52                   	push   %edx
    385d:	4f                   	dec    %edi
    385e:	43                   	inc    %ebx
    385f:	42                   	inc    %edx
    3860:	41                   	inc    %ecx
    3861:	53                   	push   %ebx
    3862:	45                   	inc    %ebp
    3863:	44                   	inc    %esp
    3864:	5f                   	pop    %edi
    3865:	43                   	inc    %ebx
    3866:	54                   	push   %esp
    3867:	4c                   	dec    %esp
    3868:	53                   	push   %ebx
    3869:	32 5f 4d             	xor    0x4d(%edi),%bl
    386c:	53                   	push   %ebx
    386d:	52                   	push   %edx
    386e:	00 0a                	add    %cl,(%edx)
    3870:	47                   	inc    %edi
    3871:	75 65                	jne    38d8 <.text+0x188>
    3873:	73 74                	jae    38e9 <.text+0x199>
    3875:	20 53 74             	and    %dl,0x74(%ebx)
    3878:	61                   	popa   
    3879:	74 65                	je     38e0 <.text+0x190>
    387b:	20 66 6f             	and    %ah,0x6f(%esi)
    387e:	6c                   	insb   (%dx),%es:(%edi)
    387f:	6c                   	insb   (%dx),%es:(%edi)
    3880:	6f                   	outsl  %ds:(%esi),(%dx)
    3881:	77 73                	ja     38f6 <.text+0x1a6>
    3883:	3a 00                	cmp    (%eax),%al
    3885:	0a 67 75             	or     0x75(%edi),%ah
    3888:	65                   	gs
    3889:	73 74                	jae    38ff <.text+0x1af>
    388b:	5f                   	pop    %edi
    388c:	43                   	inc    %ebx
    388d:	53                   	push   %ebx
    388e:	5f                   	pop    %edi
    388f:	73 65                	jae    38f6 <.text+0x1a6>
    3891:	6c                   	insb   (%dx),%es:(%edi)
    3892:	65 63 74 6f 72       	arpl   %si,%gs:0x72(%edi,%ebp,2)
    3897:	3d 30 78 25 30       	cmp    $0x30257830,%eax
    389c:	34 78                	xor    $0x78,%al
    389e:	00 0a                	add    %cl,(%edx)
    38a0:	67 75 65             	addr16 jne 3908 <.text+0x1b8>
    38a3:	73 74                	jae    3919 <.text+0x1c9>
    38a5:	5f                   	pop    %edi
    38a6:	44                   	inc    %esp
    38a7:	53                   	push   %ebx
    38a8:	5f                   	pop    %edi
    38a9:	73 65                	jae    3910 <.text+0x1c0>
    38ab:	6c                   	insb   (%dx),%es:(%edi)
    38ac:	65 63 74 6f 72       	arpl   %si,%gs:0x72(%edi,%ebp,2)
    38b1:	3d 30 78 25 30       	cmp    $0x30257830,%eax
    38b6:	34 78                	xor    $0x78,%al
    38b8:	00 0a                	add    %cl,(%edx)
    38ba:	67 75 65             	addr16 jne 3922 <.text+0x1d2>
    38bd:	73 74                	jae    3933 <.text+0x1e3>
    38bf:	5f                   	pop    %edi
    38c0:	45                   	inc    %ebp
    38c1:	53                   	push   %ebx
    38c2:	5f                   	pop    %edi
    38c3:	73 65                	jae    392a <.text+0x1da>
    38c5:	6c                   	insb   (%dx),%es:(%edi)
    38c6:	65 63 74 6f 72       	arpl   %si,%gs:0x72(%edi,%ebp,2)
    38cb:	3d 30 78 25 30       	cmp    $0x30257830,%eax
    38d0:	34 78                	xor    $0x78,%al
    38d2:	00 0a                	add    %cl,(%edx)
    38d4:	67 75 65             	addr16 jne 393c <.text+0x1ec>
    38d7:	73 74                	jae    394d <.text+0x1fd>
    38d9:	5f                   	pop    %edi
    38da:	46                   	inc    %esi
    38db:	53                   	push   %ebx
    38dc:	5f                   	pop    %edi
    38dd:	73 65                	jae    3944 <.text+0x1f4>
    38df:	6c                   	insb   (%dx),%es:(%edi)
    38e0:	65 63 74 6f 72       	arpl   %si,%gs:0x72(%edi,%ebp,2)
    38e5:	3d 30 78 25 30       	cmp    $0x30257830,%eax
    38ea:	34 78                	xor    $0x78,%al
    38ec:	00 0a                	add    %cl,(%edx)
    38ee:	67 75 65             	addr16 jne 3956 <.text+0x206>
    38f1:	73 74                	jae    3967 <.text+0x217>
    38f3:	5f                   	pop    %edi
    38f4:	47                   	inc    %edi
    38f5:	53                   	push   %ebx
    38f6:	5f                   	pop    %edi
    38f7:	73 65                	jae    395e <.text+0x20e>
    38f9:	6c                   	insb   (%dx),%es:(%edi)
    38fa:	65 63 74 6f 72       	arpl   %si,%gs:0x72(%edi,%ebp,2)
    38ff:	3d 30 78 25 30       	cmp    $0x30257830,%eax
    3904:	34 78                	xor    $0x78,%al
    3906:	00 0a                	add    %cl,(%edx)
    3908:	67 75 65             	addr16 jne 3970 <.text+0x220>
    390b:	73 74                	jae    3981 <.text+0x231>
    390d:	5f                   	pop    %edi
    390e:	53                   	push   %ebx
    390f:	53                   	push   %ebx
    3910:	5f                   	pop    %edi
    3911:	73 65                	jae    3978 <.text+0x228>
    3913:	6c                   	insb   (%dx),%es:(%edi)
    3914:	65 63 74 6f 72       	arpl   %si,%gs:0x72(%edi,%ebp,2)
    3919:	3d 30 78 25 30       	cmp    $0x30257830,%eax
    391e:	34 78                	xor    $0x78,%al
    3920:	00 0a                	add    %cl,(%edx)
    3922:	67 75 65             	addr16 jne 398a <.text+0x23a>
    3925:	73 74                	jae    399b <.text+0x24b>
    3927:	5f                   	pop    %edi
    3928:	54                   	push   %esp
    3929:	52                   	push   %edx
    392a:	5f                   	pop    %edi
    392b:	73 65                	jae    3992 <.text+0x242>
    392d:	6c                   	insb   (%dx),%es:(%edi)
    392e:	65 63 74 6f 72       	arpl   %si,%gs:0x72(%edi,%ebp,2)
    3933:	3d 30 78 25 30       	cmp    $0x30257830,%eax
    3938:	34 78                	xor    $0x78,%al
    393a:	00 0a                	add    %cl,(%edx)
    393c:	67 75 65             	addr16 jne 39a4 <.text+0x254>
    393f:	73 74                	jae    39b5 <.text+0x265>
    3941:	5f                   	pop    %edi
    3942:	4c                   	dec    %esp
    3943:	44                   	inc    %esp
    3944:	54                   	push   %esp
    3945:	52                   	push   %edx
    3946:	5f                   	pop    %edi
    3947:	73 65                	jae    39ae <.text+0x25e>
    3949:	6c                   	insb   (%dx),%es:(%edi)
    394a:	65 63 74 6f 72       	arpl   %si,%gs:0x72(%edi,%ebp,2)
    394f:	3d 30 78 25 30       	cmp    $0x30257830,%eax
    3954:	34 78                	xor    $0x78,%al
    3956:	00 90 0a 67 75 65    	add    %dl,0x6575670a(%eax)
    395c:	73 74                	jae    39d2 <.text+0x282>
    395e:	5f                   	pop    %edi
    395f:	43                   	inc    %ebx
    3960:	53                   	push   %ebx
    3961:	5f                   	pop    %edi
    3962:	61                   	popa   
    3963:	63 63 65             	arpl   %sp,0x65(%ebx)
    3966:	73 73                	jae    39db <.text+0x28b>
    3968:	5f                   	pop    %edi
    3969:	72 69                	jb     39d4 <.text+0x284>
    396b:	67 68 74 73 3d 30    	addr16 push $0x303d7374
    3971:	78 25                	js     3998 <.text+0x248>
    3973:	30 38                	xor    %bh,(%eax)
    3975:	6c                   	insb   (%dx),%es:(%edi)
    3976:	78 00                	js     3978 <.text+0x228>
    3978:	0a 67 75             	or     0x75(%edi),%ah
    397b:	65                   	gs
    397c:	73 74                	jae    39f2 <.text+0x2a2>
    397e:	5f                   	pop    %edi
    397f:	44                   	inc    %esp
    3980:	53                   	push   %ebx
    3981:	5f                   	pop    %edi
    3982:	61                   	popa   
    3983:	63 63 65             	arpl   %sp,0x65(%ebx)
    3986:	73 73                	jae    39fb <.text+0x2ab>
    3988:	5f                   	pop    %edi
    3989:	72 69                	jb     39f4 <.text+0x2a4>
    398b:	67 68 74 73 3d 30    	addr16 push $0x303d7374
    3991:	78 25                	js     39b8 <.text+0x268>
    3993:	30 38                	xor    %bh,(%eax)
    3995:	6c                   	insb   (%dx),%es:(%edi)
    3996:	78 00                	js     3998 <.text+0x248>
    3998:	0a 67 75             	or     0x75(%edi),%ah
    399b:	65                   	gs
    399c:	73 74                	jae    3a12 <.text+0x2c2>
    399e:	5f                   	pop    %edi
    399f:	45                   	inc    %ebp
    39a0:	53                   	push   %ebx
    39a1:	5f                   	pop    %edi
    39a2:	61                   	popa   
    39a3:	63 63 65             	arpl   %sp,0x65(%ebx)
    39a6:	73 73                	jae    3a1b <.text+0x2cb>
    39a8:	5f                   	pop    %edi
    39a9:	72 69                	jb     3a14 <.text+0x2c4>
    39ab:	67 68 74 73 3d 30    	addr16 push $0x303d7374
    39b1:	78 25                	js     39d8 <.text+0x288>
    39b3:	30 38                	xor    %bh,(%eax)
    39b5:	6c                   	insb   (%dx),%es:(%edi)
    39b6:	78 00                	js     39b8 <.text+0x268>
    39b8:	0a 67 75             	or     0x75(%edi),%ah
    39bb:	65                   	gs
    39bc:	73 74                	jae    3a32 <.text+0x2e2>
    39be:	5f                   	pop    %edi
    39bf:	46                   	inc    %esi
    39c0:	53                   	push   %ebx
    39c1:	5f                   	pop    %edi
    39c2:	61                   	popa   
    39c3:	63 63 65             	arpl   %sp,0x65(%ebx)
    39c6:	73 73                	jae    3a3b <.text+0x2eb>
    39c8:	5f                   	pop    %edi
    39c9:	72 69                	jb     3a34 <.text+0x2e4>
    39cb:	67 68 74 73 3d 30    	addr16 push $0x303d7374
    39d1:	78 25                	js     39f8 <.text+0x2a8>
    39d3:	30 38                	xor    %bh,(%eax)
    39d5:	6c                   	insb   (%dx),%es:(%edi)
    39d6:	78 00                	js     39d8 <.text+0x288>
    39d8:	0a 67 75             	or     0x75(%edi),%ah
    39db:	65                   	gs
    39dc:	73 74                	jae    3a52 <.text+0x302>
    39de:	5f                   	pop    %edi
    39df:	47                   	inc    %edi
    39e0:	53                   	push   %ebx
    39e1:	5f                   	pop    %edi
    39e2:	61                   	popa   
    39e3:	63 63 65             	arpl   %sp,0x65(%ebx)
    39e6:	73 73                	jae    3a5b <.text+0x30b>
    39e8:	5f                   	pop    %edi
    39e9:	72 69                	jb     3a54 <.text+0x304>
    39eb:	67 68 74 73 3d 30    	addr16 push $0x303d7374
    39f1:	78 25                	js     3a18 <.text+0x2c8>
    39f3:	30 38                	xor    %bh,(%eax)
    39f5:	6c                   	insb   (%dx),%es:(%edi)
    39f6:	78 00                	js     39f8 <.text+0x2a8>
    39f8:	0a 67 75             	or     0x75(%edi),%ah
    39fb:	65                   	gs
    39fc:	73 74                	jae    3a72 <.text+0x322>
    39fe:	5f                   	pop    %edi
    39ff:	53                   	push   %ebx
    3a00:	53                   	push   %ebx
    3a01:	5f                   	pop    %edi
    3a02:	61                   	popa   
    3a03:	63 63 65             	arpl   %sp,0x65(%ebx)
    3a06:	73 73                	jae    3a7b <.text+0x32b>
    3a08:	5f                   	pop    %edi
    3a09:	72 69                	jb     3a74 <.text+0x324>
    3a0b:	67 68 74 73 3d 30    	addr16 push $0x303d7374
    3a11:	78 25                	js     3a38 <.text+0x2e8>
    3a13:	30 38                	xor    %bh,(%eax)
    3a15:	6c                   	insb   (%dx),%es:(%edi)
    3a16:	78 00                	js     3a18 <.text+0x2c8>
    3a18:	0a 67 75             	or     0x75(%edi),%ah
    3a1b:	65                   	gs
    3a1c:	73 74                	jae    3a92 <.text+0x342>
    3a1e:	5f                   	pop    %edi
    3a1f:	54                   	push   %esp
    3a20:	52                   	push   %edx
    3a21:	5f                   	pop    %edi
    3a22:	61                   	popa   
    3a23:	63 63 65             	arpl   %sp,0x65(%ebx)
    3a26:	73 73                	jae    3a9b <.text+0x34b>
    3a28:	5f                   	pop    %edi
    3a29:	72 69                	jb     3a94 <.text+0x344>
    3a2b:	67 68 74 73 3d 30    	addr16 push $0x303d7374
    3a31:	78 25                	js     3a58 <.text+0x308>
    3a33:	30 38                	xor    %bh,(%eax)
    3a35:	6c                   	insb   (%dx),%es:(%edi)
    3a36:	78 00                	js     3a38 <.text+0x2e8>
    3a38:	0a 67 75             	or     0x75(%edi),%ah
    3a3b:	65                   	gs
    3a3c:	73 74                	jae    3ab2 <.text+0x362>
    3a3e:	5f                   	pop    %edi
    3a3f:	4c                   	dec    %esp
    3a40:	44                   	inc    %esp
    3a41:	54                   	push   %esp
    3a42:	52                   	push   %edx
    3a43:	5f                   	pop    %edi
    3a44:	61                   	popa   
    3a45:	63 63 65             	arpl   %sp,0x65(%ebx)
    3a48:	73 73                	jae    3abd <.text+0x36d>
    3a4a:	5f                   	pop    %edi
    3a4b:	72 69                	jb     3ab6 <.text+0x366>
    3a4d:	67 68 74 73 3d 30    	addr16 push $0x303d7374
    3a53:	78 25                	js     3a7a <.text+0x32a>
    3a55:	30 38                	xor    %bh,(%eax)
    3a57:	6c                   	insb   (%dx),%es:(%edi)
    3a58:	78 00                	js     3a5a <.text+0x30a>
    3a5a:	66 90                	xchg   %ax,%ax
    3a5c:	0a 67 75             	or     0x75(%edi),%ah
    3a5f:	65                   	gs
    3a60:	73 74                	jae    3ad6 <.text+0x386>
    3a62:	5f                   	pop    %edi
    3a63:	43                   	inc    %ebx
    3a64:	53                   	push   %ebx
    3a65:	5f                   	pop    %edi
    3a66:	62 61 73             	bound  %esp,0x73(%ecx)
    3a69:	65                   	gs
    3a6a:	2f                   	das    
    3a6b:	6c                   	insb   (%dx),%es:(%edi)
    3a6c:	69 6d 69 74 3d 30 78 	imul   $0x78303d74,0x69(%ebp),%ebp
    3a73:	25 30 38 6c 78       	and    $0x786c3830,%eax
    3a78:	2f                   	das    
    3a79:	30 78 25             	xor    %bh,0x25(%eax)
    3a7c:	30 34 78             	xor    %dh,(%eax,%edi,2)
    3a7f:	00 0a                	add    %cl,(%edx)
    3a81:	67 75 65             	addr16 jne 3ae9 <.text+0x399>
    3a84:	73 74                	jae    3afa <.text+0x3aa>
    3a86:	5f                   	pop    %edi
    3a87:	44                   	inc    %esp
    3a88:	53                   	push   %ebx
    3a89:	5f                   	pop    %edi
    3a8a:	62 61 73             	bound  %esp,0x73(%ecx)
    3a8d:	65                   	gs
    3a8e:	2f                   	das    
    3a8f:	6c                   	insb   (%dx),%es:(%edi)
    3a90:	69 6d 69 74 3d 30 78 	imul   $0x78303d74,0x69(%ebp),%ebp
    3a97:	25 30 38 6c 78       	and    $0x786c3830,%eax
    3a9c:	2f                   	das    
    3a9d:	30 78 25             	xor    %bh,0x25(%eax)
    3aa0:	30 34 78             	xor    %dh,(%eax,%edi,2)
    3aa3:	00 0a                	add    %cl,(%edx)
    3aa5:	67 75 65             	addr16 jne 3b0d <.text+0x3bd>
    3aa8:	73 74                	jae    3b1e <.text+0x3ce>
    3aaa:	5f                   	pop    %edi
    3aab:	45                   	inc    %ebp
    3aac:	53                   	push   %ebx
    3aad:	5f                   	pop    %edi
    3aae:	62 61 73             	bound  %esp,0x73(%ecx)
    3ab1:	65                   	gs
    3ab2:	2f                   	das    
    3ab3:	6c                   	insb   (%dx),%es:(%edi)
    3ab4:	69 6d 69 74 3d 30 78 	imul   $0x78303d74,0x69(%ebp),%ebp
    3abb:	25 30 38 6c 78       	and    $0x786c3830,%eax
    3ac0:	2f                   	das    
    3ac1:	30 78 25             	xor    %bh,0x25(%eax)
    3ac4:	30 34 78             	xor    %dh,(%eax,%edi,2)
    3ac7:	00 0a                	add    %cl,(%edx)
    3ac9:	67 75 65             	addr16 jne 3b31 <.text+0x3e1>
    3acc:	73 74                	jae    3b42 <.text+0x3f2>
    3ace:	5f                   	pop    %edi
    3acf:	46                   	inc    %esi
    3ad0:	53                   	push   %ebx
    3ad1:	5f                   	pop    %edi
    3ad2:	62 61 73             	bound  %esp,0x73(%ecx)
    3ad5:	65                   	gs
    3ad6:	2f                   	das    
    3ad7:	6c                   	insb   (%dx),%es:(%edi)
    3ad8:	69 6d 69 74 3d 30 78 	imul   $0x78303d74,0x69(%ebp),%ebp
    3adf:	25 30 38 6c 78       	and    $0x786c3830,%eax
    3ae4:	2f                   	das    
    3ae5:	30 78 25             	xor    %bh,0x25(%eax)
    3ae8:	30 34 78             	xor    %dh,(%eax,%edi,2)
    3aeb:	00 0a                	add    %cl,(%edx)
    3aed:	67 75 65             	addr16 jne 3b55 <.text+0x405>
    3af0:	73 74                	jae    3b66 <.text+0x416>
    3af2:	5f                   	pop    %edi
    3af3:	47                   	inc    %edi
    3af4:	53                   	push   %ebx
    3af5:	5f                   	pop    %edi
    3af6:	62 61 73             	bound  %esp,0x73(%ecx)
    3af9:	65                   	gs
    3afa:	2f                   	das    
    3afb:	6c                   	insb   (%dx),%es:(%edi)
    3afc:	69 6d 69 74 3d 30 78 	imul   $0x78303d74,0x69(%ebp),%ebp
    3b03:	25 30 38 6c 78       	and    $0x786c3830,%eax
    3b08:	2f                   	das    
    3b09:	30 78 25             	xor    %bh,0x25(%eax)
    3b0c:	30 34 78             	xor    %dh,(%eax,%edi,2)
    3b0f:	00 0a                	add    %cl,(%edx)
    3b11:	67 75 65             	addr16 jne 3b79 <.text+0x429>
    3b14:	73 74                	jae    3b8a <.text+0x43a>
    3b16:	5f                   	pop    %edi
    3b17:	53                   	push   %ebx
    3b18:	53                   	push   %ebx
    3b19:	5f                   	pop    %edi
    3b1a:	62 61 73             	bound  %esp,0x73(%ecx)
    3b1d:	65                   	gs
    3b1e:	2f                   	das    
    3b1f:	6c                   	insb   (%dx),%es:(%edi)
    3b20:	69 6d 69 74 3d 30 78 	imul   $0x78303d74,0x69(%ebp),%ebp
    3b27:	25 30 38 6c 78       	and    $0x786c3830,%eax
    3b2c:	2f                   	das    
    3b2d:	30 78 25             	xor    %bh,0x25(%eax)
    3b30:	30 34 78             	xor    %dh,(%eax,%edi,2)
    3b33:	00 0a                	add    %cl,(%edx)
    3b35:	67 75 65             	addr16 jne 3b9d <.text+0x44d>
    3b38:	73 74                	jae    3bae <.text+0x45e>
    3b3a:	5f                   	pop    %edi
    3b3b:	47                   	inc    %edi
    3b3c:	44                   	inc    %esp
    3b3d:	54                   	push   %esp
    3b3e:	52                   	push   %edx
    3b3f:	5f                   	pop    %edi
    3b40:	62 61 73             	bound  %esp,0x73(%ecx)
    3b43:	65                   	gs
    3b44:	2f                   	das    
    3b45:	6c                   	insb   (%dx),%es:(%edi)
    3b46:	69 6d 69 74 3d 30 78 	imul   $0x78303d74,0x69(%ebp),%ebp
    3b4d:	25 30 38 6c 78       	and    $0x786c3830,%eax
    3b52:	2f                   	das    
    3b53:	30 78 25             	xor    %bh,0x25(%eax)
    3b56:	30 34 78             	xor    %dh,(%eax,%edi,2)
    3b59:	00 66 90             	add    %ah,-0x70(%esi)
    3b5c:	0a 67 75             	or     0x75(%edi),%ah
    3b5f:	65                   	gs
    3b60:	73 74                	jae    3bd6 <.text+0x486>
    3b62:	5f                   	pop    %edi
    3b63:	49                   	dec    %ecx
    3b64:	44                   	inc    %esp
    3b65:	54                   	push   %esp
    3b66:	52                   	push   %edx
    3b67:	5f                   	pop    %edi
    3b68:	62 61 73             	bound  %esp,0x73(%ecx)
    3b6b:	65                   	gs
    3b6c:	2f                   	das    
    3b6d:	6c                   	insb   (%dx),%es:(%edi)
    3b6e:	69 6d 69 74 3d 30 78 	imul   $0x78303d74,0x69(%ebp),%ebp
    3b75:	25 30 38 6c 78       	and    $0x786c3830,%eax
    3b7a:	2f                   	das    
    3b7b:	30 78 25             	xor    %bh,0x25(%eax)
    3b7e:	30 34 78             	xor    %dh,(%eax,%edi,2)
    3b81:	00 66 90             	add    %ah,-0x70(%esi)
    3b84:	0a 67 75             	or     0x75(%edi),%ah
    3b87:	65                   	gs
    3b88:	73 74                	jae    3bfe <.text+0x4ae>
    3b8a:	5f                   	pop    %edi
    3b8b:	54                   	push   %esp
    3b8c:	52                   	push   %edx
    3b8d:	5f                   	pop    %edi
    3b8e:	62 61 73             	bound  %esp,0x73(%ecx)
    3b91:	65                   	gs
    3b92:	2f                   	das    
    3b93:	6c                   	insb   (%dx),%es:(%edi)
    3b94:	69 6d 69 74 3d 30 78 	imul   $0x78303d74,0x69(%ebp),%ebp
    3b9b:	25 30 38 6c 78       	and    $0x786c3830,%eax
    3ba0:	2f                   	das    
    3ba1:	30 78 25             	xor    %bh,0x25(%eax)
    3ba4:	30 34 78             	xor    %dh,(%eax,%edi,2)
    3ba7:	00 0a                	add    %cl,(%edx)
    3ba9:	67 75 65             	addr16 jne 3c11 <.text+0x4c1>
    3bac:	73 74                	jae    3c22 <.text+0x4d2>
    3bae:	5f                   	pop    %edi
    3baf:	4c                   	dec    %esp
    3bb0:	44                   	inc    %esp
    3bb1:	54                   	push   %esp
    3bb2:	52                   	push   %edx
    3bb3:	5f                   	pop    %edi
    3bb4:	62 61 73             	bound  %esp,0x73(%ecx)
    3bb7:	65                   	gs
    3bb8:	2f                   	das    
    3bb9:	6c                   	insb   (%dx),%es:(%edi)
    3bba:	69 6d 69 74 3d 30 78 	imul   $0x78303d74,0x69(%ebp),%ebp
    3bc1:	25 30 38 6c 78       	and    $0x786c3830,%eax
    3bc6:	2f                   	das    
    3bc7:	30 78 25             	xor    %bh,0x25(%eax)
    3bca:	30 34 78             	xor    %dh,(%eax,%edi,2)
    3bcd:	00 66 90             	add    %ah,-0x70(%esi)
    3bd0:	0a 67 75             	or     0x75(%edi),%ah
    3bd3:	65                   	gs
    3bd4:	73 74                	jae    3c4a <isl_printgueststate+0x5>
    3bd6:	5f                   	pop    %edi
    3bd7:	43                   	inc    %ebx
    3bd8:	52                   	push   %edx
    3bd9:	30 3d 30 78 25 30    	xor    %bh,0x30257830
    3bdf:	38 6c 78 2c          	cmp    %ch,0x2c(%eax,%edi,2)
    3be3:	20 67 75             	and    %ah,0x75(%edi)
    3be6:	65                   	gs
    3be7:	73 74                	jae    3c5d <isl_printgueststate+0x18>
    3be9:	5f                   	pop    %edi
    3bea:	43                   	inc    %ebx
    3beb:	52                   	push   %edx
    3bec:	34 3d                	xor    $0x3d,%al
    3bee:	30 78 25             	xor    %bh,0x25(%eax)
    3bf1:	30 38                	xor    %bh,(%eax)
    3bf3:	6c                   	insb   (%dx),%es:(%edi)
    3bf4:	78 2c                	js     3c22 <.text+0x4d2>
    3bf6:	20 67 75             	and    %ah,0x75(%edi)
    3bf9:	65                   	gs
    3bfa:	73 74                	jae    3c70 <isl_printgueststate+0x2b>
    3bfc:	5f                   	pop    %edi
    3bfd:	43                   	inc    %ebx
    3bfe:	52                   	push   %edx
    3bff:	33 3d 30 78 25 30    	xor    0x30257830,%edi
    3c05:	38 6c 78 00          	cmp    %ch,0x0(%eax,%edi,2)
    3c09:	0a 67 75             	or     0x75(%edi),%ah
    3c0c:	65                   	gs
    3c0d:	73 74                	jae    3c83 <isl_printgueststate+0x3e>
    3c0f:	5f                   	pop    %edi
    3c10:	52                   	push   %edx
    3c11:	53                   	push   %ebx
    3c12:	50                   	push   %eax
    3c13:	3d 30 78 25 30       	cmp    $0x30257830,%eax
    3c18:	38 6c 78 00          	cmp    %ch,0x0(%eax,%edi,2)
    3c1c:	0a 67 75             	or     0x75(%edi),%ah
    3c1f:	65                   	gs
    3c20:	73 74                	jae    3c96 <isl_printgueststate+0x51>
    3c22:	5f                   	pop    %edi
    3c23:	52                   	push   %edx
    3c24:	49                   	dec    %ecx
    3c25:	50                   	push   %eax
    3c26:	3d 30 78 25 30       	cmp    $0x30257830,%eax
    3c2b:	38 6c 78 00          	cmp    %ch,0x0(%eax,%edi,2)
    3c2f:	0a 67 75             	or     0x75(%edi),%ah
    3c32:	65                   	gs
    3c33:	73 74                	jae    3ca9 <isl_printgueststate+0x64>
    3c35:	5f                   	pop    %edi
    3c36:	52                   	push   %edx
    3c37:	46                   	inc    %esi
    3c38:	4c                   	dec    %esp
    3c39:	41                   	inc    %ecx
    3c3a:	47                   	inc    %edi
    3c3b:	53                   	push   %ebx
    3c3c:	3d 30 78 25 30       	cmp    $0x30257830,%eax
    3c41:	38 6c 78 00          	cmp    %ch,0x0(%eax,%edi,2)

0000000000003c45 <isl_printgueststate>:
    3c45:	55                   	push   %ebp
    3c46:	89 e5                	mov    %esp,%ebp
    3c48:	53                   	push   %ebx
    3c49:	83 ec 14             	sub    $0x14,%esp
    3c4c:	c7 04 24 6f 38 00 70 	movl   $0x7000386f,(%esp)
    3c53:	e8 20 51 00 00       	call   8d78 <printf>
    3c58:	0f b7 05 a2 9e 00 70 	movzwl 0x70009ea2,%eax
    3c5f:	0f b7 c0             	movzwl %ax,%eax
    3c62:	89 44 24 04          	mov    %eax,0x4(%esp)
    3c66:	c7 04 24 85 38 00 70 	movl   $0x70003885,(%esp)
    3c6d:	e8 06 51 00 00       	call   8d78 <printf>
    3c72:	0f b7 05 a6 9e 00 70 	movzwl 0x70009ea6,%eax
    3c79:	0f b7 c0             	movzwl %ax,%eax
    3c7c:	89 44 24 04          	mov    %eax,0x4(%esp)
    3c80:	c7 04 24 9f 38 00 70 	movl   $0x7000389f,(%esp)
    3c87:	e8 ec 50 00 00       	call   8d78 <printf>
    3c8c:	0f b7 05 a0 9e 00 70 	movzwl 0x70009ea0,%eax
    3c93:	0f b7 c0             	movzwl %ax,%eax
    3c96:	89 44 24 04          	mov    %eax,0x4(%esp)
    3c9a:	c7 04 24 b9 38 00 70 	movl   $0x700038b9,(%esp)
    3ca1:	e8 d2 50 00 00       	call   8d78 <printf>
    3ca6:	0f b7 05 a8 9e 00 70 	movzwl 0x70009ea8,%eax
    3cad:	0f b7 c0             	movzwl %ax,%eax
    3cb0:	89 44 24 04          	mov    %eax,0x4(%esp)
    3cb4:	c7 04 24 d3 38 00 70 	movl   $0x700038d3,(%esp)
    3cbb:	e8 b8 50 00 00       	call   8d78 <printf>
    3cc0:	0f b7 05 aa 9e 00 70 	movzwl 0x70009eaa,%eax
    3cc7:	0f b7 c0             	movzwl %ax,%eax
    3cca:	89 44 24 04          	mov    %eax,0x4(%esp)
    3cce:	c7 04 24 ed 38 00 70 	movl   $0x700038ed,(%esp)
    3cd5:	e8 9e 50 00 00       	call   8d78 <printf>
    3cda:	0f b7 05 a4 9e 00 70 	movzwl 0x70009ea4,%eax
    3ce1:	0f b7 c0             	movzwl %ax,%eax
    3ce4:	89 44 24 04          	mov    %eax,0x4(%esp)
    3ce8:	c7 04 24 07 39 00 70 	movl   $0x70003907,(%esp)
    3cef:	e8 84 50 00 00       	call   8d78 <printf>
    3cf4:	0f b7 05 ae 9e 00 70 	movzwl 0x70009eae,%eax
    3cfb:	0f b7 c0             	movzwl %ax,%eax
    3cfe:	89 44 24 04          	mov    %eax,0x4(%esp)
    3d02:	c7 04 24 21 39 00 70 	movl   $0x70003921,(%esp)
    3d09:	e8 6a 50 00 00       	call   8d78 <printf>
    3d0e:	0f b7 05 ac 9e 00 70 	movzwl 0x70009eac,%eax
    3d15:	0f b7 c0             	movzwl %ax,%eax
    3d18:	89 44 24 04          	mov    %eax,0x4(%esp)
    3d1c:	c7 04 24 3b 39 00 70 	movl   $0x7000393b,(%esp)
    3d23:	e8 50 50 00 00       	call   8d78 <printf>
    3d28:	a1 74 9e 00 70       	mov    0x70009e74,%eax
    3d2d:	89 44 24 04          	mov    %eax,0x4(%esp)
    3d31:	c7 04 24 58 39 00 70 	movl   $0x70003958,(%esp)
    3d38:	e8 3b 50 00 00       	call   8d78 <printf>
    3d3d:	a1 7c 9e 00 70       	mov    0x70009e7c,%eax
    3d42:	89 44 24 04          	mov    %eax,0x4(%esp)
    3d46:	c7 04 24 78 39 00 70 	movl   $0x70003978,(%esp)
    3d4d:	e8 26 50 00 00       	call   8d78 <printf>
    3d52:	a1 70 9e 00 70       	mov    0x70009e70,%eax
    3d57:	89 44 24 04          	mov    %eax,0x4(%esp)
    3d5b:	c7 04 24 98 39 00 70 	movl   $0x70003998,(%esp)
    3d62:	e8 11 50 00 00       	call   8d78 <printf>
    3d67:	a1 80 9e 00 70       	mov    0x70009e80,%eax
    3d6c:	89 44 24 04          	mov    %eax,0x4(%esp)
    3d70:	c7 04 24 b8 39 00 70 	movl   $0x700039b8,(%esp)
    3d77:	e8 fc 4f 00 00       	call   8d78 <printf>
    3d7c:	a1 84 9e 00 70       	mov    0x70009e84,%eax
    3d81:	89 44 24 04          	mov    %eax,0x4(%esp)
    3d85:	c7 04 24 d8 39 00 70 	movl   $0x700039d8,(%esp)
    3d8c:	e8 e7 4f 00 00       	call   8d78 <printf>
    3d91:	a1 78 9e 00 70       	mov    0x70009e78,%eax
    3d96:	89 44 24 04          	mov    %eax,0x4(%esp)
    3d9a:	c7 04 24 f8 39 00 70 	movl   $0x700039f8,(%esp)
    3da1:	e8 d2 4f 00 00       	call   8d78 <printf>
    3da6:	a1 8c 9e 00 70       	mov    0x70009e8c,%eax
    3dab:	89 44 24 04          	mov    %eax,0x4(%esp)
    3daf:	c7 04 24 18 3a 00 70 	movl   $0x70003a18,(%esp)
    3db6:	e8 bd 4f 00 00       	call   8d78 <printf>
    3dbb:	a1 88 9e 00 70       	mov    0x70009e88,%eax
    3dc0:	89 44 24 04          	mov    %eax,0x4(%esp)
    3dc4:	c7 04 24 38 3a 00 70 	movl   $0x70003a38,(%esp)
    3dcb:	e8 a8 4f 00 00       	call   8d78 <printf>
    3dd0:	a1 4c 9e 00 70       	mov    0x70009e4c,%eax
    3dd5:	0f b7 c8             	movzwl %ax,%ecx
    3dd8:	a1 c8 9d 00 70       	mov    0x70009dc8,%eax
    3ddd:	8b 15 cc 9d 00 70    	mov    0x70009dcc,%edx
    3de3:	89 4c 24 08          	mov    %ecx,0x8(%esp)
    3de7:	89 44 24 04          	mov    %eax,0x4(%esp)
    3deb:	c7 04 24 5c 3a 00 70 	movl   $0x70003a5c,(%esp)
    3df2:	e8 81 4f 00 00       	call   8d78 <printf>
    3df7:	a1 54 9e 00 70       	mov    0x70009e54,%eax
    3dfc:	0f b7 c8             	movzwl %ax,%ecx
    3dff:	a1 d8 9d 00 70       	mov    0x70009dd8,%eax
    3e04:	8b 15 dc 9d 00 70    	mov    0x70009ddc,%edx
    3e0a:	89 4c 24 08          	mov    %ecx,0x8(%esp)
    3e0e:	89 44 24 04          	mov    %eax,0x4(%esp)
    3e12:	c7 04 24 80 3a 00 70 	movl   $0x70003a80,(%esp)
    3e19:	e8 5a 4f 00 00       	call   8d78 <printf>
    3e1e:	a1 48 9e 00 70       	mov    0x70009e48,%eax
    3e23:	0f b7 c8             	movzwl %ax,%ecx
    3e26:	a1 c0 9d 00 70       	mov    0x70009dc0,%eax
    3e2b:	8b 15 c4 9d 00 70    	mov    0x70009dc4,%edx
    3e31:	89 4c 24 08          	mov    %ecx,0x8(%esp)
    3e35:	89 44 24 04          	mov    %eax,0x4(%esp)
    3e39:	c7 04 24 a4 3a 00 70 	movl   $0x70003aa4,(%esp)
    3e40:	e8 33 4f 00 00       	call   8d78 <printf>
    3e45:	a1 58 9e 00 70       	mov    0x70009e58,%eax
    3e4a:	0f b7 c8             	movzwl %ax,%ecx
    3e4d:	a1 e0 9d 00 70       	mov    0x70009de0,%eax
    3e52:	8b 15 e4 9d 00 70    	mov    0x70009de4,%edx
    3e58:	89 4c 24 08          	mov    %ecx,0x8(%esp)
    3e5c:	89 44 24 04          	mov    %eax,0x4(%esp)
    3e60:	c7 04 24 c8 3a 00 70 	movl   $0x70003ac8,(%esp)
    3e67:	e8 0c 4f 00 00       	call   8d78 <printf>
    3e6c:	a1 5c 9e 00 70       	mov    0x70009e5c,%eax
    3e71:	0f b7 c8             	movzwl %ax,%ecx
    3e74:	a1 e8 9d 00 70       	mov    0x70009de8,%eax
    3e79:	8b 15 ec 9d 00 70    	mov    0x70009dec,%edx
    3e7f:	89 4c 24 08          	mov    %ecx,0x8(%esp)
    3e83:	89 44 24 04          	mov    %eax,0x4(%esp)
    3e87:	c7 04 24 ec 3a 00 70 	movl   $0x70003aec,(%esp)
    3e8e:	e8 e5 4e 00 00       	call   8d78 <printf>
    3e93:	a1 50 9e 00 70       	mov    0x70009e50,%eax
    3e98:	0f b7 c8             	movzwl %ax,%ecx
    3e9b:	a1 d0 9d 00 70       	mov    0x70009dd0,%eax
    3ea0:	8b 15 d4 9d 00 70    	mov    0x70009dd4,%edx
    3ea6:	89 4c 24 08          	mov    %ecx,0x8(%esp)
    3eaa:	89 44 24 04          	mov    %eax,0x4(%esp)
    3eae:	c7 04 24 10 3b 00 70 	movl   $0x70003b10,(%esp)
    3eb5:	e8 be 4e 00 00       	call   8d78 <printf>
    3eba:	a1 68 9e 00 70       	mov    0x70009e68,%eax
    3ebf:	0f b7 c8             	movzwl %ax,%ecx
    3ec2:	a1 00 9e 00 70       	mov    0x70009e00,%eax
    3ec7:	8b 15 04 9e 00 70    	mov    0x70009e04,%edx
    3ecd:	89 4c 24 08          	mov    %ecx,0x8(%esp)
    3ed1:	89 44 24 04          	mov    %eax,0x4(%esp)
    3ed5:	c7 04 24 34 3b 00 70 	movl   $0x70003b34,(%esp)
    3edc:	e8 97 4e 00 00       	call   8d78 <printf>
    3ee1:	a1 6c 9e 00 70       	mov    0x70009e6c,%eax
    3ee6:	0f b7 c8             	movzwl %ax,%ecx
    3ee9:	a1 08 9e 00 70       	mov    0x70009e08,%eax
    3eee:	8b 15 0c 9e 00 70    	mov    0x70009e0c,%edx
    3ef4:	89 4c 24 08          	mov    %ecx,0x8(%esp)
    3ef8:	89 44 24 04          	mov    %eax,0x4(%esp)
    3efc:	c7 04 24 5c 3b 00 70 	movl   $0x70003b5c,(%esp)
    3f03:	e8 70 4e 00 00       	call   8d78 <printf>
    3f08:	a1 64 9e 00 70       	mov    0x70009e64,%eax
    3f0d:	0f b7 c8             	movzwl %ax,%ecx
    3f10:	a1 f8 9d 00 70       	mov    0x70009df8,%eax
    3f15:	8b 15 fc 9d 00 70    	mov    0x70009dfc,%edx
    3f1b:	89 4c 24 08          	mov    %ecx,0x8(%esp)
    3f1f:	89 44 24 04          	mov    %eax,0x4(%esp)
    3f23:	c7 04 24 84 3b 00 70 	movl   $0x70003b84,(%esp)
    3f2a:	e8 49 4e 00 00       	call   8d78 <printf>
    3f2f:	a1 60 9e 00 70       	mov    0x70009e60,%eax
    3f34:	0f b7 c8             	movzwl %ax,%ecx
    3f37:	a1 f0 9d 00 70       	mov    0x70009df0,%eax
    3f3c:	8b 15 f4 9d 00 70    	mov    0x70009df4,%edx
    3f42:	89 4c 24 08          	mov    %ecx,0x8(%esp)
    3f46:	89 44 24 04          	mov    %eax,0x4(%esp)
    3f4a:	c7 04 24 a8 3b 00 70 	movl   $0x70003ba8,(%esp)
    3f51:	e8 22 4e 00 00       	call   8d78 <printf>
    3f56:	a1 b0 9d 00 70       	mov    0x70009db0,%eax
    3f5b:	8b 15 b4 9d 00 70    	mov    0x70009db4,%edx
    3f61:	89 c1                	mov    %eax,%ecx
    3f63:	a1 b8 9d 00 70       	mov    0x70009db8,%eax
    3f68:	8b 15 bc 9d 00 70    	mov    0x70009dbc,%edx
    3f6e:	89 c3                	mov    %eax,%ebx
    3f70:	a1 a8 9d 00 70       	mov    0x70009da8,%eax
    3f75:	8b 15 ac 9d 00 70    	mov    0x70009dac,%edx
    3f7b:	89 4c 24 0c          	mov    %ecx,0xc(%esp)
    3f7f:	89 5c 24 08          	mov    %ebx,0x8(%esp)
    3f83:	89 44 24 04          	mov    %eax,0x4(%esp)
    3f87:	c7 04 24 d0 3b 00 70 	movl   $0x70003bd0,(%esp)
    3f8e:	e8 e5 4d 00 00       	call   8d78 <printf>
    3f93:	a1 18 9e 00 70       	mov    0x70009e18,%eax
    3f98:	8b 15 1c 9e 00 70    	mov    0x70009e1c,%edx
    3f9e:	89 44 24 04          	mov    %eax,0x4(%esp)
    3fa2:	c7 04 24 09 3c 00 70 	movl   $0x70003c09,(%esp)
    3fa9:	e8 ca 4d 00 00       	call   8d78 <printf>
    3fae:	a1 20 9e 00 70       	mov    0x70009e20,%eax
    3fb3:	8b 15 24 9e 00 70    	mov    0x70009e24,%edx
    3fb9:	89 44 24 04          	mov    %eax,0x4(%esp)
    3fbd:	c7 04 24 1c 3c 00 70 	movl   $0x70003c1c,(%esp)
    3fc4:	e8 af 4d 00 00       	call   8d78 <printf>
    3fc9:	a1 28 9e 00 70       	mov    0x70009e28,%eax
    3fce:	8b 15 2c 9e 00 70    	mov    0x70009e2c,%edx
    3fd4:	89 44 24 04          	mov    %eax,0x4(%esp)
    3fd8:	c7 04 24 2f 3c 00 70 	movl   $0x70003c2f,(%esp)
    3fdf:	e8 94 4d 00 00       	call   8d78 <printf>
    3fe4:	83 c4 14             	add    $0x14,%esp
    3fe7:	5b                   	pop    %ebx
    3fe8:	5d                   	pop    %ebp
    3fe9:	c3                   	ret    

0000000000003fea <isl_handleintercept_cpuid>:
    3fea:	55                   	push   %ebp
    3feb:	89 e5                	mov    %esp,%ebp
    3fed:	53                   	push   %ebx
    3fee:	a1 10 a0 00 70       	mov    0x7000a010,%eax
    3ff3:	8b 0d 18 a0 00 70    	mov    0x7000a018,%ecx
    3ff9:	0f a2                	cpuid  
    3ffb:	a3 10 a0 00 70       	mov    %eax,0x7000a010
    4000:	89 1d 14 a0 00 70    	mov    %ebx,0x7000a014
    4006:	89 0d 18 a0 00 70    	mov    %ecx,0x7000a018
    400c:	89 15 1c a0 00 70    	mov    %edx,0x7000a01c
    4012:	a1 dc 9e 00 70       	mov    0x70009edc,%eax
    4017:	89 c1                	mov    %eax,%ecx
    4019:	bb 00 00 00 00       	mov    $0x0,%ebx
    401e:	a1 20 9e 00 70       	mov    0x70009e20,%eax
    4023:	8b 15 24 9e 00 70    	mov    0x70009e24,%edx
    4029:	01 c8                	add    %ecx,%eax
    402b:	11 da                	adc    %ebx,%edx
    402d:	a3 20 9e 00 70       	mov    %eax,0x70009e20
    4032:	89 15 24 9e 00 70    	mov    %edx,0x70009e24
    4038:	5b                   	pop    %ebx
    4039:	5d                   	pop    %ebp
    403a:	c3                   	ret    

000000000000403b <isl_handleintercept_wrmsr>:
    403b:	55                   	push   %ebp
    403c:	89 e5                	mov    %esp,%ebp
    403e:	53                   	push   %ebx
    403f:	83 ec 04             	sub    $0x4,%esp
    4042:	a1 18 a0 00 70       	mov    0x7000a018,%eax
    4047:	89 45 f8             	mov    %eax,-0x8(%ebp)
    404a:	81 7d f8 75 01 00 00 	cmpl   $0x175,-0x8(%ebp)
    4051:	74 35                	je     4088 <isl_handleintercept_wrmsr+0x4d>
    4053:	81 7d f8 76 01 00 00 	cmpl   $0x176,-0x8(%ebp)
    405a:	74 15                	je     4071 <isl_handleintercept_wrmsr+0x36>
    405c:	81 7d f8 74 01 00 00 	cmpl   $0x174,-0x8(%ebp)
    4063:	75 3a                	jne    409f <isl_handleintercept_wrmsr+0x64>
    4065:	a1 10 a0 00 70       	mov    0x7000a010,%eax
    406a:	a3 9c 9e 00 70       	mov    %eax,0x70009e9c
    406f:	eb 41                	jmp    40b2 <isl_handleintercept_wrmsr+0x77>
    4071:	a1 10 a0 00 70       	mov    0x7000a010,%eax
    4076:	ba 00 00 00 00       	mov    $0x0,%edx
    407b:	a3 40 9e 00 70       	mov    %eax,0x70009e40
    4080:	89 15 44 9e 00 70    	mov    %edx,0x70009e44
    4086:	eb 2a                	jmp    40b2 <isl_handleintercept_wrmsr+0x77>
    4088:	a1 10 a0 00 70       	mov    0x7000a010,%eax
    408d:	ba 00 00 00 00       	mov    $0x0,%edx
    4092:	a3 38 9e 00 70       	mov    %eax,0x70009e38
    4097:	89 15 3c 9e 00 70    	mov    %edx,0x70009e3c
    409d:	eb 13                	jmp    40b2 <isl_handleintercept_wrmsr+0x77>
    409f:	a1 10 a0 00 70       	mov    0x7000a010,%eax
    40a4:	8b 0d 18 a0 00 70    	mov    0x7000a018,%ecx
    40aa:	8b 15 1c a0 00 70    	mov    0x7000a01c,%edx
    40b0:	0f 30                	wrmsr  
    40b2:	a1 dc 9e 00 70       	mov    0x70009edc,%eax
    40b7:	89 c1                	mov    %eax,%ecx
    40b9:	bb 00 00 00 00       	mov    $0x0,%ebx
    40be:	a1 20 9e 00 70       	mov    0x70009e20,%eax
    40c3:	8b 15 24 9e 00 70    	mov    0x70009e24,%edx
    40c9:	01 c8                	add    %ecx,%eax
    40cb:	11 da                	adc    %ebx,%edx
    40cd:	a3 20 9e 00 70       	mov    %eax,0x70009e20
    40d2:	89 15 24 9e 00 70    	mov    %edx,0x70009e24
    40d8:	83 c4 04             	add    $0x4,%esp
    40db:	5b                   	pop    %ebx
    40dc:	5d                   	pop    %ebp
    40dd:	c3                   	ret    

00000000000040de <isl_handleintercept_rdmsr>:
    40de:	55                   	push   %ebp
    40df:	89 e5                	mov    %esp,%ebp
    40e1:	53                   	push   %ebx
    40e2:	83 ec 04             	sub    $0x4,%esp
    40e5:	a1 18 a0 00 70       	mov    0x7000a018,%eax
    40ea:	89 45 f8             	mov    %eax,-0x8(%ebp)
    40ed:	81 7d f8 75 01 00 00 	cmpl   $0x175,-0x8(%ebp)
    40f4:	74 44                	je     413a <isl_handleintercept_rdmsr+0x5c>
    40f6:	81 7d f8 76 01 00 00 	cmpl   $0x176,-0x8(%ebp)
    40fd:	74 1f                	je     411e <isl_handleintercept_rdmsr+0x40>
    40ff:	81 7d f8 74 01 00 00 	cmpl   $0x174,-0x8(%ebp)
    4106:	75 4e                	jne    4156 <isl_handleintercept_rdmsr+0x78>
    4108:	a1 9c 9e 00 70       	mov    0x70009e9c,%eax
    410d:	a3 10 a0 00 70       	mov    %eax,0x7000a010
    4112:	c7 05 1c a0 00 70 00 	movl   $0x0,0x7000a01c
    4119:	00 00 00 
    411c:	eb 4b                	jmp    4169 <isl_handleintercept_rdmsr+0x8b>
    411e:	a1 40 9e 00 70       	mov    0x70009e40,%eax
    4123:	8b 15 44 9e 00 70    	mov    0x70009e44,%edx
    4129:	a3 10 a0 00 70       	mov    %eax,0x7000a010
    412e:	c7 05 1c a0 00 70 00 	movl   $0x0,0x7000a01c
    4135:	00 00 00 
    4138:	eb 2f                	jmp    4169 <isl_handleintercept_rdmsr+0x8b>
    413a:	a1 38 9e 00 70       	mov    0x70009e38,%eax
    413f:	8b 15 3c 9e 00 70    	mov    0x70009e3c,%edx
    4145:	a3 10 a0 00 70       	mov    %eax,0x7000a010
    414a:	c7 05 1c a0 00 70 00 	movl   $0x0,0x7000a01c
    4151:	00 00 00 
    4154:	eb 13                	jmp    4169 <isl_handleintercept_rdmsr+0x8b>
    4156:	8b 0d 18 a0 00 70    	mov    0x7000a018,%ecx
    415c:	0f 32                	rdmsr  
    415e:	a3 10 a0 00 70       	mov    %eax,0x7000a010
    4163:	89 15 1c a0 00 70    	mov    %edx,0x7000a01c
    4169:	a1 dc 9e 00 70       	mov    0x70009edc,%eax
    416e:	89 c1                	mov    %eax,%ecx
    4170:	bb 00 00 00 00       	mov    $0x0,%ebx
    4175:	a1 20 9e 00 70       	mov    0x70009e20,%eax
    417a:	8b 15 24 9e 00 70    	mov    0x70009e24,%edx
    4180:	01 c8                	add    %ecx,%eax
    4182:	11 da                	adc    %ebx,%edx
    4184:	a3 20 9e 00 70       	mov    %eax,0x70009e20
    4189:	89 15 24 9e 00 70    	mov    %edx,0x70009e24
    418f:	83 c4 04             	add    $0x4,%esp
    4192:	5b                   	pop    %ebx
    4193:	5d                   	pop    %ebp
    4194:	c3                   	ret    
    4195:	8d 76 00             	lea    0x0(%esi),%esi
    4198:	0a 49 6e             	or     0x6e(%ecx),%cl
    419b:	74 65                	je     4202 <isl_handleintercept_hlt+0x3e>
    419d:	72 63                	jb     4202 <isl_handleintercept_hlt+0x3e>
    419f:	65                   	gs
    41a0:	70 74                	jo     4216 <isl_handleintercept_hlt+0x52>
    41a2:	28 48 4c             	sub    %cl,0x4c(%eax)
    41a5:	54                   	push   %esp
    41a6:	29 3a                	sub    %edi,(%edx)
    41a8:	20 75 6e             	and    %dh,0x6e(%ebp)
    41ab:	64 65 66 69 6e 65 64 	imul   $0x2064,%fs:%gs:0x65(%esi),%bp
    41b2:	20 
    41b3:	67 75 65             	addr16 jne 421b <isl_handleintercept_hlt+0x57>
    41b6:	73 74                	jae    422c <isl_handleintercept_hlt+0x68>
    41b8:	20 63 6f             	and    %ah,0x6f(%ebx)
    41bb:	6e                   	outsb  %ds:(%esi),(%dx)
    41bc:	64 69 74 69 6f 6e 21 	imul   $0x5500216e,%fs:0x6f(%ecx,%ebp,2),%esi
    41c3:	00 55 

00000000000041c4 <isl_handleintercept_hlt>:
    41c4:	55                   	push   %ebp
    41c5:	89 e5                	mov    %esp,%ebp
    41c7:	83 ec 08             	sub    $0x8,%esp
    41ca:	a1 14 98 00 70       	mov    0x70009814,%eax
    41cf:	83 f8 01             	cmp    $0x1,%eax
    41d2:	75 21                	jne    41f5 <isl_handleintercept_hlt+0x31>
    41d4:	a1 50 96 00 70       	mov    0x70009650,%eax
    41d9:	83 e0 01             	and    $0x1,%eax
    41dc:	85 c0                	test   %eax,%eax
    41de:	74 15                	je     41f5 <isl_handleintercept_hlt+0x31>
    41e0:	a1 40 96 00 70       	mov    0x70009640,%eax
    41e5:	85 c0                	test   %eax,%eax
    41e7:	74 0c                	je     41f5 <isl_handleintercept_hlt+0x31>
    41e9:	0f b7 05 44 96 00 70 	movzwl 0x70009644,%eax
    41f0:	66 85 c0             	test   %ax,%ax
    41f3:	75 0d                	jne    4202 <isl_handleintercept_hlt+0x3e>
    41f5:	c7 04 24 98 41 00 70 	movl   $0x70004198,(%esp)
    41fc:	e8 77 4b 00 00       	call   8d78 <printf>
    4201:	f4                   	hlt    
    4202:	c7 05 18 98 00 70 02 	movl   $0x2,0x70009818
    4209:	00 00 00 
    420c:	a1 50 96 00 70       	mov    0x70009650,%eax
    4211:	85 c0                	test   %eax,%eax
    4213:	79 0d                	jns    4222 <isl_handleintercept_hlt+0x5e>
    4215:	a1 18 98 00 70       	mov    0x70009818,%eax
    421a:	83 c8 20             	or     $0x20,%eax
    421d:	a3 18 98 00 70       	mov    %eax,0x70009818
    4222:	a1 50 96 00 70       	mov    0x70009650,%eax
    4227:	ba 00 00 00 00       	mov    $0x0,%edx
    422c:	a3 b8 9c 00 70       	mov    %eax,0x70009cb8
    4231:	89 15 bc 9c 00 70    	mov    %edx,0x70009cbc
    4237:	a1 18 98 00 70       	mov    0x70009818,%eax
    423c:	8b 15 14 98 00 70    	mov    0x70009814,%edx
    4242:	89 44 24 04          	mov    %eax,0x4(%esp)
    4246:	89 14 24             	mov    %edx,(%esp)
    4249:	e8 da 1e 00 00       	call   6128 <isl_prepareVMCS>
    424e:	a3 14 98 00 70       	mov    %eax,0x70009814
    4253:	c9                   	leave  
    4254:	c3                   	ret    
    4255:	8d 74 26 00          	lea    0x0(%esi),%esi
    4259:	8d bc 27 00 00 00 00 	lea    0x0(%edi),%edi

0000000000004260 <__FUNCTION__.1754>:
    4260:	69 73 6c 5f 68 61 6e 	imul   $0x6e61685f,0x6c(%ebx),%esi
    4267:	64                   	fs
    4268:	6c                   	insb   (%dx),%es:(%edi)
    4269:	65 69 6e 74 65 72 63 	imul   $0x65637265,%gs:0x74(%esi),%ebp
    4270:	65 
    4271:	70 74                	jo     42e7 <__FUNCTION__.1754+0x87>
    4273:	5f                   	pop    %edi
    4274:	65                   	gs
    4275:	78 63                	js     42da <__FUNCTION__.1754+0x7a>
    4277:	65                   	gs
    4278:	70 74                	jo     42ee <__FUNCTION__.1754+0x8e>
    427a:	69 6f 6e 5f 30 44 00 	imul   $0x44305f,0x6e(%edi),%ebp
    4281:	69 73 6c 61 79 65 72 	imul   $0x72657961,0x6c(%ebx),%esi
    4288:	5f                   	pop    %edi
    4289:	73 6b                	jae    42f6 <__FUNCTION__.1754+0x96>
    428b:	65                   	gs
    428c:	6c                   	insb   (%dx),%es:(%edi)
    428d:	65                   	gs
    428e:	74 6f                	je     42ff <__FUNCTION__.1754+0x9f>
    4290:	6e                   	outsb  %ds:(%esi),(%dx)
    4291:	2e 63 00             	arpl   %ax,%cs:(%eax)
    4294:	28 67 75             	sub    %ah,0x75(%edi)
    4297:	65                   	gs
    4298:	73 74                	jae    430e <__FUNCTION__.1754+0xae>
    429a:	5f                   	pop    %edi
    429b:	63 75 72             	arpl   %si,0x72(%ebp)
    429e:	72 65                	jb     4305 <__FUNCTION__.1754+0xa5>
    42a0:	6e                   	outsb  %ds:(%esi),(%dx)
    42a1:	74 73                	je     4316 <__FUNCTION__.1754+0xb6>
    42a3:	74 61                	je     4306 <__FUNCTION__.1754+0xa6>
    42a5:	74 65                	je     430c <__FUNCTION__.1754+0xac>
    42a7:	20 3d 3d 20 47 53    	and    %bh,0x5347203d
    42ad:	54                   	push   %esp
    42ae:	41                   	inc    %ecx
    42af:	54                   	push   %esp
    42b0:	45                   	inc    %ebp
    42b1:	5f                   	pop    %edi
    42b2:	50                   	push   %eax
    42b3:	52                   	push   %edx
    42b4:	4f                   	dec    %edi
    42b5:	54                   	push   %esp
    42b6:	45                   	inc    %ebp
    42b7:	43                   	inc    %ebx
    42b8:	54                   	push   %esp
    42b9:	45                   	inc    %ebp
    42ba:	44                   	inc    %esp
    42bb:	4d                   	dec    %ebp
    42bc:	4f                   	dec    %edi
    42bd:	44                   	inc    %esp
    42be:	45                   	inc    %ebp
    42bf:	29 20                	sub    %esp,(%eax)
    42c1:	7c 7c                	jl     433f <__FUNCTION__.1754+0xdf>
    42c3:	20 28                	and    %ch,(%eax)
    42c5:	67 75 65             	addr16 jne 432d <__FUNCTION__.1754+0xcd>
    42c8:	73 74                	jae    433e <__FUNCTION__.1754+0xde>
    42ca:	5f                   	pop    %edi
    42cb:	63 75 72             	arpl   %si,0x72(%ebp)
    42ce:	72 65                	jb     4335 <__FUNCTION__.1754+0xd5>
    42d0:	6e                   	outsb  %ds:(%esi),(%dx)
    42d1:	74 73                	je     4346 <__FUNCTION__.1754+0xe6>
    42d3:	74 61                	je     4336 <__FUNCTION__.1754+0xd6>
    42d5:	74 65                	je     433c <__FUNCTION__.1754+0xdc>
    42d7:	20 3d 3d 20 28 47    	and    %bh,0x4728203d
    42dd:	53                   	push   %ebx
    42de:	54                   	push   %esp
    42df:	41                   	inc    %ecx
    42e0:	54                   	push   %esp
    42e1:	45                   	inc    %ebp
    42e2:	5f                   	pop    %edi
    42e3:	50                   	push   %eax
    42e4:	52                   	push   %edx
    42e5:	4f                   	dec    %edi
    42e6:	54                   	push   %esp
    42e7:	45                   	inc    %ebp
    42e8:	43                   	inc    %ebx
    42e9:	54                   	push   %esp
    42ea:	45                   	inc    %ebp
    42eb:	44                   	inc    %esp
    42ec:	4d                   	dec    %ebp
    42ed:	4f                   	dec    %edi
    42ee:	44                   	inc    %esp
    42ef:	45                   	inc    %ebp
    42f0:	20 7c 20 47          	and    %bh,0x47(%eax)
    42f4:	53                   	push   %ebx
    42f5:	54                   	push   %esp
    42f6:	41                   	inc    %ecx
    42f7:	54                   	push   %esp
    42f8:	45                   	inc    %ebp
    42f9:	5f                   	pop    %edi
    42fa:	50                   	push   %eax
    42fb:	52                   	push   %edx
    42fc:	4f                   	dec    %edi
    42fd:	54                   	push   %esp
    42fe:	45                   	inc    %ebp
    42ff:	43                   	inc    %ebx
    4300:	54                   	push   %esp
    4301:	45                   	inc    %ebp
    4302:	44                   	inc    %esp
    4303:	4d                   	dec    %ebp
    4304:	4f                   	dec    %edi
    4305:	44                   	inc    %esp
    4306:	45                   	inc    %ebp
    4307:	5f                   	pop    %edi
    4308:	50                   	push   %eax
    4309:	47                   	inc    %edi
    430a:	29 29                	sub    %ebp,(%ecx)
    430c:	00 8d 76 00 0a 41    	add    %cl,0x410a0076(%ebp)
    4312:	73 73                	jae    4387 <isl_handleintercept_exception_0D+0x3>
    4314:	65                   	gs
    4315:	72 74                	jb     438b <isl_handleintercept_exception_0D+0x7>
    4317:	69 6f 6e 20 27 25 73 	imul   $0x73252720,0x6e(%edi),%ebp
    431e:	27                   	daa    
    431f:	20 66 61             	and    %ah,0x61(%esi)
    4322:	69 6c 65 64 2c 20 6c 	imul   $0x696c202c,0x64(%ebp),%ebp
    4329:	69 
    432a:	6e                   	outsb  %ds:(%esi),(%dx)
    432b:	65 20 25 64 2c 20 66 	and    %ah,%gs:0x66202c64
    4332:	69 6c 65 20 25 73 0a 	imul   $0xa7325,0x20(%ebp),%ebp
    4339:	00 
    433a:	66 90                	xchg   %ax,%ax
    433c:	0a 09                	or     (%ecx),%cl
    433e:	49                   	dec    %ecx
    433f:	4e                   	dec    %esi
    4340:	54                   	push   %esp
    4341:	20 30                	and    %dh,(%eax)
    4343:	44                   	inc    %esp
    4344:	3a 20                	cmp    (%eax),%ah
    4346:	74 61                	je     43a9 <isl_handleintercept_exception_0D+0x25>
    4348:	72 67                	jb     43b1 <isl_handleintercept_exception_0D+0x2d>
    434a:	65                   	gs
    434b:	74 20                	je     436d <__FUNCTION__.1754+0x10d>
    434d:	43                   	inc    %ebx
    434e:	53                   	push   %ebx
    434f:	3a 45 49             	cmp    0x49(%ebp),%al
    4352:	50                   	push   %eax
    4353:	3d 30 78 25 30       	cmp    $0x30257830,%eax
    4358:	34 78                	xor    $0x78,%al
    435a:	3a 30                	cmp    (%eax),%dh
    435c:	78 25                	js     4383 <__FUNCTION__.1754+0x123>
    435e:	30 38                	xor    %bh,(%eax)
    4360:	78 00                	js     4362 <__FUNCTION__.1754+0x102>
    4362:	66 90                	xchg   %ax,%ax
    4364:	0a 25 73 3a 20 75    	or     0x75203a73,%ah
    436a:	6e                   	outsb  %ds:(%esi),(%dx)
    436b:	72 65                	jb     43d2 <isl_handleintercept_exception_0D+0x4e>
    436d:	63 6f 67             	arpl   %bp,0x67(%edi)
    4370:	6e                   	outsb  %ds:(%esi),(%dx)
    4371:	69 7a 65 64 20 6f 70 	imul   $0x706f2064,0x65(%edx),%edi
    4378:	63 6f 64             	arpl   %bp,0x64(%edi)
    437b:	65 20 30             	and    %dh,%gs:(%eax)
    437e:	78 25                	js     43a5 <isl_handleintercept_exception_0D+0x21>
    4380:	30 32                	xor    %dh,(%edx)
    4382:	78 00                	js     4384 <isl_handleintercept_exception_0D>

0000000000004384 <isl_handleintercept_exception_0D>:
    4384:	55                   	push   %ebp
    4385:	89 e5                	mov    %esp,%ebp
    4387:	83 ec 28             	sub    $0x28,%esp
    438a:	a1 14 98 00 70       	mov    0x70009814,%eax
    438f:	83 f8 02             	cmp    $0x2,%eax
    4392:	74 2f                	je     43c3 <isl_handleintercept_exception_0D+0x3f>
    4394:	a1 14 98 00 70       	mov    0x70009814,%eax
    4399:	83 f8 22             	cmp    $0x22,%eax
    439c:	74 25                	je     43c3 <isl_handleintercept_exception_0D+0x3f>
    439e:	c7 44 24 0c 81 42 00 	movl   $0x70004281,0xc(%esp)
    43a5:	70 
    43a6:	c7 44 24 08 26 01 00 	movl   $0x126,0x8(%esp)
    43ad:	00 
    43ae:	c7 44 24 04 94 42 00 	movl   $0x70004294,0x4(%esp)
    43b5:	70 
    43b6:	c7 04 24 10 43 00 70 	movl   $0x70004310,(%esp)
    43bd:	e8 b6 49 00 00       	call   8d78 <printf>
    43c2:	f4                   	hlt    
    43c3:	a1 c8 9d 00 70       	mov    0x70009dc8,%eax
    43c8:	8b 15 cc 9d 00 70    	mov    0x70009dcc,%edx
    43ce:	89 c1                	mov    %eax,%ecx
    43d0:	a1 20 9e 00 70       	mov    0x70009e20,%eax
    43d5:	8b 15 24 9e 00 70    	mov    0x70009e24,%edx
    43db:	8d 04 01             	lea    (%ecx,%eax,1),%eax
    43de:	89 45 f8             	mov    %eax,-0x8(%ebp)
    43e1:	8b 45 f8             	mov    -0x8(%ebp),%eax
    43e4:	0f b6 00             	movzbl (%eax),%eax
    43e7:	3c cb                	cmp    $0xcb,%al
    43e9:	75 5b                	jne    4446 <isl_handleintercept_exception_0D+0xc2>
    43eb:	a1 18 9e 00 70       	mov    0x70009e18,%eax
    43f0:	8b 15 1c 9e 00 70    	mov    0x70009e1c,%edx
    43f6:	0f b7 c8             	movzwl %ax,%ecx
    43f9:	a1 d0 9d 00 70       	mov    0x70009dd0,%eax
    43fe:	8b 15 d4 9d 00 70    	mov    0x70009dd4,%edx
    4404:	8d 04 01             	lea    (%ecx,%eax,1),%eax
    4407:	89 45 fc             	mov    %eax,-0x4(%ebp)
    440a:	8b 45 fc             	mov    -0x4(%ebp),%eax
    440d:	0f b7 00             	movzwl (%eax),%eax
    4410:	66 a3 e2 97 00 70    	mov    %ax,0x700097e2
    4416:	8b 45 fc             	mov    -0x4(%ebp),%eax
    4419:	83 c0 02             	add    $0x2,%eax
    441c:	0f b7 00             	movzwl (%eax),%eax
    441f:	66 a3 e0 97 00 70    	mov    %ax,0x700097e0
    4425:	a1 18 9e 00 70       	mov    0x70009e18,%eax
    442a:	8b 15 1c 9e 00 70    	mov    0x70009e1c,%edx
    4430:	83 c0 04             	add    $0x4,%eax
    4433:	83 d2 00             	adc    $0x0,%edx
    4436:	a3 18 9e 00 70       	mov    %eax,0x70009e18
    443b:	89 15 1c 9e 00 70    	mov    %edx,0x70009e1c
    4441:	e9 90 00 00 00       	jmp    44d6 <isl_handleintercept_exception_0D+0x152>
    4446:	8b 45 f8             	mov    -0x8(%ebp),%eax
    4449:	0f b6 00             	movzbl (%eax),%eax
    444c:	3c ea                	cmp    $0xea,%al
    444e:	75 64                	jne    44b4 <isl_handleintercept_exception_0D+0x130>
    4450:	8b 45 f8             	mov    -0x8(%ebp),%eax
    4453:	83 c0 01             	add    $0x1,%eax
    4456:	0f b7 00             	movzwl (%eax),%eax
    4459:	66 a3 e2 97 00 70    	mov    %ax,0x700097e2
    445f:	8b 45 f8             	mov    -0x8(%ebp),%eax
    4462:	83 c0 03             	add    $0x3,%eax
    4465:	0f b7 00             	movzwl (%eax),%eax
    4468:	66 a3 e0 97 00 70    	mov    %ax,0x700097e0
    446e:	0f b7 05 e2 97 00 70 	movzwl 0x700097e2,%eax
    4475:	0f b7 d0             	movzwl %ax,%edx
    4478:	0f b7 05 e0 97 00 70 	movzwl 0x700097e0,%eax
    447f:	0f b7 c0             	movzwl %ax,%eax
    4482:	89 54 24 08          	mov    %edx,0x8(%esp)
    4486:	89 44 24 04          	mov    %eax,0x4(%esp)
    448a:	c7 04 24 3c 43 00 70 	movl   $0x7000433c,(%esp)
    4491:	e8 e2 48 00 00       	call   8d78 <printf>
    4496:	a1 20 9e 00 70       	mov    0x70009e20,%eax
    449b:	8b 15 24 9e 00 70    	mov    0x70009e24,%edx
    44a1:	83 c0 05             	add    $0x5,%eax
    44a4:	83 d2 00             	adc    $0x0,%edx
    44a7:	a3 20 9e 00 70       	mov    %eax,0x70009e20
    44ac:	89 15 24 9e 00 70    	mov    %edx,0x70009e24
    44b2:	eb 22                	jmp    44d6 <isl_handleintercept_exception_0D+0x152>
    44b4:	8b 45 f8             	mov    -0x8(%ebp),%eax
    44b7:	0f b6 00             	movzbl (%eax),%eax
    44ba:	0f b6 c0             	movzbl %al,%eax
    44bd:	89 44 24 08          	mov    %eax,0x8(%esp)
    44c1:	c7 44 24 04 60 42 00 	movl   $0x70004260,0x4(%esp)
    44c8:	70 
    44c9:	c7 04 24 64 43 00 70 	movl   $0x70004364,(%esp)
    44d0:	e8 a3 48 00 00       	call   8d78 <printf>
    44d5:	f4                   	hlt    
    44d6:	a1 14 98 00 70       	mov    0x70009814,%eax
    44db:	83 c8 08             	or     $0x8,%eax
    44de:	a3 18 98 00 70       	mov    %eax,0x70009818
    44e3:	a1 48 96 00 70       	mov    0x70009648,%eax
    44e8:	85 c0                	test   %eax,%eax
    44ea:	75 0c                	jne    44f8 <isl_handleintercept_exception_0D+0x174>
    44ec:	0f b7 05 4c 96 00 70 	movzwl 0x7000964c,%eax
    44f3:	66 85 c0             	test   %ax,%ax
    44f6:	74 0d                	je     4505 <isl_handleintercept_exception_0D+0x181>
    44f8:	a1 18 98 00 70       	mov    0x70009818,%eax
    44fd:	83 c8 10             	or     $0x10,%eax
    4500:	a3 18 98 00 70       	mov    %eax,0x70009818
    4505:	a1 18 98 00 70       	mov    0x70009818,%eax
    450a:	8b 15 14 98 00 70    	mov    0x70009814,%edx
    4510:	89 44 24 04          	mov    %eax,0x4(%esp)
    4514:	89 14 24             	mov    %edx,(%esp)
    4517:	e8 0c 1c 00 00       	call   6128 <isl_prepareVMCS>
    451c:	a3 14 98 00 70       	mov    %eax,0x70009814
    4521:	c9                   	leave  
    4522:	c3                   	ret    
    4523:	74 6f                	je     4594 <isl_handleintercept_exception_0D+0x210>
    4525:	66                   	data16
    4526:	72 6f                	jb     4597 <isl_handleintercept_exception_0D+0x213>
    4528:	6d                   	insl   (%dx),%es:(%edi)
    4529:	20 3d 3d 20 56 4d    	and    %bh,0x4d56203d
    452f:	58                   	pop    %eax
    4530:	5f                   	pop    %edi
    4531:	43                   	inc    %ebx
    4532:	52                   	push   %edx
    4533:	58                   	pop    %eax
    4534:	5f                   	pop    %edi
    4535:	41                   	inc    %ecx
    4536:	43                   	inc    %ebx
    4537:	43                   	inc    %ebx
    4538:	45                   	inc    %ebp
    4539:	53                   	push   %ebx
    453a:	53                   	push   %ebx
    453b:	5f                   	pop    %edi
    453c:	54                   	push   %esp
    453d:	4f                   	dec    %edi
    453e:	00 90 28 67 75 65    	add    %dl,0x65756728(%eax)
    4544:	73 74                	jae    45ba <isl_handleintercept_exception_0D+0x236>
    4546:	5f                   	pop    %edi
    4547:	63 75 72             	arpl   %si,0x72(%ebp)
    454a:	72 65                	jb     45b1 <isl_handleintercept_exception_0D+0x22d>
    454c:	6e                   	outsb  %ds:(%esi),(%dx)
    454d:	74 73                	je     45c2 <isl_handleintercept_exception_0D+0x23e>
    454f:	74 61                	je     45b2 <isl_handleintercept_exception_0D+0x22e>
    4551:	74 65                	je     45b8 <isl_handleintercept_exception_0D+0x234>
    4553:	20 26                	and    %ah,(%esi)
    4555:	20 47 53             	and    %al,0x53(%edi)
    4558:	54                   	push   %esp
    4559:	41                   	inc    %ecx
    455a:	54                   	push   %esp
    455b:	45                   	inc    %ebp
    455c:	5f                   	pop    %edi
    455d:	50                   	push   %eax
    455e:	52                   	push   %edx
    455f:	4f                   	dec    %edi
    4560:	54                   	push   %esp
    4561:	45                   	inc    %ebp
    4562:	43                   	inc    %ebx
    4563:	54                   	push   %esp
    4564:	45                   	inc    %ebp
    4565:	44                   	inc    %esp
    4566:	4d                   	dec    %ebp
    4567:	4f                   	dec    %edi
    4568:	44                   	inc    %esp
    4569:	45                   	inc    %ebp
    456a:	29 20                	sub    %esp,(%eax)
    456c:	26 26 20 28          	and    %ch,%es:(%eax)
    4570:	67 75 65             	addr16 jne 45d8 <isl_handleintercept_exception_0D+0x254>
    4573:	73 74                	jae    45e9 <isl_handleintercept_exception_0D+0x265>
    4575:	5f                   	pop    %edi
    4576:	63 75 72             	arpl   %si,0x72(%ebp)
    4579:	72 65                	jb     45e0 <isl_handleintercept_exception_0D+0x25c>
    457b:	6e                   	outsb  %ds:(%esi),(%dx)
    457c:	74 73                	je     45f1 <isl_handleintercept_exception_0D+0x26d>
    457e:	74 61                	je     45e1 <isl_handleintercept_exception_0D+0x25d>
    4580:	74 65                	je     45e7 <isl_handleintercept_exception_0D+0x263>
    4582:	20 26                	and    %ah,(%esi)
    4584:	20 28                	and    %ch,(%eax)
    4586:	47                   	inc    %edi
    4587:	53                   	push   %ebx
    4588:	54                   	push   %esp
    4589:	41                   	inc    %ecx
    458a:	54                   	push   %esp
    458b:	45                   	inc    %ebp
    458c:	5f                   	pop    %edi
    458d:	50                   	push   %eax
    458e:	52                   	push   %edx
    458f:	4f                   	dec    %edi
    4590:	54                   	push   %esp
    4591:	45                   	inc    %ebp
    4592:	43                   	inc    %ebx
    4593:	54                   	push   %esp
    4594:	45                   	inc    %ebp
    4595:	44                   	inc    %esp
    4596:	4d                   	dec    %ebp
    4597:	4f                   	dec    %edi
    4598:	44                   	inc    %esp
    4599:	45                   	inc    %ebp
    459a:	20 7c 20 47          	and    %bh,0x47(%eax)
    459e:	53                   	push   %ebx
    459f:	54                   	push   %esp
    45a0:	41                   	inc    %ecx
    45a1:	54                   	push   %esp
    45a2:	45                   	inc    %ebp
    45a3:	5f                   	pop    %edi
    45a4:	50                   	push   %eax
    45a5:	52                   	push   %edx
    45a6:	4f                   	dec    %edi
    45a7:	54                   	push   %esp
    45a8:	45                   	inc    %ebp
    45a9:	43                   	inc    %ebx
    45aa:	54                   	push   %esp
    45ab:	45                   	inc    %ebp
    45ac:	44                   	inc    %esp
    45ad:	4d                   	dec    %ebp
    45ae:	4f                   	dec    %edi
    45af:	44                   	inc    %esp
    45b0:	45                   	inc    %ebp
    45b1:	5f                   	pop    %edi
    45b2:	47                   	inc    %edi
    45b3:	44                   	inc    %esp
    45b4:	54                   	push   %esp
    45b5:	52                   	push   %edx
    45b6:	29 29                	sub    %ebp,(%ecx)
    45b8:	00 8d 76 00 0a 30    	add    %cl,0x300a0076(%ebp)
    45be:	78 25                	js     45e5 <isl_handleintercept_exception_0D+0x261>
    45c0:	30 34 78             	xor    %dh,(%eax,%edi,2)
    45c3:	3a 30                	cmp    (%eax),%dh
    45c5:	78 25                	js     45ec <isl_handleintercept_exception_0D+0x268>
    45c7:	30 38                	xor    %bh,(%eax)
    45c9:	6c                   	insb   (%dx),%es:(%edi)
    45ca:	78 20                	js     45ec <isl_handleintercept_exception_0D+0x268>
    45cc:	2d 3e 20 43 52       	sub    $0x5243203e,%eax
    45d1:	30 2e                	xor    %ch,(%esi)
    45d3:	50                   	push   %eax
    45d4:	47                   	inc    %edi
    45d5:	3d 30 20 28 70       	cmp    $0x70282030,%eax
    45da:	61                   	popa   
    45db:	67 69 6e 67 20 64 69 	addr16 imul $0x73696420,0x67(%bp),%ebp
    45e2:	73 
    45e3:	61                   	popa   
    45e4:	62 6c 65 64          	bound  %ebp,0x64(%ebp)
    45e8:	29 00                	sub    %eax,(%eax)
    45ea:	0a 43 52             	or     0x52(%ebx),%al
    45ed:	33 3d 30 78 25 30    	xor    0x30257830,%edi
    45f3:	38 6c 78 2c          	cmp    %ch,0x2c(%eax,%edi,2)
    45f7:	20 43 52             	and    %al,0x52(%ebx)
    45fa:	34 3d                	xor    $0x3d,%al
    45fc:	30 78 25             	xor    %bh,0x25(%eax)
    45ff:	30 38                	xor    %bh,(%eax)
    4601:	6c                   	insb   (%dx),%es:(%edi)
    4602:	78 00                	js     4604 <isl_handleintercept_exception_0D+0x280>
    4604:	0a 30                	or     (%eax),%dh
    4606:	78 25                	js     462d <isl_handleintercept_exception_0D+0x2a9>
    4608:	30 34 78             	xor    %dh,(%eax,%edi,2)
    460b:	3a 30                	cmp    (%eax),%dh
    460d:	78 25                	js     4634 <isl_handleintercept_exception_0D+0x2b0>
    460f:	30 38                	xor    %bh,(%eax)
    4611:	6c                   	insb   (%dx),%es:(%edi)
    4612:	78 20                	js     4634 <isl_handleintercept_exception_0D+0x2b0>
    4614:	2d 3e 20 43 52       	sub    $0x5243203e,%eax
    4619:	30 2e                	xor    %ch,(%esi)
    461b:	50                   	push   %eax
    461c:	47                   	inc    %edi
    461d:	3d 31 20 28 70       	cmp    $0x70282031,%eax
    4622:	61                   	popa   
    4623:	67 69 6e 67 20 65 6e 	addr16 imul $0x616e6520,0x67(%bp),%ebp
    462a:	61 
    462b:	62 6c 65 64          	bound  %ebp,0x64(%ebp)
    462f:	29 00                	sub    %eax,(%eax)
    4631:	21 28                	and    %ebp,(%eax)
    4633:	63 72 30             	arpl   %si,0x30(%edx)
    4636:	76 61                	jbe    4699 <handle_intercept_cr0access+0x53>
    4638:	6c                   	insb   (%dx),%es:(%edi)
    4639:	75 65                	jne    46a0 <handle_intercept_cr0access+0x5a>
    463b:	20 26                	and    %ah,(%esi)
    463d:	20 43 52             	and    %al,0x52(%ebx)
    4640:	30 5f 50             	xor    %bl,0x50(%edi)
    4643:	47                   	inc    %edi
    4644:	29 00                	sub    %eax,(%eax)

0000000000004646 <handle_intercept_cr0access>:
    4646:	55                   	push   %ebp
    4647:	89 e5                	mov    %esp,%ebp
    4649:	53                   	push   %ebx
    464a:	83 ec 24             	sub    $0x24,%esp
    464d:	83 7d 0c 00          	cmpl   $0x0,0xc(%ebp)
    4651:	74 25                	je     4678 <handle_intercept_cr0access+0x32>
    4653:	c7 44 24 0c 81 42 00 	movl   $0x70004281,0xc(%esp)
    465a:	70 
    465b:	c7 44 24 08 5e 01 00 	movl   $0x15e,0x8(%esp)
    4662:	00 
    4663:	c7 44 24 04 23 45 00 	movl   $0x70004523,0x4(%esp)
    466a:	70 
    466b:	c7 04 24 10 43 00 70 	movl   $0x70004310,(%esp)
    4672:	e8 01 47 00 00       	call   8d78 <printf>
    4677:	f4                   	hlt    
    4678:	a1 14 98 00 70       	mov    0x70009814,%eax
    467d:	83 e0 02             	and    $0x2,%eax
    4680:	85 c0                	test   %eax,%eax
    4682:	74 0c                	je     4690 <handle_intercept_cr0access+0x4a>
    4684:	a1 14 98 00 70       	mov    0x70009814,%eax
    4689:	83 e0 0a             	and    $0xa,%eax
    468c:	85 c0                	test   %eax,%eax
    468e:	75 25                	jne    46b5 <handle_intercept_cr0access+0x6f>
    4690:	c7 44 24 0c 81 42 00 	movl   $0x70004281,0xc(%esp)
    4697:	70 
    4698:	c7 44 24 08 60 01 00 	movl   $0x160,0x8(%esp)
    469f:	00 
    46a0:	c7 44 24 04 40 45 00 	movl   $0x70004540,0x4(%esp)
    46a7:	70 
    46a8:	c7 04 24 10 43 00 70 	movl   $0x70004310,(%esp)
    46af:	e8 c4 46 00 00       	call   8d78 <printf>
    46b4:	f4                   	hlt    
    46b5:	8b 45 08             	mov    0x8(%ebp),%eax
    46b8:	8b 04 85 f0 97 00 70 	mov    0x700097f0(,%eax,4),%eax
    46bf:	8b 00                	mov    (%eax),%eax
    46c1:	89 45 f8             	mov    %eax,-0x8(%ebp)
    46c4:	8b 45 f8             	mov    -0x8(%ebp),%eax
    46c7:	83 e0 01             	and    $0x1,%eax
    46ca:	83 f0 01             	xor    $0x1,%eax
    46cd:	84 c0                	test   %al,%al
    46cf:	0f 85 1d 01 00 00    	jne    47f2 <handle_intercept_cr0access+0x1ac>
    46d5:	a1 b8 9c 00 70       	mov    0x70009cb8,%eax
    46da:	8b 15 bc 9c 00 70    	mov    0x70009cbc,%edx
    46e0:	89 c1                	mov    %eax,%ecx
    46e2:	81 e1 00 00 00 80    	and    $0x80000000,%ecx
    46e8:	89 d3                	mov    %edx,%ebx
    46ea:	83 e3 00             	and    $0x0,%ebx
    46ed:	89 d8                	mov    %ebx,%eax
    46ef:	09 c8                	or     %ecx,%eax
    46f1:	85 c0                	test   %eax,%eax
    46f3:	0f 84 f9 00 00 00    	je     47f2 <handle_intercept_cr0access+0x1ac>
    46f9:	8b 45 f8             	mov    -0x8(%ebp),%eax
    46fc:	85 c0                	test   %eax,%eax
    46fe:	0f 88 ee 00 00 00    	js     47f2 <handle_intercept_cr0access+0x1ac>
    4704:	a1 20 9e 00 70       	mov    0x70009e20,%eax
    4709:	8b 15 24 9e 00 70    	mov    0x70009e24,%edx
    470f:	89 c2                	mov    %eax,%edx
    4711:	0f b7 05 a2 9e 00 70 	movzwl 0x70009ea2,%eax
    4718:	0f b7 c0             	movzwl %ax,%eax
    471b:	89 54 24 08          	mov    %edx,0x8(%esp)
    471f:	89 44 24 04          	mov    %eax,0x4(%esp)
    4723:	c7 04 24 bc 45 00 70 	movl   $0x700045bc,(%esp)
    472a:	e8 49 46 00 00       	call   8d78 <printf>
    472f:	a1 b8 9d 00 70       	mov    0x70009db8,%eax
    4734:	8b 15 bc 9d 00 70    	mov    0x70009dbc,%edx
    473a:	89 c1                	mov    %eax,%ecx
    473c:	a1 b0 9d 00 70       	mov    0x70009db0,%eax
    4741:	8b 15 b4 9d 00 70    	mov    0x70009db4,%edx
    4747:	89 4c 24 08          	mov    %ecx,0x8(%esp)
    474b:	89 44 24 04          	mov    %eax,0x4(%esp)
    474f:	c7 04 24 ea 45 00 70 	movl   $0x700045ea,(%esp)
    4756:	e8 1d 46 00 00       	call   8d78 <printf>
    475b:	a1 b0 9d 00 70       	mov    0x70009db0,%eax
    4760:	8b 15 b4 9d 00 70    	mov    0x70009db4,%edx
    4766:	a3 10 98 00 70       	mov    %eax,0x70009810
    476b:	b8 00 50 02 70       	mov    $0x70025000,%eax
    4770:	ba 00 00 00 00       	mov    $0x0,%edx
    4775:	a3 b0 9d 00 70       	mov    %eax,0x70009db0
    477a:	89 15 b4 9d 00 70    	mov    %edx,0x70009db4
    4780:	8b 0d b8 9d 00 70    	mov    0x70009db8,%ecx
    4786:	8b 1d bc 9d 00 70    	mov    0x70009dbc,%ebx
    478c:	89 c8                	mov    %ecx,%eax
    478e:	83 e0 df             	and    $0xffffffdf,%eax
    4791:	89 da                	mov    %ebx,%edx
    4793:	80 e6 ff             	and    $0xff,%dh
    4796:	a3 b8 9d 00 70       	mov    %eax,0x70009db8
    479b:	89 15 bc 9d 00 70    	mov    %edx,0x70009dbc
    47a1:	8b 0d b8 9c 00 70    	mov    0x70009cb8,%ecx
    47a7:	8b 1d bc 9c 00 70    	mov    0x70009cbc,%ebx
    47ad:	89 c8                	mov    %ecx,%eax
    47af:	25 ff ff ff 7f       	and    $0x7fffffff,%eax
    47b4:	89 da                	mov    %ebx,%edx
    47b6:	83 e2 00             	and    $0x0,%edx
    47b9:	a3 b8 9c 00 70       	mov    %eax,0x70009cb8
    47be:	89 15 bc 9c 00 70    	mov    %edx,0x70009cbc
    47c4:	a1 6c 9c 00 70       	mov    0x70009c6c,%eax
    47c9:	80 cc 80             	or     $0x80,%ah
    47cc:	a3 6c 9c 00 70       	mov    %eax,0x70009c6c
    47d1:	a1 6c 9c 00 70       	mov    0x70009c6c,%eax
    47d6:	0d 00 00 01 00       	or     $0x10000,%eax
    47db:	a3 6c 9c 00 70       	mov    %eax,0x70009c6c
    47e0:	a1 14 98 00 70       	mov    0x70009814,%eax
    47e5:	83 e0 df             	and    $0xffffffdf,%eax
    47e8:	a3 14 98 00 70       	mov    %eax,0x70009814
    47ed:	e9 f2 01 00 00       	jmp    49e4 <handle_intercept_cr0access+0x39e>
    47f2:	8b 45 f8             	mov    -0x8(%ebp),%eax
    47f5:	83 e0 01             	and    $0x1,%eax
    47f8:	83 f0 01             	xor    $0x1,%eax
    47fb:	84 c0                	test   %al,%al
    47fd:	0f 85 fd 00 00 00    	jne    4900 <handle_intercept_cr0access+0x2ba>
    4803:	a1 b8 9c 00 70       	mov    0x70009cb8,%eax
    4808:	8b 15 bc 9c 00 70    	mov    0x70009cbc,%edx
    480e:	89 c1                	mov    %eax,%ecx
    4810:	81 e1 00 00 00 80    	and    $0x80000000,%ecx
    4816:	89 d3                	mov    %edx,%ebx
    4818:	83 e3 00             	and    $0x0,%ebx
    481b:	89 d8                	mov    %ebx,%eax
    481d:	09 c8                	or     %ecx,%eax
    481f:	85 c0                	test   %eax,%eax
    4821:	0f 85 d9 00 00 00    	jne    4900 <handle_intercept_cr0access+0x2ba>
    4827:	8b 45 f8             	mov    -0x8(%ebp),%eax
    482a:	85 c0                	test   %eax,%eax
    482c:	0f 89 ce 00 00 00    	jns    4900 <handle_intercept_cr0access+0x2ba>
    4832:	a1 20 9e 00 70       	mov    0x70009e20,%eax
    4837:	8b 15 24 9e 00 70    	mov    0x70009e24,%edx
    483d:	89 c2                	mov    %eax,%edx
    483f:	0f b7 05 a2 9e 00 70 	movzwl 0x70009ea2,%eax
    4846:	0f b7 c0             	movzwl %ax,%eax
    4849:	89 54 24 08          	mov    %edx,0x8(%esp)
    484d:	89 44 24 04          	mov    %eax,0x4(%esp)
    4851:	c7 04 24 04 46 00 70 	movl   $0x70004604,(%esp)
    4858:	e8 1b 45 00 00       	call   8d78 <printf>
    485d:	8b 0d b8 9c 00 70    	mov    0x70009cb8,%ecx
    4863:	8b 1d bc 9c 00 70    	mov    0x70009cbc,%ebx
    4869:	89 c8                	mov    %ecx,%eax
    486b:	0d 00 00 00 80       	or     $0x80000000,%eax
    4870:	89 da                	mov    %ebx,%edx
    4872:	80 ce 00             	or     $0x0,%dh
    4875:	a3 b8 9c 00 70       	mov    %eax,0x70009cb8
    487a:	89 15 bc 9c 00 70    	mov    %edx,0x70009cbc
    4880:	8b 0d c0 9c 00 70    	mov    0x70009cc0,%ecx
    4886:	8b 1d c4 9c 00 70    	mov    0x70009cc4,%ebx
    488c:	89 c8                	mov    %ecx,%eax
    488e:	83 e0 20             	and    $0x20,%eax
    4891:	89 da                	mov    %ebx,%edx
    4893:	83 e2 00             	and    $0x0,%edx
    4896:	09 d0                	or     %edx,%eax
    4898:	85 c0                	test   %eax,%eax
    489a:	74 21                	je     48bd <handle_intercept_cr0access+0x277>
    489c:	8b 0d b8 9d 00 70    	mov    0x70009db8,%ecx
    48a2:	8b 1d bc 9d 00 70    	mov    0x70009dbc,%ebx
    48a8:	89 c8                	mov    %ecx,%eax
    48aa:	83 c8 20             	or     $0x20,%eax
    48ad:	89 da                	mov    %ebx,%edx
    48af:	80 ce 00             	or     $0x0,%dh
    48b2:	a3 b8 9d 00 70       	mov    %eax,0x70009db8
    48b7:	89 15 bc 9d 00 70    	mov    %edx,0x70009dbc
    48bd:	a1 10 98 00 70       	mov    0x70009810,%eax
    48c2:	ba 00 00 00 00       	mov    $0x0,%edx
    48c7:	a3 b0 9d 00 70       	mov    %eax,0x70009db0
    48cc:	89 15 b4 9d 00 70    	mov    %edx,0x70009db4
    48d2:	a1 6c 9c 00 70       	mov    0x70009c6c,%eax
    48d7:	80 e4 7f             	and    $0x7f,%ah
    48da:	a3 6c 9c 00 70       	mov    %eax,0x70009c6c
    48df:	a1 6c 9c 00 70       	mov    0x70009c6c,%eax
    48e4:	25 ff ff fe ff       	and    $0xfffeffff,%eax
    48e9:	a3 6c 9c 00 70       	mov    %eax,0x70009c6c
    48ee:	a1 14 98 00 70       	mov    0x70009814,%eax
    48f3:	83 c8 20             	or     $0x20,%eax
    48f6:	a3 14 98 00 70       	mov    %eax,0x70009814
    48fb:	e9 e4 00 00 00       	jmp    49e4 <handle_intercept_cr0access+0x39e>
    4900:	8b 45 f8             	mov    -0x8(%ebp),%eax
    4903:	83 e0 01             	and    $0x1,%eax
    4906:	85 c0                	test   %eax,%eax
    4908:	0f 85 d6 00 00 00    	jne    49e4 <handle_intercept_cr0access+0x39e>
    490e:	8b 45 f8             	mov    -0x8(%ebp),%eax
    4911:	85 c0                	test   %eax,%eax
    4913:	79 25                	jns    493a <handle_intercept_cr0access+0x2f4>
    4915:	c7 44 24 0c 81 42 00 	movl   $0x70004281,0xc(%esp)
    491c:	70 
    491d:	c7 44 24 08 8f 01 00 	movl   $0x18f,0x8(%esp)
    4924:	00 
    4925:	c7 44 24 04 31 46 00 	movl   $0x70004631,0x4(%esp)
    492c:	70 
    492d:	c7 04 24 10 43 00 70 	movl   $0x70004310,(%esp)
    4934:	e8 3f 44 00 00       	call   8d78 <printf>
    4939:	f4                   	hlt    
    493a:	c7 05 18 98 00 70 01 	movl   $0x1,0x70009818
    4941:	00 00 00 
    4944:	8b 45 f8             	mov    -0x8(%ebp),%eax
    4947:	a3 50 96 00 70       	mov    %eax,0x70009650
    494c:	a1 50 96 00 70       	mov    0x70009650,%eax
    4951:	ba 00 00 00 00       	mov    $0x0,%edx
    4956:	a3 a8 9d 00 70       	mov    %eax,0x70009da8
    495b:	89 15 ac 9d 00 70    	mov    %edx,0x70009dac
    4961:	8b 0d a8 9d 00 70    	mov    0x70009da8,%ecx
    4967:	8b 1d ac 9d 00 70    	mov    0x70009dac,%ebx
    496d:	89 c8                	mov    %ecx,%eax
    496f:	0d 00 00 01 00       	or     $0x10000,%eax
    4974:	89 da                	mov    %ebx,%edx
    4976:	80 ce 00             	or     $0x0,%dh
    4979:	a3 a8 9d 00 70       	mov    %eax,0x70009da8
    497e:	89 15 ac 9d 00 70    	mov    %edx,0x70009dac
    4984:	8b 0d b8 9c 00 70    	mov    0x70009cb8,%ecx
    498a:	8b 1d bc 9c 00 70    	mov    0x70009cbc,%ebx
    4990:	89 c8                	mov    %ecx,%eax
    4992:	25 ff ff ff 7f       	and    $0x7fffffff,%eax
    4997:	89 da                	mov    %ebx,%edx
    4999:	83 e2 00             	and    $0x0,%edx
    499c:	a3 b8 9c 00 70       	mov    %eax,0x70009cb8
    49a1:	89 15 bc 9c 00 70    	mov    %edx,0x70009cbc
    49a7:	8b 0d b8 9c 00 70    	mov    0x70009cb8,%ecx
    49ad:	8b 1d bc 9c 00 70    	mov    0x70009cbc,%ebx
    49b3:	89 c8                	mov    %ecx,%eax
    49b5:	83 e0 fe             	and    $0xfffffffe,%eax
    49b8:	89 da                	mov    %ebx,%edx
    49ba:	80 e6 ff             	and    $0xff,%dh
    49bd:	a3 b8 9c 00 70       	mov    %eax,0x70009cb8
    49c2:	89 15 bc 9c 00 70    	mov    %edx,0x70009cbc
    49c8:	a1 18 98 00 70       	mov    0x70009818,%eax
    49cd:	8b 15 14 98 00 70    	mov    0x70009814,%edx
    49d3:	89 44 24 04          	mov    %eax,0x4(%esp)
    49d7:	89 14 24             	mov    %edx,(%esp)
    49da:	e8 49 17 00 00       	call   6128 <isl_prepareVMCS>
    49df:	a3 14 98 00 70       	mov    %eax,0x70009814
    49e4:	83 c4 24             	add    $0x24,%esp
    49e7:	5b                   	pop    %ebx
    49e8:	5d                   	pop    %ebp
    49e9:	c3                   	ret    
    49ea:	66 90                	xchg   %ax,%ax
    49ec:	0a 43 52             	or     0x52(%ebx),%al
    49ef:	30 2e                	xor    %ch,(%esi)
    49f1:	50                   	push   %eax
    49f2:	47                   	inc    %edi
    49f3:	3d 30 2c 20 72       	cmp    $0x72202c30,%eax
    49f8:	65                   	gs
    49f9:	61                   	popa   
    49fa:	64                   	fs
    49fb:	2f                   	das    
    49fc:	77 72                	ja     4a70 <handle_intercept_cr3access+0x5f>
    49fe:	69 74 65 20 74 6f 20 	imul   $0x67206f74,0x20(%ebp),%esi
    4a05:	67 
    4a06:	75 65                	jne    4a6d <handle_intercept_cr3access+0x5c>
    4a08:	73 74                	jae    4a7e <handle_intercept_cr3access+0x6d>
    4a0a:	63 72 33             	arpl   %si,0x33(%edx)
    4a0d:	76 61                	jbe    4a70 <handle_intercept_cr3access+0x5f>
    4a0f:	6c                   	insb   (%dx),%es:(%edi)
	...

0000000000004a11 <handle_intercept_cr3access>:
    4a11:	55                   	push   %ebp
    4a12:	89 e5                	mov    %esp,%ebp
    4a14:	53                   	push   %ebx
    4a15:	83 ec 04             	sub    $0x4,%esp
    4a18:	a1 b8 9c 00 70       	mov    0x70009cb8,%eax
    4a1d:	8b 15 bc 9c 00 70    	mov    0x70009cbc,%edx
    4a23:	89 c1                	mov    %eax,%ecx
    4a25:	81 e1 00 00 00 80    	and    $0x80000000,%ecx
    4a2b:	89 d3                	mov    %edx,%ebx
    4a2d:	83 e3 00             	and    $0x0,%ebx
    4a30:	89 d8                	mov    %ebx,%eax
    4a32:	09 c8                	or     %ecx,%eax
    4a34:	85 c0                	test   %eax,%eax
    4a36:	74 3f                	je     4a77 <handle_intercept_cr3access+0x66>
    4a38:	83 7d 0c 01          	cmpl   $0x1,0xc(%ebp)
    4a3c:	75 1b                	jne    4a59 <handle_intercept_cr3access+0x48>
    4a3e:	8b 45 08             	mov    0x8(%ebp),%eax
    4a41:	8b 04 85 f0 97 00 70 	mov    0x700097f0(,%eax,4),%eax
    4a48:	89 c1                	mov    %eax,%ecx
    4a4a:	a1 b0 9d 00 70       	mov    0x70009db0,%eax
    4a4f:	8b 15 b4 9d 00 70    	mov    0x70009db4,%edx
    4a55:	89 01                	mov    %eax,(%ecx)
    4a57:	eb 56                	jmp    4aaf <handle_intercept_cr3access+0x9e>
    4a59:	8b 45 08             	mov    0x8(%ebp),%eax
    4a5c:	8b 04 85 f0 97 00 70 	mov    0x700097f0(,%eax,4),%eax
    4a63:	8b 00                	mov    (%eax),%eax
    4a65:	ba 00 00 00 00       	mov    $0x0,%edx
    4a6a:	a3 b0 9d 00 70       	mov    %eax,0x70009db0
    4a6f:	89 15 b4 9d 00 70    	mov    %edx,0x70009db4
    4a75:	eb 38                	jmp    4aaf <handle_intercept_cr3access+0x9e>
    4a77:	c7 04 24 ec 49 00 70 	movl   $0x700049ec,(%esp)
    4a7e:	e8 f5 42 00 00       	call   8d78 <printf>
    4a83:	83 7d 0c 01          	cmpl   $0x1,0xc(%ebp)
    4a87:	75 15                	jne    4a9e <handle_intercept_cr3access+0x8d>
    4a89:	8b 45 08             	mov    0x8(%ebp),%eax
    4a8c:	8b 04 85 f0 97 00 70 	mov    0x700097f0(,%eax,4),%eax
    4a93:	89 c2                	mov    %eax,%edx
    4a95:	a1 10 98 00 70       	mov    0x70009810,%eax
    4a9a:	89 02                	mov    %eax,(%edx)
    4a9c:	eb 11                	jmp    4aaf <handle_intercept_cr3access+0x9e>
    4a9e:	8b 45 08             	mov    0x8(%ebp),%eax
    4aa1:	8b 04 85 f0 97 00 70 	mov    0x700097f0(,%eax,4),%eax
    4aa8:	8b 00                	mov    (%eax),%eax
    4aaa:	a3 10 98 00 70       	mov    %eax,0x70009810
    4aaf:	83 c4 04             	add    $0x4,%esp
    4ab2:	5b                   	pop    %ebx
    4ab3:	5d                   	pop    %ebp
    4ab4:	c3                   	ret    
    4ab5:	8d 74 26 00          	lea    0x0(%esi),%esi
    4ab9:	8d bc 27 00 00 00 00 	lea    0x0(%edi),%edi

0000000000004ac0 <__FUNCTION__.1960>:
    4ac0:	68 61 6e 64 6c       	push   $0x6c646e61
    4ac5:	65                   	gs
    4ac6:	5f                   	pop    %edi
    4ac7:	69 6e 74 65 72 63 65 	imul   $0x65637265,0x74(%esi),%ebp
    4ace:	70 74                	jo     4b44 <__FUNCTION__.1960+0x84>
    4ad0:	5f                   	pop    %edi
    4ad1:	63 72 34             	arpl   %si,0x34(%edx)
    4ad4:	61                   	popa   
    4ad5:	63 63 65             	arpl   %sp,0x65(%ebx)
    4ad8:	73 73                	jae    4b4d <__FUNCTION__.1960+0x8d>
    4ada:	00 90 0a 30 78 25    	add    %dl,0x2578300a(%eax)
    4ae0:	30 34 78             	xor    %dh,(%eax,%edi,2)
    4ae3:	3a 30                	cmp    (%eax),%dh
    4ae5:	78 25                	js     4b0c <__FUNCTION__.1960+0x4c>
    4ae7:	30 38                	xor    %bh,(%eax)
    4ae9:	78 3a                	js     4b25 <__FUNCTION__.1960+0x65>
    4aeb:	20 43 52             	and    %al,0x52(%ebx)
    4aee:	34 20                	xor    $0x20,%al
    4af0:	61                   	popa   
    4af1:	63 63 65             	arpl   %sp,0x65(%ebx)
    4af4:	73 73                	jae    4b69 <__FUNCTION__.1960+0xa9>
    4af6:	20 67 70             	and    %ah,0x70(%edi)
    4af9:	72 3d                	jb     4b38 <__FUNCTION__.1960+0x78>
    4afb:	25 75 2c 20 74       	and    $0x74202c75,%eax
    4b00:	6f                   	outsl  %ds:(%esi),(%dx)
    4b01:	66                   	data16
    4b02:	72 6f                	jb     4b73 <__FUNCTION__.1960+0xb3>
    4b04:	6d                   	insl   (%dx),%es:(%edi)
    4b05:	3d 25 75 00 8d       	cmp    $0x8d007525,%eax
    4b0a:	76 00                	jbe    4b0c <__FUNCTION__.1960+0x4c>
    4b0c:	28 20                	sub    %ah,(%eax)
    4b0e:	28 2a                	sub    %ch,(%edx)
    4b10:	28 28                	sub    %ch,(%eax)
    4b12:	75 33                	jne    4b47 <__FUNCTION__.1960+0x87>
    4b14:	32 20                	xor    (%eax),%ah
    4b16:	2a 29                	sub    (%ecx),%ch
    4b18:	69 73 6c 67 70 72 74 	imul   $0x74727067,0x6c(%ebx),%esi
    4b1f:	61                   	popa   
    4b20:	62 6c 65 5b          	bound  %ebp,0x5b(%ebp)
    4b24:	67 70 72             	addr16 jo 4b99 <__FUNCTION__.1960+0xd9>
    4b27:	5d                   	pop    %ebp
    4b28:	29 20                	sub    %esp,(%eax)
    4b2a:	26 20 43 52          	and    %al,%es:0x52(%ebx)
    4b2e:	34 5f                	xor    $0x5f,%al
    4b30:	50                   	push   %eax
    4b31:	41                   	inc    %ecx
    4b32:	45                   	inc    %ebp
    4b33:	29 20                	sub    %esp,(%eax)
    4b35:	26 26 20 21          	and    %ah,%es:(%ecx)
    4b39:	28 63 6f             	sub    %ah,0x6f(%ebx)
    4b3c:	6e                   	outsb  %ds:(%esi),(%dx)
    4b3d:	74 72                	je     4bb1 <__FUNCTION__.1960+0xf1>
    4b3f:	6f                   	outsl  %ds:(%esi),(%dx)
    4b40:	6c                   	insb   (%dx),%es:(%edi)
    4b41:	5f                   	pop    %edi
    4b42:	43                   	inc    %ebx
    4b43:	52                   	push   %edx
    4b44:	34 5f                	xor    $0x5f,%al
    4b46:	73 68                	jae    4bb0 <__FUNCTION__.1960+0xf0>
    4b48:	61                   	popa   
    4b49:	64 6f                	outsl  %fs:(%esi),(%dx)
    4b4b:	77 20                	ja     4b6d <__FUNCTION__.1960+0xad>
    4b4d:	26 20 43 52          	and    %al,%es:0x52(%ebx)
    4b51:	34 5f                	xor    $0x5f,%al
    4b53:	50                   	push   %eax
    4b54:	41                   	inc    %ecx
    4b55:	45                   	inc    %ebp
    4b56:	29 20                	sub    %esp,(%eax)
    4b58:	29 20                	sub    %esp,(%eax)
    4b5a:	7c 7c                	jl     4bd8 <__FUNCTION__.1960+0x118>
    4b5c:	20 28                	and    %ch,(%eax)
    4b5e:	20 21                	and    %ah,(%ecx)
    4b60:	28 2a                	sub    %ch,(%edx)
    4b62:	28 28                	sub    %ch,(%eax)
    4b64:	75 33                	jne    4b99 <__FUNCTION__.1960+0xd9>
    4b66:	32 20                	xor    (%eax),%ah
    4b68:	2a 29                	sub    (%ecx),%ch
    4b6a:	69 73 6c 67 70 72 74 	imul   $0x74727067,0x6c(%ebx),%esi
    4b71:	61                   	popa   
    4b72:	62 6c 65 5b          	bound  %ebp,0x5b(%ebp)
    4b76:	67 70 72             	addr16 jo 4beb <__FUNCTION__.1960+0x12b>
    4b79:	5d                   	pop    %ebp
    4b7a:	29 20                	sub    %esp,(%eax)
    4b7c:	26 20 43 52          	and    %al,%es:0x52(%ebx)
    4b80:	34 5f                	xor    $0x5f,%al
    4b82:	50                   	push   %eax
    4b83:	41                   	inc    %ecx
    4b84:	45                   	inc    %ebp
    4b85:	29 20                	sub    %esp,(%eax)
    4b87:	26 26 20 28          	and    %ch,%es:(%eax)
    4b8b:	63 6f 6e             	arpl   %bp,0x6e(%edi)
    4b8e:	74 72                	je     4c02 <__FUNCTION__.1960+0x142>
    4b90:	6f                   	outsl  %ds:(%esi),(%dx)
    4b91:	6c                   	insb   (%dx),%es:(%edi)
    4b92:	5f                   	pop    %edi
    4b93:	43                   	inc    %ebx
    4b94:	52                   	push   %edx
    4b95:	34 5f                	xor    $0x5f,%al
    4b97:	73 68                	jae    4c01 <__FUNCTION__.1960+0x141>
    4b99:	61                   	popa   
    4b9a:	64 6f                	outsl  %fs:(%esi),(%dx)
    4b9c:	77 20                	ja     4bbe <__FUNCTION__.1960+0xfe>
    4b9e:	26 20 43 52          	and    %al,%es:0x52(%ebx)
    4ba2:	34 5f                	xor    $0x5f,%al
    4ba4:	50                   	push   %eax
    4ba5:	41                   	inc    %ecx
    4ba6:	45                   	inc    %ebp
    4ba7:	29 20                	sub    %esp,(%eax)
    4ba9:	29 00                	sub    %eax,(%eax)
    4bab:	0a 50 41             	or     0x41(%eax),%dl
    4bae:	45                   	inc    %ebp
    4baf:	20 65 6e             	and    %ah,0x6e(%ebp)
    4bb2:	61                   	popa   
    4bb3:	62 6c 65 64          	bound  %ebp,0x64(%ebp)
    4bb7:	20 62 79             	and    %ah,0x79(%edx)
    4bba:	20 67 75             	and    %ah,0x75(%edi)
    4bbd:	65                   	gs
    4bbe:	73 74                	jae    4c34 <handle_intercept_cr4access+0x31>
    4bc0:	2e 00 0a             	add    %cl,%cs:(%edx)
    4bc3:	50                   	push   %eax
    4bc4:	41                   	inc    %ecx
    4bc5:	45                   	inc    %ebp
    4bc6:	20 64 69 73          	and    %ah,0x73(%ecx,%ebp,2)
    4bca:	61                   	popa   
    4bcb:	62 6c 65 64          	bound  %ebp,0x64(%ebp)
    4bcf:	20 62 79             	and    %ah,0x79(%edx)
    4bd2:	20 67 75             	and    %ah,0x75(%edi)
    4bd5:	65                   	gs
    4bd6:	73 74                	jae    4c4c <handle_intercept_cr4access+0x49>
    4bd8:	2e 00 66 90          	add    %ah,%cs:-0x70(%esi)
    4bdc:	25 73 3a 20 70       	and    $0x70203a73,%eax
    4be1:	61                   	popa   
    4be2:	65 20 63 72          	and    %ah,%gs:0x72(%ebx)
    4be6:	33 5b 25             	xor    0x25(%ebx),%ebx
    4be9:	64                   	fs
    4bea:	5d                   	pop    %ebp
    4beb:	20 30                	and    %dh,(%eax)
    4bed:	78 25                	js     4c14 <handle_intercept_cr4access+0x11>
    4bef:	6c                   	insb   (%dx),%es:(%edi)
    4bf0:	6c                   	insb   (%dx),%es:(%edi)
    4bf1:	78 2c                	js     4c1f <handle_intercept_cr4access+0x1c>
    4bf3:	20 72 65             	and    %dh,0x65(%edx)
    4bf6:	73 65                	jae    4c5d <handle_intercept_cr4access+0x5a>
    4bf8:	72 76                	jb     4c70 <handle_intercept_cr4access+0x6d>
    4bfa:	65 64 20 62 69       	and    %ah,%fs:%gs:0x69(%edx)
    4bff:	74 73                	je     4c74 <handle_intercept_cr4access+0x71>
    4c01:	0a 00                	or     (%eax),%al

0000000000004c03 <handle_intercept_cr4access>:
    4c03:	55                   	push   %ebp
    4c04:	89 e5                	mov    %esp,%ebp
    4c06:	57                   	push   %edi
    4c07:	56                   	push   %esi
    4c08:	53                   	push   %ebx
    4c09:	83 ec 3c             	sub    $0x3c,%esp
    4c0c:	a1 20 9e 00 70       	mov    0x70009e20,%eax
    4c11:	8b 15 24 9e 00 70    	mov    0x70009e24,%edx
    4c17:	89 c2                	mov    %eax,%edx
    4c19:	0f b7 05 a2 9e 00 70 	movzwl 0x70009ea2,%eax
    4c20:	0f b7 c8             	movzwl %ax,%ecx
    4c23:	8b 45 0c             	mov    0xc(%ebp),%eax
    4c26:	89 44 24 10          	mov    %eax,0x10(%esp)
    4c2a:	8b 45 08             	mov    0x8(%ebp),%eax
    4c2d:	89 44 24 0c          	mov    %eax,0xc(%esp)
    4c31:	89 54 24 08          	mov    %edx,0x8(%esp)
    4c35:	89 4c 24 04          	mov    %ecx,0x4(%esp)
    4c39:	c7 04 24 dc 4a 00 70 	movl   $0x70004adc,(%esp)
    4c40:	e8 33 41 00 00       	call   8d78 <printf>
    4c45:	83 7d 0c 00          	cmpl   $0x0,0xc(%ebp)
    4c49:	74 25                	je     4c70 <handle_intercept_cr4access+0x6d>
    4c4b:	c7 44 24 0c 81 42 00 	movl   $0x70004281,0xc(%esp)
    4c52:	70 
    4c53:	c7 44 24 08 bc 01 00 	movl   $0x1bc,0x8(%esp)
    4c5a:	00 
    4c5b:	c7 44 24 04 23 45 00 	movl   $0x70004523,0x4(%esp)
    4c62:	70 
    4c63:	c7 04 24 10 43 00 70 	movl   $0x70004310,(%esp)
    4c6a:	e8 09 41 00 00       	call   8d78 <printf>
    4c6f:	f4                   	hlt    
    4c70:	8b 45 08             	mov    0x8(%ebp),%eax
    4c73:	8b 04 85 f0 97 00 70 	mov    0x700097f0(,%eax,4),%eax
    4c7a:	8b 00                	mov    (%eax),%eax
    4c7c:	83 e0 20             	and    $0x20,%eax
    4c7f:	85 c0                	test   %eax,%eax
    4c81:	74 1d                	je     4ca0 <handle_intercept_cr4access+0x9d>
    4c83:	a1 c0 9c 00 70       	mov    0x70009cc0,%eax
    4c88:	8b 15 c4 9c 00 70    	mov    0x70009cc4,%edx
    4c8e:	89 c1                	mov    %eax,%ecx
    4c90:	83 e1 20             	and    $0x20,%ecx
    4c93:	89 d3                	mov    %edx,%ebx
    4c95:	83 e3 00             	and    $0x0,%ebx
    4c98:	89 d8                	mov    %ebx,%eax
    4c9a:	09 c8                	or     %ecx,%eax
    4c9c:	85 c0                	test   %eax,%eax
    4c9e:	74 55                	je     4cf5 <handle_intercept_cr4access+0xf2>
    4ca0:	8b 45 08             	mov    0x8(%ebp),%eax
    4ca3:	8b 04 85 f0 97 00 70 	mov    0x700097f0(,%eax,4),%eax
    4caa:	8b 00                	mov    (%eax),%eax
    4cac:	83 e0 20             	and    $0x20,%eax
    4caf:	85 c0                	test   %eax,%eax
    4cb1:	75 1d                	jne    4cd0 <handle_intercept_cr4access+0xcd>
    4cb3:	a1 c0 9c 00 70       	mov    0x70009cc0,%eax
    4cb8:	8b 15 c4 9c 00 70    	mov    0x70009cc4,%edx
    4cbe:	89 c1                	mov    %eax,%ecx
    4cc0:	83 e1 20             	and    $0x20,%ecx
    4cc3:	89 d3                	mov    %edx,%ebx
    4cc5:	83 e3 00             	and    $0x0,%ebx
    4cc8:	89 d8                	mov    %ebx,%eax
    4cca:	09 c8                	or     %ecx,%eax
    4ccc:	85 c0                	test   %eax,%eax
    4cce:	75 25                	jne    4cf5 <handle_intercept_cr4access+0xf2>
    4cd0:	c7 44 24 0c 81 42 00 	movl   $0x70004281,0xc(%esp)
    4cd7:	70 
    4cd8:	c7 44 24 08 be 01 00 	movl   $0x1be,0x8(%esp)
    4cdf:	00 
    4ce0:	c7 44 24 04 0c 4b 00 	movl   $0x70004b0c,0x4(%esp)
    4ce7:	70 
    4ce8:	c7 04 24 10 43 00 70 	movl   $0x70004310,(%esp)
    4cef:	e8 84 40 00 00       	call   8d78 <printf>
    4cf4:	f4                   	hlt    
    4cf5:	8b 45 08             	mov    0x8(%ebp),%eax
    4cf8:	8b 04 85 f0 97 00 70 	mov    0x700097f0(,%eax,4),%eax
    4cff:	8b 00                	mov    (%eax),%eax
    4d01:	83 e0 20             	and    $0x20,%eax
    4d04:	85 c0                	test   %eax,%eax
    4d06:	74 4c                	je     4d54 <handle_intercept_cr4access+0x151>
    4d08:	a1 c0 9c 00 70       	mov    0x70009cc0,%eax
    4d0d:	8b 15 c4 9c 00 70    	mov    0x70009cc4,%edx
    4d13:	89 c1                	mov    %eax,%ecx
    4d15:	83 e1 20             	and    $0x20,%ecx
    4d18:	89 d3                	mov    %edx,%ebx
    4d1a:	83 e3 00             	and    $0x0,%ebx
    4d1d:	89 d8                	mov    %ebx,%eax
    4d1f:	09 c8                	or     %ecx,%eax
    4d21:	85 c0                	test   %eax,%eax
    4d23:	75 2f                	jne    4d54 <handle_intercept_cr4access+0x151>
    4d25:	c7 04 24 ab 4b 00 70 	movl   $0x70004bab,(%esp)
    4d2c:	e8 47 40 00 00       	call   8d78 <printf>
    4d31:	8b 0d c0 9c 00 70    	mov    0x70009cc0,%ecx
    4d37:	8b 1d c4 9c 00 70    	mov    0x70009cc4,%ebx
    4d3d:	89 c8                	mov    %ecx,%eax
    4d3f:	83 c8 20             	or     $0x20,%eax
    4d42:	89 da                	mov    %ebx,%edx
    4d44:	80 ce 00             	or     $0x0,%dh
    4d47:	a3 c0 9c 00 70       	mov    %eax,0x70009cc0
    4d4c:	89 15 c4 9c 00 70    	mov    %edx,0x70009cc4
    4d52:	eb 2d                	jmp    4d81 <handle_intercept_cr4access+0x17e>
    4d54:	c7 04 24 c2 4b 00 70 	movl   $0x70004bc2,(%esp)
    4d5b:	e8 18 40 00 00       	call   8d78 <printf>
    4d60:	8b 0d c0 9c 00 70    	mov    0x70009cc0,%ecx
    4d66:	8b 1d c4 9c 00 70    	mov    0x70009cc4,%ebx
    4d6c:	89 c8                	mov    %ecx,%eax
    4d6e:	83 e0 df             	and    $0xffffffdf,%eax
    4d71:	89 da                	mov    %ebx,%edx
    4d73:	80 e6 ff             	and    $0xff,%dh
    4d76:	a3 c0 9c 00 70       	mov    %eax,0x70009cc0
    4d7b:	89 15 c4 9c 00 70    	mov    %edx,0x70009cc4
    4d81:	a1 b8 9c 00 70       	mov    0x70009cb8,%eax
    4d86:	8b 15 bc 9c 00 70    	mov    0x70009cbc,%edx
    4d8c:	89 c1                	mov    %eax,%ecx
    4d8e:	81 e1 00 00 00 80    	and    $0x80000000,%ecx
    4d94:	89 d3                	mov    %edx,%ebx
    4d96:	83 e3 00             	and    $0x0,%ebx
    4d99:	89 d8                	mov    %ebx,%eax
    4d9b:	09 c8                	or     %ecx,%eax
    4d9d:	85 c0                	test   %eax,%eax
    4d9f:	0f 84 f3 00 00 00    	je     4e98 <handle_intercept_cr4access+0x295>
    4da5:	8b 45 08             	mov    0x8(%ebp),%eax
    4da8:	8b 04 85 f0 97 00 70 	mov    0x700097f0(,%eax,4),%eax
    4daf:	8b 00                	mov    (%eax),%eax
    4db1:	ba 00 00 00 00       	mov    $0x0,%edx
    4db6:	a3 b8 9d 00 70       	mov    %eax,0x70009db8
    4dbb:	89 15 bc 9d 00 70    	mov    %edx,0x70009dbc
    4dc1:	8b 35 90 9f 00 70    	mov    0x70009f90,%esi
    4dc7:	8b 3d 94 9f 00 70    	mov    0x70009f94,%edi
    4dcd:	8b 0d b8 9d 00 70    	mov    0x70009db8,%ecx
    4dd3:	8b 1d bc 9d 00 70    	mov    0x70009dbc,%ebx
    4dd9:	89 f0                	mov    %esi,%eax
    4ddb:	09 c8                	or     %ecx,%eax
    4ddd:	89 fa                	mov    %edi,%edx
    4ddf:	09 da                	or     %ebx,%edx
    4de1:	a3 b8 9d 00 70       	mov    %eax,0x70009db8
    4de6:	89 15 bc 9d 00 70    	mov    %edx,0x70009dbc
    4dec:	8b 0d b0 9d 00 70    	mov    0x70009db0,%ecx
    4df2:	8b 1d b4 9d 00 70    	mov    0x70009db4,%ebx
    4df8:	89 c8                	mov    %ecx,%eax
    4dfa:	25 ff 0f 00 00       	and    $0xfff,%eax
    4dff:	89 da                	mov    %ebx,%edx
    4e01:	83 e2 00             	and    $0x0,%edx
    4e04:	0f ac d0 05          	shrd   $0x5,%edx,%eax
    4e08:	c1 ea 05             	shr    $0x5,%edx
    4e0b:	89 45 e8             	mov    %eax,-0x18(%ebp)
    4e0e:	a1 b0 9d 00 70       	mov    0x70009db0,%eax
    4e13:	8b 15 b4 9d 00 70    	mov    0x70009db4,%edx
    4e19:	89 45 ec             	mov    %eax,-0x14(%ebp)
    4e1c:	c7 45 dc 00 00 00 00 	movl   $0x0,-0x24(%ebp)
    4e23:	eb 3d                	jmp    4e62 <handle_intercept_cr4access+0x25f>
    4e25:	8b 45 dc             	mov    -0x24(%ebp),%eax
    4e28:	03 45 e8             	add    -0x18(%ebp),%eax
    4e2b:	c1 e0 03             	shl    $0x3,%eax
    4e2e:	03 45 ec             	add    -0x14(%ebp),%eax
    4e31:	8b 50 04             	mov    0x4(%eax),%edx
    4e34:	8b 00                	mov    (%eax),%eax
    4e36:	89 45 e0             	mov    %eax,-0x20(%ebp)
    4e39:	89 55 e4             	mov    %edx,-0x1c(%ebp)
    4e3c:	8b 45 e0             	mov    -0x20(%ebp),%eax
    4e3f:	83 e0 01             	and    $0x1,%eax
    4e42:	84 c0                	test   %al,%al
    4e44:	74 18                	je     4e5e <handle_intercept_cr4access+0x25b>
    4e46:	8b 4d e0             	mov    -0x20(%ebp),%ecx
    4e49:	8b 5d e4             	mov    -0x1c(%ebp),%ebx
    4e4c:	89 c8                	mov    %ecx,%eax
    4e4e:	25 e6 01 00 00       	and    $0x1e6,%eax
    4e53:	89 da                	mov    %ebx,%edx
    4e55:	83 e2 f0             	and    $0xfffffff0,%edx
    4e58:	09 d0                	or     %edx,%eax
    4e5a:	85 c0                	test   %eax,%eax
    4e5c:	75 0a                	jne    4e68 <handle_intercept_cr4access+0x265>
    4e5e:	83 45 dc 01          	addl   $0x1,-0x24(%ebp)
    4e62:	83 7d dc 03          	cmpl   $0x3,-0x24(%ebp)
    4e66:	7e bd                	jle    4e25 <handle_intercept_cr4access+0x222>
    4e68:	83 7d dc 04          	cmpl   $0x4,-0x24(%ebp)
    4e6c:	74 2a                	je     4e98 <handle_intercept_cr4access+0x295>
    4e6e:	8b 45 e0             	mov    -0x20(%ebp),%eax
    4e71:	8b 55 e4             	mov    -0x1c(%ebp),%edx
    4e74:	89 44 24 0c          	mov    %eax,0xc(%esp)
    4e78:	89 54 24 10          	mov    %edx,0x10(%esp)
    4e7c:	8b 45 dc             	mov    -0x24(%ebp),%eax
    4e7f:	89 44 24 08          	mov    %eax,0x8(%esp)
    4e83:	c7 44 24 04 c0 4a 00 	movl   $0x70004ac0,0x4(%esp)
    4e8a:	70 
    4e8b:	c7 04 24 dc 4b 00 70 	movl   $0x70004bdc,(%esp)
    4e92:	e8 e1 3e 00 00       	call   8d78 <printf>
    4e97:	f4                   	hlt    
    4e98:	83 c4 3c             	add    $0x3c,%esp
    4e9b:	5b                   	pop    %ebx
    4e9c:	5e                   	pop    %esi
    4e9d:	5f                   	pop    %edi
    4e9e:	5d                   	pop    %ebp
    4e9f:	c3                   	ret    

0000000000004ea0 <__FUNCTION__.2037>:
    4ea0:	76 6d                	jbe    4f0f <__FUNCTION__.2037+0x6f>
    4ea2:	78 5f                	js     4f03 <__FUNCTION__.2037+0x63>
    4ea4:	69 6e 6a 65 63 74 5f 	imul   $0x5f746365,0x6a(%esi),%ebp
    4eab:	65                   	gs
    4eac:	76 65                	jbe    4f13 <__FUNCTION__.2037+0x73>
    4eae:	6e                   	outsb  %ds:(%esi),(%dx)
    4eaf:	74 00                	je     4eb1 <__FUNCTION__.2037+0x11>
    4eb1:	8d 76 00             	lea    0x0(%esi),%esi
    4eb4:	0a 25 73 3a 20 55    	or     0x55203a73,%ah
    4eba:	6e                   	outsb  %ds:(%esi),(%dx)
    4ebb:	68 61 6e 64 6c       	push   $0x6c646e61
    4ec0:	65 64 20 76 65       	and    %dh,%fs:%gs:0x65(%esi)
    4ec5:	63 74 6f 72          	arpl   %si,0x72(%edi,%ebp,2)
    4ec9:	69 6e 67 20 74 79 70 	imul   $0x70797420,0x67(%esi),%ebp
    4ed0:	65                   	gs
    4ed1:	3d 25 75 2c 20       	cmp    $0x202c7525,%eax
    4ed6:	76 65                	jbe    4f3d <__FUNCTION__.2037+0x9d>
    4ed8:	63 74 6f 72          	arpl   %si,0x72(%edi,%ebp,2)
    4edc:	3d 25 75 00 0a       	cmp    $0xa007525,%eax
    4ee1:	49                   	dec    %ecx
    4ee2:	6e                   	outsb  %ds:(%esi),(%dx)
    4ee3:	6a 65                	push   $0x65
    4ee5:	63 74 20 4f          	arpl   %si,0x4f(%eax)
    4ee9:	4b                   	dec    %ebx
    4eea:	00 90 0a 48 41 48    	add    %dl,0x4841480a(%eax)
    4ef0:	41                   	inc    %ecx
    4ef1:	20 6d 6f             	and    %ch,0x6f(%ebp)
    4ef4:	72 6f                	jb     4f65 <vmx_inject_event+0x1e>
    4ef6:	6e                   	outsb  %ds:(%esi),(%dx)
    4ef7:	2c 20                	sub    $0x20,%al
    4ef9:	79 6f                	jns    4f6a <vmx_inject_event+0x23>
    4efb:	75 20                	jne    4f1d <__FUNCTION__.2037+0x7d>
    4efd:	77 65                	ja     4f64 <vmx_inject_event+0x1d>
    4eff:	72 65                	jb     4f66 <vmx_inject_event+0x1f>
    4f01:	6e                   	outsb  %ds:(%esi),(%dx)
    4f02:	74 20                	je     4f24 <__FUNCTION__.2037+0x84>
    4f04:	73 75                	jae    4f7b <vmx_inject_event+0x34>
    4f06:	70 70                	jo     4f78 <vmx_inject_event+0x31>
    4f08:	6f                   	outsl  %ds:(%esi),(%dx)
    4f09:	73 65                	jae    4f70 <vmx_inject_event+0x29>
    4f0b:	64 20 74 6f 20       	and    %dh,%fs:0x20(%edi,%ebp,2)
    4f10:	69 6e 6a 65 63 74 20 	imul   $0x20746365,0x6a(%esi),%ebp
    4f17:	6e                   	outsb  %ds:(%esi),(%dx)
    4f18:	6f                   	outsl  %ds:(%esi),(%dx)
    4f19:	77 21                	ja     4f3c <__FUNCTION__.2037+0x9c>
    4f1b:	21 21                	and    %esp,(%ecx)
    4f1d:	21 00                	and    %eax,(%eax)
    4f1f:	90                   	nop    
    4f20:	0a 25 73 3a 20 74    	or     0x74203a73,%ah
    4f26:	79 70                	jns    4f98 <vmx_inject_event+0x51>
    4f28:	65                   	gs
    4f29:	3d 25 75 2c 20       	cmp    $0x202c7525,%eax
    4f2e:	76 65                	jbe    4f95 <vmx_inject_event+0x4e>
    4f30:	63 74 6f 72          	arpl   %si,0x72(%edi,%ebp,2)
    4f34:	3d 25 75 2c 20       	cmp    $0x202c7525,%eax
    4f39:	65                   	gs
    4f3a:	3d 30 78 25 30       	cmp    $0x30257830,%eax
    4f3f:	38 78 20             	cmp    %bh,0x20(%eax)
    4f42:	28 25 75 29 00 55    	sub    %ah,0x55002975

0000000000004f47 <vmx_inject_event>:
    4f47:	55                   	push   %ebp
    4f48:	89 e5                	mov    %esp,%ebp
    4f4a:	53                   	push   %ebx
    4f4b:	83 ec 34             	sub    $0x34,%esp
    4f4e:	8b 45 08             	mov    0x8(%ebp),%eax
    4f51:	85 c0                	test   %eax,%eax
    4f53:	0f 89 72 01 00 00    	jns    50cb <vmx_inject_event+0x184>
    4f59:	8b 45 08             	mov    0x8(%ebp),%eax
    4f5c:	25 ff 00 00 00       	and    $0xff,%eax
    4f61:	89 45 f0             	mov    %eax,-0x10(%ebp)
    4f64:	8b 45 08             	mov    0x8(%ebp),%eax
    4f67:	25 00 07 00 00       	and    $0x700,%eax
    4f6c:	89 45 f4             	mov    %eax,-0xc(%ebp)
    4f6f:	83 7d f4 00          	cmpl   $0x0,-0xc(%ebp)
    4f73:	74 3e                	je     4fb3 <vmx_inject_event+0x6c>
    4f75:	81 7d f4 00 03 00 00 	cmpl   $0x300,-0xc(%ebp)
    4f7c:	74 35                	je     4fb3 <vmx_inject_event+0x6c>
    4f7e:	81 7d f4 00 04 00 00 	cmpl   $0x400,-0xc(%ebp)
    4f85:	74 2c                	je     4fb3 <vmx_inject_event+0x6c>
    4f87:	81 7d f4 00 06 00 00 	cmpl   $0x600,-0xc(%ebp)
    4f8e:	74 23                	je     4fb3 <vmx_inject_event+0x6c>
    4f90:	8b 45 f0             	mov    -0x10(%ebp),%eax
    4f93:	89 44 24 0c          	mov    %eax,0xc(%esp)
    4f97:	8b 45 f4             	mov    -0xc(%ebp),%eax
    4f9a:	89 44 24 08          	mov    %eax,0x8(%esp)
    4f9e:	c7 44 24 04 a0 4e 00 	movl   $0x70004ea0,0x4(%esp)
    4fa5:	70 
    4fa6:	c7 04 24 b4 4e 00 70 	movl   $0x70004eb4,(%esp)
    4fad:	e8 c6 3d 00 00       	call   8d78 <printf>
    4fb2:	f4                   	hlt    
    4fb3:	83 7d f4 00          	cmpl   $0x0,-0xc(%ebp)
    4fb7:	74 09                	je     4fc2 <vmx_inject_event+0x7b>
    4fb9:	81 7d f4 00 04 00 00 	cmpl   $0x400,-0xc(%ebp)
    4fc0:	75 6c                	jne    502e <vmx_inject_event+0xe7>
    4fc2:	a1 28 9e 00 70       	mov    0x70009e28,%eax
    4fc7:	8b 15 2c 9e 00 70    	mov    0x70009e2c,%edx
    4fcd:	89 c1                	mov    %eax,%ecx
    4fcf:	81 e1 00 02 00 00    	and    $0x200,%ecx
    4fd5:	89 d3                	mov    %edx,%ebx
    4fd7:	83 e3 00             	and    $0x0,%ebx
    4fda:	89 d8                	mov    %ebx,%eax
    4fdc:	09 c8                	or     %ecx,%eax
    4fde:	85 c0                	test   %eax,%eax
    4fe0:	74 15                	je     4ff7 <vmx_inject_event+0xb0>
    4fe2:	a1 90 9e 00 70       	mov    0x70009e90,%eax
    4fe7:	83 e0 03             	and    $0x3,%eax
    4fea:	85 c0                	test   %eax,%eax
    4fec:	75 09                	jne    4ff7 <vmx_inject_event+0xb0>
    4fee:	c7 45 e8 01 00 00 00 	movl   $0x1,-0x18(%ebp)
    4ff5:	eb 07                	jmp    4ffe <vmx_inject_event+0xb7>
    4ff7:	c7 45 e8 00 00 00 00 	movl   $0x0,-0x18(%ebp)
    4ffe:	8b 45 e8             	mov    -0x18(%ebp),%eax
    5001:	89 45 f8             	mov    %eax,-0x8(%ebp)
    5004:	83 7d f8 00          	cmpl   $0x0,-0x8(%ebp)
    5008:	74 17                	je     5021 <vmx_inject_event+0xda>
    500a:	a1 94 9c 00 70       	mov    0x70009c94,%eax
    500f:	85 c0                	test   %eax,%eax
    5011:	78 0e                	js     5021 <vmx_inject_event+0xda>
    5013:	c7 04 24 e0 4e 00 70 	movl   $0x70004ee0,(%esp)
    501a:	e8 59 3d 00 00       	call   8d78 <printf>
    501f:	eb 0d                	jmp    502e <vmx_inject_event+0xe7>
    5021:	c7 04 24 ec 4e 00 70 	movl   $0x70004eec,(%esp)
    5028:	e8 4b 3d 00 00       	call   8d78 <printf>
    502d:	f4                   	hlt    
    502e:	8b 55 f4             	mov    -0xc(%ebp),%edx
    5031:	8b 45 f0             	mov    -0x10(%ebp),%eax
    5034:	09 d0                	or     %edx,%eax
    5036:	0d 00 00 00 80       	or     $0x80000000,%eax
    503b:	a3 94 9c 00 70       	mov    %eax,0x70009c94
    5040:	8b 45 08             	mov    0x8(%ebp),%eax
    5043:	25 00 08 00 00       	and    $0x800,%eax
    5048:	85 c0                	test   %eax,%eax
    504a:	74 17                	je     5063 <vmx_inject_event+0x11c>
    504c:	8b 45 0c             	mov    0xc(%ebp),%eax
    504f:	a3 98 9c 00 70       	mov    %eax,0x70009c98
    5054:	a1 94 9c 00 70       	mov    0x70009c94,%eax
    5059:	80 cc 08             	or     $0x8,%ah
    505c:	a3 94 9c 00 70       	mov    %eax,0x70009c94
    5061:	eb 0a                	jmp    506d <vmx_inject_event+0x126>
    5063:	c7 05 98 9c 00 70 00 	movl   $0x0,0x70009c98
    506a:	00 00 00 
    506d:	81 7d f4 00 04 00 00 	cmpl   $0x400,-0xc(%ebp)
    5074:	74 09                	je     507f <vmx_inject_event+0x138>
    5076:	81 7d f4 00 06 00 00 	cmpl   $0x600,-0xc(%ebp)
    507d:	75 0a                	jne    5089 <vmx_inject_event+0x142>
    507f:	a1 dc 9e 00 70       	mov    0x70009edc,%eax
    5084:	a3 9c 9c 00 70       	mov    %eax,0x70009c9c
    5089:	a1 94 9c 00 70       	mov    0x70009c94,%eax
    508e:	89 c2                	mov    %eax,%edx
    5090:	81 e2 00 08 00 00    	and    $0x800,%edx
    5096:	8b 0d 98 9c 00 70    	mov    0x70009c98,%ecx
    509c:	8b 45 f4             	mov    -0xc(%ebp),%eax
    509f:	89 c3                	mov    %eax,%ebx
    50a1:	c1 eb 08             	shr    $0x8,%ebx
    50a4:	89 54 24 14          	mov    %edx,0x14(%esp)
    50a8:	89 4c 24 10          	mov    %ecx,0x10(%esp)
    50ac:	8b 45 f0             	mov    -0x10(%ebp),%eax
    50af:	89 44 24 0c          	mov    %eax,0xc(%esp)
    50b3:	89 5c 24 08          	mov    %ebx,0x8(%esp)
    50b7:	c7 44 24 04 a0 4e 00 	movl   $0x70004ea0,0x4(%esp)
    50be:	70 
    50bf:	c7 04 24 20 4f 00 70 	movl   $0x70004f20,(%esp)
    50c6:	e8 ad 3c 00 00       	call   8d78 <printf>
    50cb:	83 c4 34             	add    $0x34,%esp
    50ce:	5b                   	pop    %ebx
    50cf:	5d                   	pop    %ebp
    50d0:	c3                   	ret    
    50d1:	8d 76 00             	lea    0x0(%esi),%esi
    50d4:	0a 56 4d             	or     0x4d(%esi),%dl
    50d7:	2d 45 4e 54 52       	sub    $0x52544e45,%eax
    50dc:	59                   	pop    %ecx
    50dd:	20 65 72             	and    %ah,0x72(%ebp)
    50e0:	72 6f                	jb     5151 <vmx_inject_event+0x20a>
    50e2:	72 3a                	jb     511e <vmx_inject_event+0x1d7>
    50e4:	20 72 65             	and    %dh,0x65(%edx)
    50e7:	61                   	popa   
    50e8:	73 6f                	jae    5159 <vmx_inject_event+0x212>
    50ea:	6e                   	outsb  %ds:(%esi),(%dx)
    50eb:	3d 30 78 25 30       	cmp    $0x30257830,%eax
    50f0:	38 78 2c             	cmp    %bh,0x2c(%eax)
    50f3:	20 71 75             	and    %dh,0x75(%ecx)
    50f6:	61                   	popa   
    50f7:	6c                   	insb   (%dx),%es:(%edi)
    50f8:	69 66 69 63 61 74 69 	imul   $0x69746163,0x69(%esi),%esp
    50ff:	6f                   	outsl  %ds:(%esi),(%dx)
    5100:	6e                   	outsb  %ds:(%esi),(%dx)
    5101:	3d 30 78 25 30       	cmp    $0x30257830,%eax
    5106:	31 36                	xor    %esi,(%esi)
    5108:	6c                   	insb   (%dx),%es:(%edi)
    5109:	6c                   	insb   (%dx),%es:(%edi)
    510a:	78 00                	js     510c <vmx_inject_event+0x1c5>
    510c:	0a 75 6e             	or     0x6e(%ebp),%dh
    510f:	68 61 6e 64 6c       	push   $0x6c646e61
    5114:	65 64 20 63 72       	and    %ah,%fs:%gs:0x72(%ebx)
    5119:	78 2c                	js     5147 <vmx_inject_event+0x200>
    511b:	20 68 61             	and    %ch,0x61(%eax)
    511e:	6c                   	insb   (%dx),%es:(%edi)
    511f:	74 69                	je     518a <vmx_inject_event+0x243>
    5121:	6e                   	outsb  %ds:(%esi),(%dx)
    5122:	67 21 00             	addr16 and %eax,(%bx,%si)
    5125:	0a 56 4d             	or     0x4d(%esi),%dl
    5128:	45                   	inc    %ebp
    5129:	58                   	pop    %eax
    512a:	49                   	dec    %ecx
    512b:	54                   	push   %esp
    512c:	2d 45 58 43 45       	sub    $0x45435845,%eax
    5131:	50                   	push   %eax
    5132:	54                   	push   %esp
    5133:	49                   	dec    %ecx
    5134:	4f                   	dec    %edi
    5135:	4e                   	dec    %esi
    5136:	3a 00                	cmp    (%eax),%al
    5138:	0a 63 6f             	or     0x6f(%ebx),%ah
    513b:	6e                   	outsb  %ds:(%esi),(%dx)
    513c:	74 72                	je     51b0 <vmx_inject_event+0x269>
    513e:	6f                   	outsl  %ds:(%esi),(%dx)
    513f:	6c                   	insb   (%dx),%es:(%edi)
    5140:	5f                   	pop    %edi
    5141:	65                   	gs
    5142:	78 63                	js     51a7 <vmx_inject_event+0x260>
    5144:	65                   	gs
    5145:	70 74                	jo     51bb <vmx_inject_event+0x274>
    5147:	69 6f 6e 5f 62 69 74 	imul   $0x7469625f,0x6e(%edi),%ebp
    514e:	6d                   	insl   (%dx),%es:(%edi)
    514f:	61                   	popa   
    5150:	70 3d                	jo     518f <vmx_inject_event+0x248>
    5152:	30 78 25             	xor    %bh,0x25(%eax)
    5155:	30 38                	xor    %bh,(%eax)
    5157:	6c                   	insb   (%dx),%es:(%edi)
    5158:	78 00                	js     515a <vmx_inject_event+0x213>
    515a:	66 90                	xchg   %ax,%ax
    515c:	0a 69 6e             	or     0x6e(%ecx),%ch
    515f:	74 65                	je     51c6 <vmx_inject_event+0x27f>
    5161:	72 72                	jb     51d5 <vmx_inject_event+0x28e>
    5163:	75 70                	jne    51d5 <vmx_inject_event+0x28e>
    5165:	74 69                	je     51d0 <vmx_inject_event+0x289>
    5167:	6f                   	outsl  %ds:(%esi),(%dx)
    5168:	6e                   	outsb  %ds:(%esi),(%dx)
    5169:	20 69 6e             	and    %ch,0x6e(%ecx)
    516c:	66 6f                	outsw  %ds:(%esi),(%dx)
    516e:	72 6d                	jb     51dd <vmx_inject_event+0x296>
    5170:	61                   	popa   
    5171:	74 69                	je     51dc <vmx_inject_event+0x295>
    5173:	6f                   	outsl  %ds:(%esi),(%dx)
    5174:	6e                   	outsb  %ds:(%esi),(%dx)
    5175:	3d 30 78 25 30       	cmp    $0x30257830,%eax
    517a:	38 6c 78 00          	cmp    %ch,0x0(%eax,%edi,2)
    517e:	0a 65 72             	or     0x72(%ebp),%ah
    5181:	72 6f                	jb     51f2 <vmx_inject_event+0x2ab>
    5183:	72 63                	jb     51e8 <vmx_inject_event+0x2a1>
    5185:	6f                   	outsl  %ds:(%esi),(%dx)
    5186:	64                   	fs
    5187:	65                   	gs
    5188:	3d 30 78 25 30       	cmp    $0x30257830,%eax
    518d:	38 6c 78 00          	cmp    %ch,0x0(%eax,%edi,2)
    5191:	8d 76 00             	lea    0x0(%esi),%esi
    5194:	0a 75 6e             	or     0x6e(%ebp),%dh
    5197:	68 61 6e 64 6c       	push   $0x6c646e61
    519c:	65 64 20 69 6e       	and    %ch,%fs:%gs:0x6e(%ecx)
    51a1:	74 65                	je     5208 <vmx_inject_event+0x2c1>
    51a3:	72 63                	jb     5208 <vmx_inject_event+0x2c1>
    51a5:	65                   	gs
    51a6:	70 74                	jo     521c <vmx_inject_event+0x2d5>
    51a8:	2c 20                	sub    $0x20,%al
    51aa:	68 61 6c 74 69       	push   $0x69746c61
    51af:	6e                   	outsb  %ds:(%esi),(%dx)
    51b0:	67 21 00             	addr16 and %eax,(%bx,%si)
    51b3:	90                   	nop    
    51b4:	0a 45 78             	or     0x78(%ebp),%al
    51b7:	69 74 20 52 65 61 73 	imul   $0x6f736165,0x52(%eax),%esi
    51be:	6f 
    51bf:	6e                   	outsb  %ds:(%esi),(%dx)
    51c0:	3a 30                	cmp    (%eax),%dh
    51c2:	78 25                	js     51e9 <vmx_inject_event+0x2a2>
    51c4:	30 38                	xor    %bh,(%eax)
    51c6:	78 2c                	js     51f4 <vmx_inject_event+0x2ad>
    51c8:	20 45 78             	and    %al,0x78(%ebp)
    51cb:	69 74 20 51 75 61 6c 	imul   $0x696c6175,0x51(%eax),%esi
    51d2:	69 
    51d3:	66 69 63 61 74 69    	imul   $0x6974,0x61(%ebx),%sp
    51d9:	6f                   	outsl  %ds:(%esi),(%dx)
    51da:	6e                   	outsb  %ds:(%esi),(%dx)
    51db:	3a 30                	cmp    (%eax),%dh
    51dd:	78 25                	js     5204 <vmx_inject_event+0x2bd>
    51df:	30 31                	xor    %dh,(%ecx)
    51e1:	36                   	ss
    51e2:	6c                   	insb   (%dx),%es:(%edi)
    51e3:	6c                   	insb   (%dx),%es:(%edi)
    51e4:	78 00                	js     51e6 <vmx_inject_event+0x29f>
    51e6:	0a 47 75             	or     0x75(%edi),%al
    51e9:	65                   	gs
    51ea:	73 74                	jae    5260 <vmx_inject_event+0x319>
    51ec:	20 43 53             	and    %al,0x53(%ebx)
    51ef:	3a 45 49             	cmp    0x49(%ebp),%al
    51f2:	50                   	push   %eax
    51f3:	3d 30 78 25 30       	cmp    $0x30257830,%eax
    51f8:	34 78                	xor    $0x78,%al
    51fa:	3a 30                	cmp    (%eax),%dh
    51fc:	78 25                	js     5223 <vmx_inject_event+0x2dc>
    51fe:	30 38                	xor    %bh,(%eax)
    5200:	6c                   	insb   (%dx),%es:(%edi)
    5201:	78 00                	js     5203 <vmx_inject_event+0x2bc>
    5203:	90                   	nop    
    5204:	0a 57 41             	or     0x41(%edi),%dl
    5207:	52                   	push   %edx
    5208:	4e                   	dec    %esi
    5209:	49                   	dec    %ecx
    520a:	4e                   	dec    %esi
    520b:	47                   	inc    %edi
    520c:	21 3a                	and    %edi,(%edx)
    520e:	20 69 6e             	and    %ch,0x6e(%ecx)
    5211:	74 65                	je     5278 <vt_intercepthandler+0xb>
    5213:	72 72                	jb     5287 <vt_intercepthandler+0x1a>
    5215:	75 70                	jne    5287 <vt_intercepthandler+0x1a>
    5217:	74 69                	je     5282 <vt_intercepthandler+0x15>
    5219:	62 69 6c             	bound  %ebp,0x6c(%ecx)
    521c:	69 74 79 3d 25 30 38 	imul   $0x6c383025,0x3d(%ecx,%edi,2),%esi
    5223:	6c 
    5224:	78 00                	js     5226 <vmx_inject_event+0x2df>
    5226:	66 90                	xchg   %ax,%ax
    5228:	0a 48 41             	or     0x41(%eax),%cl
    522b:	4c                   	dec    %esp
    522c:	54                   	push   %esp
    522d:	3a 20                	cmp    (%eax),%ah
    522f:	4e                   	dec    %esi
    5230:	65                   	gs
    5231:	73 74                	jae    52a7 <vt_intercepthandler+0x3a>
    5233:	65 64 20 65 76       	and    %ah,%fs:%gs:0x76(%ebp)
    5238:	65 6e                	outsb  %gs:(%esi),(%dx)
    523a:	74 73                	je     52af <vt_intercepthandler+0x42>
    523c:	20 75 6e             	and    %dh,0x6e(%ebp)
    523f:	68 61 6e 64 6c       	push   $0x6c646e61
    5244:	65 64 20 77 68       	and    %dh,%fs:%gs:0x68(%edi)
    5249:	65 6e                	outsb  %gs:(%esi),(%dx)
    524b:	20 68 61             	and    %ch,0x61(%eax)
    524e:	72 64                	jb     52b4 <vt_intercepthandler+0x47>
    5250:	77 61                	ja     52b3 <vt_intercepthandler+0x46>
    5252:	72 65                	jb     52b9 <vt_intercepthandler+0x4c>
    5254:	20 70 61             	and    %dh,0x61(%eax)
    5257:	67 69 6e 67 20 69 6e 	addr16 imul $0x206e6920,0x67(%bp),%ebp
    525e:	20 
    525f:	65                   	gs
    5260:	66                   	data16
    5261:	66                   	data16
    5262:	65 63 74 3a 30       	arpl   %si,%gs:0x30(%edx,%edi,1)
    5267:	78 25                	js     528e <vt_intercepthandler+0x21>
    5269:	30 38                	xor    %bh,(%eax)
    526b:	58                   	pop    %eax
	...

000000000000526d <vt_intercepthandler>:
    526d:	55                   	push   %ebp
    526e:	89 e5                	mov    %esp,%ebp
    5270:	53                   	push   %ebx
    5271:	83 ec 34             	sub    $0x34,%esp
    5274:	a1 c8 9e 00 70       	mov    0x70009ec8,%eax
    5279:	85 c0                	test   %eax,%eax
    527b:	0f 89 c2 03 00 00    	jns    5643 <vt_intercepthandler+0x3d6>
    5281:	a1 e8 9e 00 70       	mov    0x70009ee8,%eax
    5286:	8b 15 ec 9e 00 70    	mov    0x70009eec,%edx
    528c:	8b 0d c8 9e 00 70    	mov    0x70009ec8,%ecx
    5292:	89 44 24 08          	mov    %eax,0x8(%esp)
    5296:	89 54 24 0c          	mov    %edx,0xc(%esp)
    529a:	89 4c 24 04          	mov    %ecx,0x4(%esp)
    529e:	c7 04 24 d4 50 00 70 	movl   $0x700050d4,(%esp)
    52a5:	e8 ce 3a 00 00       	call   8d78 <printf>
    52aa:	c7 04 24 6f 38 00 70 	movl   $0x7000386f,(%esp)
    52b1:	e8 c2 3a 00 00       	call   8d78 <printf>
    52b6:	0f b7 05 a2 9e 00 70 	movzwl 0x70009ea2,%eax
    52bd:	0f b7 c0             	movzwl %ax,%eax
    52c0:	89 44 24 04          	mov    %eax,0x4(%esp)
    52c4:	c7 04 24 85 38 00 70 	movl   $0x70003885,(%esp)
    52cb:	e8 a8 3a 00 00       	call   8d78 <printf>
    52d0:	0f b7 05 a6 9e 00 70 	movzwl 0x70009ea6,%eax
    52d7:	0f b7 c0             	movzwl %ax,%eax
    52da:	89 44 24 04          	mov    %eax,0x4(%esp)
    52de:	c7 04 24 9f 38 00 70 	movl   $0x7000389f,(%esp)
    52e5:	e8 8e 3a 00 00       	call   8d78 <printf>
    52ea:	0f b7 05 a0 9e 00 70 	movzwl 0x70009ea0,%eax
    52f1:	0f b7 c0             	movzwl %ax,%eax
    52f4:	89 44 24 04          	mov    %eax,0x4(%esp)
    52f8:	c7 04 24 b9 38 00 70 	movl   $0x700038b9,(%esp)
    52ff:	e8 74 3a 00 00       	call   8d78 <printf>
    5304:	0f b7 05 a8 9e 00 70 	movzwl 0x70009ea8,%eax
    530b:	0f b7 c0             	movzwl %ax,%eax
    530e:	89 44 24 04          	mov    %eax,0x4(%esp)
    5312:	c7 04 24 d3 38 00 70 	movl   $0x700038d3,(%esp)
    5319:	e8 5a 3a 00 00       	call   8d78 <printf>
    531e:	0f b7 05 aa 9e 00 70 	movzwl 0x70009eaa,%eax
    5325:	0f b7 c0             	movzwl %ax,%eax
    5328:	89 44 24 04          	mov    %eax,0x4(%esp)
    532c:	c7 04 24 ed 38 00 70 	movl   $0x700038ed,(%esp)
    5333:	e8 40 3a 00 00       	call   8d78 <printf>
    5338:	0f b7 05 a4 9e 00 70 	movzwl 0x70009ea4,%eax
    533f:	0f b7 c0             	movzwl %ax,%eax
    5342:	89 44 24 04          	mov    %eax,0x4(%esp)
    5346:	c7 04 24 07 39 00 70 	movl   $0x70003907,(%esp)
    534d:	e8 26 3a 00 00       	call   8d78 <printf>
    5352:	0f b7 05 ae 9e 00 70 	movzwl 0x70009eae,%eax
    5359:	0f b7 c0             	movzwl %ax,%eax
    535c:	89 44 24 04          	mov    %eax,0x4(%esp)
    5360:	c7 04 24 21 39 00 70 	movl   $0x70003921,(%esp)
    5367:	e8 0c 3a 00 00       	call   8d78 <printf>
    536c:	0f b7 05 ac 9e 00 70 	movzwl 0x70009eac,%eax
    5373:	0f b7 c0             	movzwl %ax,%eax
    5376:	89 44 24 04          	mov    %eax,0x4(%esp)
    537a:	c7 04 24 3b 39 00 70 	movl   $0x7000393b,(%esp)
    5381:	e8 f2 39 00 00       	call   8d78 <printf>
    5386:	a1 74 9e 00 70       	mov    0x70009e74,%eax
    538b:	89 44 24 04          	mov    %eax,0x4(%esp)
    538f:	c7 04 24 58 39 00 70 	movl   $0x70003958,(%esp)
    5396:	e8 dd 39 00 00       	call   8d78 <printf>
    539b:	a1 7c 9e 00 70       	mov    0x70009e7c,%eax
    53a0:	89 44 24 04          	mov    %eax,0x4(%esp)
    53a4:	c7 04 24 78 39 00 70 	movl   $0x70003978,(%esp)
    53ab:	e8 c8 39 00 00       	call   8d78 <printf>
    53b0:	a1 70 9e 00 70       	mov    0x70009e70,%eax
    53b5:	89 44 24 04          	mov    %eax,0x4(%esp)
    53b9:	c7 04 24 98 39 00 70 	movl   $0x70003998,(%esp)
    53c0:	e8 b3 39 00 00       	call   8d78 <printf>
    53c5:	a1 80 9e 00 70       	mov    0x70009e80,%eax
    53ca:	89 44 24 04          	mov    %eax,0x4(%esp)
    53ce:	c7 04 24 b8 39 00 70 	movl   $0x700039b8,(%esp)
    53d5:	e8 9e 39 00 00       	call   8d78 <printf>
    53da:	a1 84 9e 00 70       	mov    0x70009e84,%eax
    53df:	89 44 24 04          	mov    %eax,0x4(%esp)
    53e3:	c7 04 24 d8 39 00 70 	movl   $0x700039d8,(%esp)
    53ea:	e8 89 39 00 00       	call   8d78 <printf>
    53ef:	a1 78 9e 00 70       	mov    0x70009e78,%eax
    53f4:	89 44 24 04          	mov    %eax,0x4(%esp)
    53f8:	c7 04 24 f8 39 00 70 	movl   $0x700039f8,(%esp)
    53ff:	e8 74 39 00 00       	call   8d78 <printf>
    5404:	a1 8c 9e 00 70       	mov    0x70009e8c,%eax
    5409:	89 44 24 04          	mov    %eax,0x4(%esp)
    540d:	c7 04 24 18 3a 00 70 	movl   $0x70003a18,(%esp)
    5414:	e8 5f 39 00 00       	call   8d78 <printf>
    5419:	a1 88 9e 00 70       	mov    0x70009e88,%eax
    541e:	89 44 24 04          	mov    %eax,0x4(%esp)
    5422:	c7 04 24 38 3a 00 70 	movl   $0x70003a38,(%esp)
    5429:	e8 4a 39 00 00       	call   8d78 <printf>
    542e:	a1 4c 9e 00 70       	mov    0x70009e4c,%eax
    5433:	0f b7 c8             	movzwl %ax,%ecx
    5436:	a1 c8 9d 00 70       	mov    0x70009dc8,%eax
    543b:	8b 15 cc 9d 00 70    	mov    0x70009dcc,%edx
    5441:	89 4c 24 08          	mov    %ecx,0x8(%esp)
    5445:	89 44 24 04          	mov    %eax,0x4(%esp)
    5449:	c7 04 24 5c 3a 00 70 	movl   $0x70003a5c,(%esp)
    5450:	e8 23 39 00 00       	call   8d78 <printf>
    5455:	a1 54 9e 00 70       	mov    0x70009e54,%eax
    545a:	0f b7 c8             	movzwl %ax,%ecx
    545d:	a1 d8 9d 00 70       	mov    0x70009dd8,%eax
    5462:	8b 15 dc 9d 00 70    	mov    0x70009ddc,%edx
    5468:	89 4c 24 08          	mov    %ecx,0x8(%esp)
    546c:	89 44 24 04          	mov    %eax,0x4(%esp)
    5470:	c7 04 24 80 3a 00 70 	movl   $0x70003a80,(%esp)
    5477:	e8 fc 38 00 00       	call   8d78 <printf>
    547c:	a1 48 9e 00 70       	mov    0x70009e48,%eax
    5481:	0f b7 c8             	movzwl %ax,%ecx
    5484:	a1 c0 9d 00 70       	mov    0x70009dc0,%eax
    5489:	8b 15 c4 9d 00 70    	mov    0x70009dc4,%edx
    548f:	89 4c 24 08          	mov    %ecx,0x8(%esp)
    5493:	89 44 24 04          	mov    %eax,0x4(%esp)
    5497:	c7 04 24 a4 3a 00 70 	movl   $0x70003aa4,(%esp)
    549e:	e8 d5 38 00 00       	call   8d78 <printf>
    54a3:	a1 58 9e 00 70       	mov    0x70009e58,%eax
    54a8:	0f b7 c8             	movzwl %ax,%ecx
    54ab:	a1 e0 9d 00 70       	mov    0x70009de0,%eax
    54b0:	8b 15 e4 9d 00 70    	mov    0x70009de4,%edx
    54b6:	89 4c 24 08          	mov    %ecx,0x8(%esp)
    54ba:	89 44 24 04          	mov    %eax,0x4(%esp)
    54be:	c7 04 24 c8 3a 00 70 	movl   $0x70003ac8,(%esp)
    54c5:	e8 ae 38 00 00       	call   8d78 <printf>
    54ca:	a1 5c 9e 00 70       	mov    0x70009e5c,%eax
    54cf:	0f b7 c8             	movzwl %ax,%ecx
    54d2:	a1 e8 9d 00 70       	mov    0x70009de8,%eax
    54d7:	8b 15 ec 9d 00 70    	mov    0x70009dec,%edx
    54dd:	89 4c 24 08          	mov    %ecx,0x8(%esp)
    54e1:	89 44 24 04          	mov    %eax,0x4(%esp)
    54e5:	c7 04 24 ec 3a 00 70 	movl   $0x70003aec,(%esp)
    54ec:	e8 87 38 00 00       	call   8d78 <printf>
    54f1:	a1 50 9e 00 70       	mov    0x70009e50,%eax
    54f6:	0f b7 c8             	movzwl %ax,%ecx
    54f9:	a1 d0 9d 00 70       	mov    0x70009dd0,%eax
    54fe:	8b 15 d4 9d 00 70    	mov    0x70009dd4,%edx
    5504:	89 4c 24 08          	mov    %ecx,0x8(%esp)
    5508:	89 44 24 04          	mov    %eax,0x4(%esp)
    550c:	c7 04 24 10 3b 00 70 	movl   $0x70003b10,(%esp)
    5513:	e8 60 38 00 00       	call   8d78 <printf>
    5518:	a1 68 9e 00 70       	mov    0x70009e68,%eax
    551d:	0f b7 c8             	movzwl %ax,%ecx
    5520:	a1 00 9e 00 70       	mov    0x70009e00,%eax
    5525:	8b 15 04 9e 00 70    	mov    0x70009e04,%edx
    552b:	89 4c 24 08          	mov    %ecx,0x8(%esp)
    552f:	89 44 24 04          	mov    %eax,0x4(%esp)
    5533:	c7 04 24 34 3b 00 70 	movl   $0x70003b34,(%esp)
    553a:	e8 39 38 00 00       	call   8d78 <printf>
    553f:	a1 6c 9e 00 70       	mov    0x70009e6c,%eax
    5544:	0f b7 c8             	movzwl %ax,%ecx
    5547:	a1 08 9e 00 70       	mov    0x70009e08,%eax
    554c:	8b 15 0c 9e 00 70    	mov    0x70009e0c,%edx
    5552:	89 4c 24 08          	mov    %ecx,0x8(%esp)
    5556:	89 44 24 04          	mov    %eax,0x4(%esp)
    555a:	c7 04 24 5c 3b 00 70 	movl   $0x70003b5c,(%esp)
    5561:	e8 12 38 00 00       	call   8d78 <printf>
    5566:	a1 64 9e 00 70       	mov    0x70009e64,%eax
    556b:	0f b7 c8             	movzwl %ax,%ecx
    556e:	a1 f8 9d 00 70       	mov    0x70009df8,%eax
    5573:	8b 15 fc 9d 00 70    	mov    0x70009dfc,%edx
    5579:	89 4c 24 08          	mov    %ecx,0x8(%esp)
    557d:	89 44 24 04          	mov    %eax,0x4(%esp)
    5581:	c7 04 24 84 3b 00 70 	movl   $0x70003b84,(%esp)
    5588:	e8 eb 37 00 00       	call   8d78 <printf>
    558d:	a1 60 9e 00 70       	mov    0x70009e60,%eax
    5592:	0f b7 c8             	movzwl %ax,%ecx
    5595:	a1 f0 9d 00 70       	mov    0x70009df0,%eax
    559a:	8b 15 f4 9d 00 70    	mov    0x70009df4,%edx
    55a0:	89 4c 24 08          	mov    %ecx,0x8(%esp)
    55a4:	89 44 24 04          	mov    %eax,0x4(%esp)
    55a8:	c7 04 24 a8 3b 00 70 	movl   $0x70003ba8,(%esp)
    55af:	e8 c4 37 00 00       	call   8d78 <printf>
    55b4:	a1 b0 9d 00 70       	mov    0x70009db0,%eax
    55b9:	8b 15 b4 9d 00 70    	mov    0x70009db4,%edx
    55bf:	89 c1                	mov    %eax,%ecx
    55c1:	a1 b8 9d 00 70       	mov    0x70009db8,%eax
    55c6:	8b 15 bc 9d 00 70    	mov    0x70009dbc,%edx
    55cc:	89 c3                	mov    %eax,%ebx
    55ce:	a1 a8 9d 00 70       	mov    0x70009da8,%eax
    55d3:	8b 15 ac 9d 00 70    	mov    0x70009dac,%edx
    55d9:	89 4c 24 0c          	mov    %ecx,0xc(%esp)
    55dd:	89 5c 24 08          	mov    %ebx,0x8(%esp)
    55e1:	89 44 24 04          	mov    %eax,0x4(%esp)
    55e5:	c7 04 24 d0 3b 00 70 	movl   $0x70003bd0,(%esp)
    55ec:	e8 87 37 00 00       	call   8d78 <printf>
    55f1:	a1 18 9e 00 70       	mov    0x70009e18,%eax
    55f6:	8b 15 1c 9e 00 70    	mov    0x70009e1c,%edx
    55fc:	89 44 24 04          	mov    %eax,0x4(%esp)
    5600:	c7 04 24 09 3c 00 70 	movl   $0x70003c09,(%esp)
    5607:	e8 6c 37 00 00       	call   8d78 <printf>
    560c:	a1 20 9e 00 70       	mov    0x70009e20,%eax
    5611:	8b 15 24 9e 00 70    	mov    0x70009e24,%edx
    5617:	89 44 24 04          	mov    %eax,0x4(%esp)
    561b:	c7 04 24 1c 3c 00 70 	movl   $0x70003c1c,(%esp)
    5622:	e8 51 37 00 00       	call   8d78 <printf>
    5627:	a1 28 9e 00 70       	mov    0x70009e28,%eax
    562c:	8b 15 2c 9e 00 70    	mov    0x70009e2c,%edx
    5632:	89 44 24 04          	mov    %eax,0x4(%esp)
    5636:	c7 04 24 2f 3c 00 70 	movl   $0x70003c2f,(%esp)
    563d:	e8 36 37 00 00       	call   8d78 <printf>
    5642:	f4                   	hlt    
    5643:	a1 c8 9e 00 70       	mov    0x70009ec8,%eax
    5648:	89 45 e8             	mov    %eax,-0x18(%ebp)
    564b:	83 7d e8 20          	cmpl   $0x20,-0x18(%ebp)
    564f:	0f 87 0b 02 00 00    	ja     5860 <vt_intercepthandler+0x5f3>
    5655:	8b 55 e8             	mov    -0x18(%ebp),%edx
    5658:	8b 04 95 64 56 00 70 	mov    0x70005664(,%edx,4),%eax
    565f:	ff e0                	jmp    *%eax
    5661:	8d 76 00             	lea    0x0(%esi),%esi
    5664:	f1                   	icebp  
    5665:	57                   	push   %edi
    5666:	00 70 60             	add    %dh,0x60(%eax)
    5669:	58                   	pop    %eax
    566a:	00 70 60             	add    %dh,0x60(%eax)
    566d:	58                   	pop    %eax
    566e:	00 70 60             	add    %dh,0x60(%eax)
    5671:	58                   	pop    %eax
    5672:	00 70 60             	add    %dh,0x60(%eax)
    5675:	58                   	pop    %eax
    5676:	00 70 60             	add    %dh,0x60(%eax)
    5679:	58                   	pop    %eax
    567a:	00 70 60             	add    %dh,0x60(%eax)
    567d:	58                   	pop    %eax
    567e:	00 70 60             	add    %dh,0x60(%eax)
    5681:	58                   	pop    %eax
    5682:	00 70 60             	add    %dh,0x60(%eax)
    5685:	58                   	pop    %eax
    5686:	00 70 60             	add    %dh,0x60(%eax)
    5689:	58                   	pop    %eax
    568a:	00 70 fc             	add    %dh,-0x4(%eax)
    568d:	56                   	push   %esi
    568e:	00 70 60             	add    %dh,0x60(%eax)
    5691:	58                   	pop    %eax
    5692:	00 70 06             	add    %dh,0x6(%eax)
    5695:	57                   	push   %edi
    5696:	00 70 60             	add    %dh,0x60(%eax)
    5699:	58                   	pop    %eax
    569a:	00 70 60             	add    %dh,0x60(%eax)
    569d:	58                   	pop    %eax
    569e:	00 70 60             	add    %dh,0x60(%eax)
    56a1:	58                   	pop    %eax
    56a2:	00 70 60             	add    %dh,0x60(%eax)
    56a5:	58                   	pop    %eax
    56a6:	00 70 60             	add    %dh,0x60(%eax)
    56a9:	58                   	pop    %eax
    56aa:	00 70 60             	add    %dh,0x60(%eax)
    56ad:	58                   	pop    %eax
    56ae:	00 70 60             	add    %dh,0x60(%eax)
    56b1:	58                   	pop    %eax
    56b2:	00 70 60             	add    %dh,0x60(%eax)
    56b5:	58                   	pop    %eax
    56b6:	00 70 60             	add    %dh,0x60(%eax)
    56b9:	58                   	pop    %eax
    56ba:	00 70 60             	add    %dh,0x60(%eax)
    56bd:	58                   	pop    %eax
    56be:	00 70 60             	add    %dh,0x60(%eax)
    56c1:	58                   	pop    %eax
    56c2:	00 70 60             	add    %dh,0x60(%eax)
    56c5:	58                   	pop    %eax
    56c6:	00 70 60             	add    %dh,0x60(%eax)
    56c9:	58                   	pop    %eax
    56ca:	00 70 60             	add    %dh,0x60(%eax)
    56cd:	58                   	pop    %eax
    56ce:	00 70 60             	add    %dh,0x60(%eax)
    56d1:	58                   	pop    %eax
    56d2:	00 70 10             	add    %dh,0x10(%eax)
    56d5:	57                   	push   %edi
    56d6:	00 70 60             	add    %dh,0x60(%eax)
    56d9:	58                   	pop    %eax
    56da:	00 70 60             	add    %dh,0x60(%eax)
    56dd:	58                   	pop    %eax
    56de:	00 70 e8             	add    %dh,-0x18(%eax)
    56e1:	56                   	push   %esi
    56e2:	00 70 f2             	add    %dh,-0xe(%eax)
    56e5:	56                   	push   %esi
    56e6:	00 70 e8             	add    %dh,-0x18(%eax)
    56e9:	f1                   	icebp  
    56ea:	e9 ff ff e9 cf       	jmp    cfea56ee <__image_base__+0x5fea56ee>
    56ef:	01 00                	add    %eax,(%eax)
    56f1:	00 e8                	add    %ch,%al
    56f3:	44                   	inc    %esp
    56f4:	e9 ff ff e9 c5       	jmp    c5ea56f8 <__image_base__+0x55ea56f8>
    56f9:	01 00                	add    %eax,(%eax)
    56fb:	00 e8                	add    %ch,%al
    56fd:	e9 e8 ff ff e9       	jmp    ea0056ea <__image_base__+0x7a0056ea>
    5702:	bb 01 00 00 e8       	mov    $0xe8000001,%ebx
    5707:	b9 ea ff ff e9       	mov    $0xe9ffffea,%ecx
    570c:	b1 01                	mov    $0x1,%cl
    570e:	00 00                	add    %al,(%eax)
    5710:	a1 e8 9e 00 70       	mov    0x70009ee8,%eax
    5715:	8b 15 ec 9e 00 70    	mov    0x70009eec,%edx
    571b:	83 e0 0f             	and    $0xf,%eax
    571e:	89 45 f8             	mov    %eax,-0x8(%ebp)
    5721:	8b 0d e8 9e 00 70    	mov    0x70009ee8,%ecx
    5727:	8b 1d ec 9e 00 70    	mov    0x70009eec,%ebx
    572d:	89 c8                	mov    %ecx,%eax
    572f:	25 00 0f 00 00       	and    $0xf00,%eax
    5734:	89 da                	mov    %ebx,%edx
    5736:	83 e2 00             	and    $0x0,%edx
    5739:	0f ac d0 08          	shrd   $0x8,%edx,%eax
    573d:	c1 ea 08             	shr    $0x8,%edx
    5740:	89 45 f4             	mov    %eax,-0xc(%ebp)
    5743:	8b 0d e8 9e 00 70    	mov    0x70009ee8,%ecx
    5749:	8b 1d ec 9e 00 70    	mov    0x70009eec,%ebx
    574f:	89 c8                	mov    %ecx,%eax
    5751:	83 e0 30             	and    $0x30,%eax
    5754:	89 da                	mov    %ebx,%edx
    5756:	83 e2 00             	and    $0x0,%edx
    5759:	0f ac d0 04          	shrd   $0x4,%edx,%eax
    575d:	c1 ea 04             	shr    $0x4,%edx
    5760:	89 45 f0             	mov    %eax,-0x10(%ebp)
    5763:	8b 45 f8             	mov    -0x8(%ebp),%eax
    5766:	89 45 e4             	mov    %eax,-0x1c(%ebp)
    5769:	83 7d e4 03          	cmpl   $0x3,-0x1c(%ebp)
    576d:	74 0e                	je     577d <vt_intercepthandler+0x510>
    576f:	83 7d e4 04          	cmpl   $0x4,-0x1c(%ebp)
    5773:	74 1c                	je     5791 <vt_intercepthandler+0x524>
    5775:	83 7d e4 00          	cmpl   $0x0,-0x1c(%ebp)
    5779:	74 2a                	je     57a5 <vt_intercepthandler+0x538>
    577b:	eb 3c                	jmp    57b9 <vt_intercepthandler+0x54c>
    577d:	8b 45 f0             	mov    -0x10(%ebp),%eax
    5780:	89 44 24 04          	mov    %eax,0x4(%esp)
    5784:	8b 45 f4             	mov    -0xc(%ebp),%eax
    5787:	89 04 24             	mov    %eax,(%esp)
    578a:	e8 82 f2 ff ff       	call   4a11 <handle_intercept_cr3access>
    578f:	eb 35                	jmp    57c6 <vt_intercepthandler+0x559>
    5791:	8b 45 f0             	mov    -0x10(%ebp),%eax
    5794:	89 44 24 04          	mov    %eax,0x4(%esp)
    5798:	8b 45 f4             	mov    -0xc(%ebp),%eax
    579b:	89 04 24             	mov    %eax,(%esp)
    579e:	e8 60 f4 ff ff       	call   4c03 <handle_intercept_cr4access>
    57a3:	eb 21                	jmp    57c6 <vt_intercepthandler+0x559>
    57a5:	8b 45 f0             	mov    -0x10(%ebp),%eax
    57a8:	89 44 24 04          	mov    %eax,0x4(%esp)
    57ac:	8b 45 f4             	mov    -0xc(%ebp),%eax
    57af:	89 04 24             	mov    %eax,(%esp)
    57b2:	e8 8f ee ff ff       	call   4646 <handle_intercept_cr0access>
    57b7:	eb 0d                	jmp    57c6 <vt_intercepthandler+0x559>
    57b9:	c7 04 24 0c 51 00 70 	movl   $0x7000510c,(%esp)
    57c0:	e8 b3 35 00 00       	call   8d78 <printf>
    57c5:	f4                   	hlt    
    57c6:	a1 dc 9e 00 70       	mov    0x70009edc,%eax
    57cb:	89 c1                	mov    %eax,%ecx
    57cd:	bb 00 00 00 00       	mov    $0x0,%ebx
    57d2:	a1 20 9e 00 70       	mov    0x70009e20,%eax
    57d7:	8b 15 24 9e 00 70    	mov    0x70009e24,%edx
    57dd:	01 c8                	add    %ecx,%eax
    57df:	11 da                	adc    %ebx,%edx
    57e1:	a3 20 9e 00 70       	mov    %eax,0x70009e20
    57e6:	89 15 24 9e 00 70    	mov    %edx,0x70009e24
    57ec:	e9 d0 00 00 00       	jmp    58c1 <vt_intercepthandler+0x654>
    57f1:	a1 cc 9e 00 70       	mov    0x70009ecc,%eax
    57f6:	25 ff 00 00 00       	and    $0xff,%eax
    57fb:	83 f8 0d             	cmp    $0xd,%eax
    57fe:	75 12                	jne    5812 <vt_intercepthandler+0x5a5>
    5800:	a1 d0 9e 00 70       	mov    0x70009ed0,%eax
    5805:	89 04 24             	mov    %eax,(%esp)
    5808:	e8 77 eb ff ff       	call   4384 <isl_handleintercept_exception_0D>
    580d:	e9 af 00 00 00       	jmp    58c1 <vt_intercepthandler+0x654>
    5812:	c7 04 24 25 51 00 70 	movl   $0x70005125,(%esp)
    5819:	e8 5a 35 00 00       	call   8d78 <printf>
    581e:	a1 70 9c 00 70       	mov    0x70009c70,%eax
    5823:	89 44 24 04          	mov    %eax,0x4(%esp)
    5827:	c7 04 24 38 51 00 70 	movl   $0x70005138,(%esp)
    582e:	e8 45 35 00 00       	call   8d78 <printf>
    5833:	a1 cc 9e 00 70       	mov    0x70009ecc,%eax
    5838:	89 44 24 04          	mov    %eax,0x4(%esp)
    583c:	c7 04 24 5c 51 00 70 	movl   $0x7000515c,(%esp)
    5843:	e8 30 35 00 00       	call   8d78 <printf>
    5848:	a1 d0 9e 00 70       	mov    0x70009ed0,%eax
    584d:	89 44 24 04          	mov    %eax,0x4(%esp)
    5851:	c7 04 24 7e 51 00 70 	movl   $0x7000517e,(%esp)
    5858:	e8 1b 35 00 00       	call   8d78 <printf>
    585d:	f4                   	hlt    
    585e:	eb 61                	jmp    58c1 <vt_intercepthandler+0x654>
    5860:	c7 04 24 94 51 00 70 	movl   $0x70005194,(%esp)
    5867:	e8 0c 35 00 00       	call   8d78 <printf>
    586c:	a1 e8 9e 00 70       	mov    0x70009ee8,%eax
    5871:	8b 15 ec 9e 00 70    	mov    0x70009eec,%edx
    5877:	8b 0d c8 9e 00 70    	mov    0x70009ec8,%ecx
    587d:	89 44 24 08          	mov    %eax,0x8(%esp)
    5881:	89 54 24 0c          	mov    %edx,0xc(%esp)
    5885:	89 4c 24 04          	mov    %ecx,0x4(%esp)
    5889:	c7 04 24 b4 51 00 70 	movl   $0x700051b4,(%esp)
    5890:	e8 e3 34 00 00       	call   8d78 <printf>
    5895:	a1 20 9e 00 70       	mov    0x70009e20,%eax
    589a:	8b 15 24 9e 00 70    	mov    0x70009e24,%edx
    58a0:	89 c2                	mov    %eax,%edx
    58a2:	0f b7 05 a2 9e 00 70 	movzwl 0x70009ea2,%eax
    58a9:	0f b7 c0             	movzwl %ax,%eax
    58ac:	89 54 24 08          	mov    %edx,0x8(%esp)
    58b0:	89 44 24 04          	mov    %eax,0x4(%esp)
    58b4:	c7 04 24 e6 51 00 70 	movl   $0x700051e6,(%esp)
    58bb:	e8 b8 34 00 00       	call   8d78 <printf>
    58c0:	f4                   	hlt    
    58c1:	a1 90 9e 00 70       	mov    0x70009e90,%eax
    58c6:	85 c0                	test   %eax,%eax
    58c8:	74 1f                	je     58e9 <vt_intercepthandler+0x67c>
    58ca:	a1 90 9e 00 70       	mov    0x70009e90,%eax
    58cf:	89 44 24 04          	mov    %eax,0x4(%esp)
    58d3:	c7 04 24 04 52 00 70 	movl   $0x70005204,(%esp)
    58da:	e8 99 34 00 00       	call   8d78 <printf>
    58df:	c7 05 90 9e 00 70 00 	movl   $0x0,0x70009e90
    58e6:	00 00 00 
    58e9:	a1 d4 9e 00 70       	mov    0x70009ed4,%eax
    58ee:	85 c0                	test   %eax,%eax
    58f0:	79 16                	jns    5908 <vt_intercepthandler+0x69b>
    58f2:	a1 d4 9e 00 70       	mov    0x70009ed4,%eax
    58f7:	89 44 24 04          	mov    %eax,0x4(%esp)
    58fb:	c7 04 24 28 52 00 70 	movl   $0x70005228,(%esp)
    5902:	e8 71 34 00 00       	call   8d78 <printf>
    5907:	f4                   	hlt    
    5908:	83 c4 34             	add    $0x34,%esp
    590b:	5b                   	pop    %ebx
    590c:	5d                   	pop    %ebp
    590d:	c3                   	ret    
    590e:	0a 56 54             	or     0x54(%esi),%dl
    5911:	20 49 6e             	and    %cl,0x6e(%ecx)
    5914:	73 74                	jae    598a <vt_handleerror+0x5e>
    5916:	72 75                	jb     598d <vt_handleerror+0x61>
    5918:	63 74 69 6f          	arpl   %si,0x6f(%ecx,%ebp,2)
    591c:	6e                   	outsb  %ds:(%esi),(%dx)
    591d:	20 45 52             	and    %al,0x52(%ebp)
    5920:	52                   	push   %edx
    5921:	4f                   	dec    %edi
    5922:	52                   	push   %edx
    5923:	3a 20                	cmp    (%eax),%ah
    5925:	30 78 25             	xor    %bh,0x25(%eax)
    5928:	30 38                	xor    %bh,(%eax)
    592a:	78 00                	js     592c <vt_handleerror>

000000000000592c <vt_handleerror>:
    592c:	55                   	push   %ebp
    592d:	89 e5                	mov    %esp,%ebp
    592f:	83 ec 08             	sub    $0x8,%esp
    5932:	a1 c4 9e 00 70       	mov    0x70009ec4,%eax
    5937:	89 44 24 04          	mov    %eax,0x4(%esp)
    593b:	c7 04 24 0e 59 00 70 	movl   $0x7000590e,(%esp)
    5942:	e8 31 34 00 00       	call   8d78 <printf>
    5947:	f4                   	hlt    
    5948:	c9                   	leave  
    5949:	c3                   	ret    
    594a:	0a 43 50             	or     0x50(%ebx),%al
    594d:	55                   	push   %ebp
    594e:	20 69 73             	and    %ch,0x73(%ecx)
    5951:	3a 20                	cmp    (%eax),%ah
    5953:	25 73 00 47 65       	and    $0x65470073,%eax
    5958:	6e                   	outsb  %ds:(%esi),(%dx)
    5959:	75 69                	jne    59c4 <vt_handleerror+0x98>
    595b:	6e                   	outsb  %ds:(%esi),(%dx)
    595c:	65                   	gs
    595d:	49                   	dec    %ecx
    595e:	6e                   	outsb  %ds:(%esi),(%dx)
    595f:	74 65                	je     59c6 <vt_handleerror+0x9a>
    5961:	6c                   	insb   (%dx),%es:(%edi)
    5962:	00 56 54             	add    %dl,0x54(%esi)
    5965:	20 75 6e             	and    %dh,0x6e(%ebp)
    5968:	73 75                	jae    59df <vt_handleerror+0xb3>
    596a:	70 70                	jo     59dc <vt_handleerror+0xb0>
    596c:	6f                   	outsl  %ds:(%esi),(%dx)
    596d:	72 74                	jb     59e3 <vt_handleerror+0xb7>
    596f:	65 64 21 00          	and    %eax,%fs:%gs:(%eax)
    5973:	90                   	nop    
    5974:	0a 43 50             	or     0x50(%ebx),%al
    5977:	55                   	push   %ebp
    5978:	20 73 75             	and    %dh,0x75(%ebx)
    597b:	70 70                	jo     59ed <vt_handleerror+0xc1>
    597d:	6f                   	outsl  %ds:(%esi),(%dx)
    597e:	72 74                	jb     59f4 <vt_handleerror+0xc8>
    5980:	20 56 54             	and    %dl,0x54(%esi)
    5983:	2e 20 52 65          	and    %dl,%cs:0x65(%edx)
    5987:	61                   	popa   
    5988:	64 69 6e 67 20 56 4d 	imul   $0x584d5620,%fs:0x67(%esi),%ebp
    598f:	58 
    5990:	20 63 61             	and    %ah,0x61(%ebx)
    5993:	70 61                	jo     59f6 <vt_handleerror+0xca>
    5995:	62 69 6c             	bound  %ebp,0x6c(%ecx)
    5998:	69 74 69 65 73 20 4d 	imul   $0x534d2073,0x65(%ecx,%ebp,2),%esi
    599f:	53 
    59a0:	52                   	push   %edx
    59a1:	53                   	push   %ebx
    59a2:	2e 2e 2e 00 0a       	add    %cl,%cs:(%edx)
    59a7:	56                   	push   %esi
    59a8:	4d                   	dec    %ebp
    59a9:	58                   	pop    %eax
    59aa:	20 63 61             	and    %ah,0x61(%ebx)
    59ad:	70 61                	jo     5a10 <vt_handleerror+0xe4>
    59af:	62 69 6c             	bound  %ebp,0x6c(%ecx)
    59b2:	69 74 79 20 4d 53 52 	imul   $0x7352534d,0x20(%ecx,%edi,2),%esi
    59b9:	73 
    59ba:	3a 00                	cmp    (%eax),%al
    59bc:	0a 4e 6f             	or     0x6f(%esi),%cl
    59bf:	6e                   	outsb  %ds:(%esi),(%dx)
    59c0:	2d 49 6e 74 65       	sub    $0x65746e49,%eax
    59c5:	6c                   	insb   (%dx),%es:(%edi)
    59c6:	20 43 50             	and    %al,0x50(%ebx)
    59c9:	55                   	push   %ebp
    59ca:	2e 20 55 6e          	and    %dl,%cs:0x6e(%ebp)
    59ce:	73 75                	jae    5a45 <vt_handleerror+0x119>
    59d0:	70 70                	jo     5a42 <vt_handleerror+0x116>
    59d2:	6f                   	outsl  %ds:(%esi),(%dx)
    59d3:	72 74                	jb     5a49 <runtime_initVT+0x2>
    59d5:	65 64 21 00          	and    %eax,%fs:%gs:(%eax)
    59d9:	0a 25 73 20 3d 20    	or     0x203d2073,%ah
    59df:	25 30 31 36 6c       	and    $0x6c363130,%eax
    59e4:	6c                   	insb   (%dx),%es:(%edi)
    59e5:	78 00                	js     59e7 <vt_handleerror+0xbb>
    59e7:	90                   	nop    
    59e8:	0a 53 61             	or     0x61(%ebx),%dl
    59eb:	76 69                	jbe    5a56 <runtime_initVT+0xf>
    59ed:	6e                   	outsb  %ds:(%esi),(%dx)
    59ee:	67 20 4d 53          	addr16 and %cl,0x53(%di)
    59f2:	52                   	push   %edx
    59f3:	5f                   	pop    %edi
    59f4:	45                   	inc    %ebp
    59f5:	46                   	inc    %esi
    59f6:	43                   	inc    %ebx
    59f7:	52                   	push   %edx
    59f8:	20 61 6e             	and    %ah,0x6e(%ecx)
    59fb:	64 20 4d 53          	and    %cl,%fs:0x53(%ebp)
    59ff:	52                   	push   %edx
    5a00:	5f                   	pop    %edi
    5a01:	45                   	inc    %ebp
    5a02:	46                   	inc    %esi
    5a03:	45                   	inc    %ebp
    5a04:	52                   	push   %edx
    5a05:	2e 2e 2e 00 44 6f 6e 	add    %al,%cs:0x6e(%edi,%ebp,2)
    5a0c:	65 2e 00 90 0a 45 6e 	add    %dl,%cs:%gs:0x616e450a(%eax)
    5a13:	61 
    5a14:	62 6c 69 6e          	bound  %ebp,0x6e(%ecx,%ebp,2)
    5a18:	67 20 56 4d          	addr16 and %dl,0x4d(%bp)
    5a1c:	58                   	pop    %eax
    5a1d:	20 61 6e             	and    %ah,0x6e(%ecx)
    5a20:	64 20 65 6e          	and    %ah,%fs:0x6e(%ebp)
    5a24:	74 65                	je     5a8b <runtime_initVT+0x44>
    5a26:	72 69                	jb     5a91 <runtime_initVT+0x4a>
    5a28:	6e                   	outsb  %ds:(%esi),(%dx)
    5a29:	67 20 56 4d          	addr16 and %dl,0x4d(%bp)
    5a2d:	58                   	pop    %eax
    5a2e:	20 72 6f             	and    %dh,0x6f(%edx)
    5a31:	6f                   	outsl  %ds:(%esi),(%dx)
    5a32:	74 2e                	je     5a62 <runtime_initVT+0x1b>
    5a34:	2e 2e 00 44 6f 6e    	add    %al,%cs:0x6e(%edi,%ebp,2)
    5a3a:	65                   	gs
    5a3b:	2c 20                	sub    $0x20,%al
    5a3d:	72 65                	jb     5aa4 <runtime_initVT+0x5d>
    5a3f:	74 76                	je     5ab7 <runtime_initVT+0x70>
    5a41:	61                   	popa   
    5a42:	6c                   	insb   (%dx),%es:(%edi)
    5a43:	3d 25 75 00 55       	cmp    $0x55007525,%eax

0000000000005a47 <runtime_initVT>:
    5a47:	55                   	push   %ebp
    5a48:	89 e5                	mov    %esp,%ebp
    5a4a:	53                   	push   %ebx
    5a4b:	83 ec 24             	sub    $0x24,%esp
    5a4e:	c7 05 2c a0 00 70 00 	movl   $0x0,0x7000a02c
    5a55:	00 00 00 
    5a58:	31 c0                	xor    %eax,%eax
    5a5a:	0f a2                	cpuid  
    5a5c:	89 1d 30 9f 00 70    	mov    %ebx,0x70009f30
    5a62:	89 15 34 9f 00 70    	mov    %edx,0x70009f34
    5a68:	89 0d 38 9f 00 70    	mov    %ecx,0x70009f38
    5a6e:	c7 44 24 04 30 9f 00 	movl   $0x70009f30,0x4(%esp)
    5a75:	70 
    5a76:	c7 04 24 4a 59 00 70 	movl   $0x7000594a,(%esp)
    5a7d:	e8 f6 32 00 00       	call   8d78 <printf>
    5a82:	b8 56 59 00 70       	mov    $0x70005956,%eax
    5a87:	c7 44 24 08 0c 00 00 	movl   $0xc,0x8(%esp)
    5a8e:	00 
    5a8f:	89 44 24 04          	mov    %eax,0x4(%esp)
    5a93:	c7 04 24 30 9f 00 70 	movl   $0x70009f30,(%esp)
    5a9a:	e8 33 26 00 00       	call   80d2 <strncmp>
    5a9f:	85 c0                	test   %eax,%eax
    5aa1:	75 70                	jne    5b13 <nxcap+0x2c>
    5aa3:	b8 01 00 00 00       	mov    $0x1,%eax
    5aa8:	0f a2                	cpuid  
    5aaa:	89 0d 40 9f 00 70    	mov    %ecx,0x70009f40
    5ab0:	a1 40 9f 00 70       	mov    0x70009f40,%eax
    5ab5:	83 e0 20             	and    $0x20,%eax
    5ab8:	85 c0                	test   %eax,%eax
    5aba:	75 18                	jne    5ad4 <runtime_initVT+0x8d>
    5abc:	c7 04 24 63 59 00 70 	movl   $0x70005963,(%esp)
    5ac3:	e8 b0 32 00 00       	call   8d78 <printf>
    5ac8:	c7 45 e8 00 00 00 00 	movl   $0x0,-0x18(%ebp)
    5acf:	e9 bd 02 00 00       	jmp    5d91 <vmsuccess+0x1d>
    5ad4:	c7 04 24 74 59 00 70 	movl   $0x70005974,(%esp)
    5adb:	e8 98 32 00 00       	call   8d78 <printf>
    5ae0:	31 db                	xor    %ebx,%ebx
    5ae2:	b9 80 04 00 00       	mov    $0x480,%ecx

0000000000005ae7 <nxcap>:
    5ae7:	0f 32                	rdmsr  
    5ae9:	89 04 dd 50 9f 00 70 	mov    %eax,0x70009f50(,%ebx,8)
    5af0:	89 14 dd 54 9f 00 70 	mov    %edx,0x70009f54(,%ebx,8)
    5af7:	41                   	inc    %ecx
    5af8:	43                   	inc    %ebx
    5af9:	83 fb 0b             	cmp    $0xb,%ebx
    5afc:	72 e9                	jb     5ae7 <nxcap>
    5afe:	c7 04 24 a6 59 00 70 	movl   $0x700059a6,(%esp)
    5b05:	e8 6e 32 00 00       	call   8d78 <printf>
    5b0a:	c7 45 f8 00 00 00 00 	movl   $0x0,-0x8(%ebp)
    5b11:	eb 4f                	jmp    5b62 <nxcap+0x7b>
    5b13:	c7 04 24 bc 59 00 70 	movl   $0x700059bc,(%esp)
    5b1a:	e8 59 32 00 00       	call   8d78 <printf>
    5b1f:	c7 45 e8 00 00 00 00 	movl   $0x0,-0x18(%ebp)
    5b26:	e9 66 02 00 00       	jmp    5d91 <vmsuccess+0x1d>
    5b2b:	8b 45 f8             	mov    -0x8(%ebp),%eax
    5b2e:	8b 14 c5 50 9f 00 70 	mov    0x70009f50(,%eax,8),%edx
    5b35:	8b 0c c5 54 9f 00 70 	mov    0x70009f54(,%eax,8),%ecx
    5b3c:	8b 45 f8             	mov    -0x8(%ebp),%eax
    5b3f:	8b 04 85 b0 97 00 70 	mov    0x700097b0(,%eax,4),%eax
    5b46:	89 54 24 08          	mov    %edx,0x8(%esp)
    5b4a:	89 4c 24 0c          	mov    %ecx,0xc(%esp)
    5b4e:	89 44 24 04          	mov    %eax,0x4(%esp)
    5b52:	c7 04 24 d9 59 00 70 	movl   $0x700059d9,(%esp)
    5b59:	e8 1a 32 00 00       	call   8d78 <printf>
    5b5e:	83 45 f8 01          	addl   $0x1,-0x8(%ebp)
    5b62:	83 7d f8 0a          	cmpl   $0xa,-0x8(%ebp)
    5b66:	76 c3                	jbe    5b2b <nxcap+0x44>
    5b68:	c7 04 24 e8 59 00 70 	movl   $0x700059e8,(%esp)
    5b6f:	e8 04 32 00 00       	call   8d78 <printf>
    5b74:	b9 3a 00 00 00       	mov    $0x3a,%ecx
    5b79:	0f 32                	rdmsr  
    5b7b:	a3 18 9f 00 70       	mov    %eax,0x70009f18
    5b80:	89 15 1c 9f 00 70    	mov    %edx,0x70009f1c
    5b86:	b9 80 00 00 c0       	mov    $0xc0000080,%ecx
    5b8b:	0f 32                	rdmsr  
    5b8d:	a3 20 9f 00 70       	mov    %eax,0x70009f20
    5b92:	89 15 24 9f 00 70    	mov    %edx,0x70009f24
    5b98:	c7 04 24 09 5a 00 70 	movl   $0x70005a09,(%esp)
    5b9f:	e8 d4 31 00 00       	call   8d78 <printf>
    5ba4:	b8 00 50 01 70       	mov    $0x70015000,%eax
    5ba9:	ba 00 00 00 00       	mov    $0x0,%edx
    5bae:	a3 b0 9f 00 70       	mov    %eax,0x70009fb0
    5bb3:	89 15 b4 9f 00 70    	mov    %edx,0x70009fb4
    5bb9:	b8 00 50 01 70       	mov    $0x70015000,%eax
    5bbe:	ba 00 00 00 00       	mov    $0x0,%edx
    5bc3:	05 00 10 00 00       	add    $0x1000,%eax
    5bc8:	83 d2 00             	adc    $0x0,%edx
    5bcb:	a3 b8 9f 00 70       	mov    %eax,0x70009fb8
    5bd0:	89 15 bc 9f 00 70    	mov    %edx,0x70009fbc
    5bd6:	b8 00 50 01 70       	mov    $0x70015000,%eax
    5bdb:	ba 00 00 00 00       	mov    $0x0,%edx
    5be0:	05 00 20 00 00       	add    $0x2000,%eax
    5be5:	83 d2 00             	adc    $0x0,%edx
    5be8:	a3 c0 9f 00 70       	mov    %eax,0x70009fc0
    5bed:	89 15 c4 9f 00 70    	mov    %edx,0x70009fc4
    5bf3:	b8 00 50 01 70       	mov    $0x70015000,%eax
    5bf8:	ba 00 00 00 00       	mov    $0x0,%edx
    5bfd:	05 00 30 00 00       	add    $0x3000,%eax
    5c02:	83 d2 00             	adc    $0x0,%edx
    5c05:	a3 c8 9f 00 70       	mov    %eax,0x70009fc8
    5c0a:	89 15 cc 9f 00 70    	mov    %edx,0x70009fcc
    5c10:	b8 00 50 01 70       	mov    $0x70015000,%eax
    5c15:	ba 00 00 00 00       	mov    $0x0,%edx
    5c1a:	05 00 40 00 00       	add    $0x4000,%eax
    5c1f:	83 d2 00             	adc    $0x0,%edx
    5c22:	a3 d0 9f 00 70       	mov    %eax,0x70009fd0
    5c27:	89 15 d4 9f 00 70    	mov    %edx,0x70009fd4
    5c2d:	b8 00 50 01 70       	mov    $0x70015000,%eax
    5c32:	ba 00 00 00 00       	mov    $0x0,%edx
    5c37:	05 00 60 00 00       	add    $0x6000,%eax
    5c3c:	83 d2 00             	adc    $0x0,%edx
    5c3f:	a3 d8 9f 00 70       	mov    %eax,0x70009fd8
    5c44:	89 15 dc 9f 00 70    	mov    %edx,0x70009fdc
    5c4a:	b8 00 50 01 70       	mov    $0x70015000,%eax
    5c4f:	ba 00 00 00 00       	mov    $0x0,%edx
    5c54:	05 00 68 00 00       	add    $0x6800,%eax
    5c59:	83 d2 00             	adc    $0x0,%edx
    5c5c:	a3 e0 9f 00 70       	mov    %eax,0x70009fe0
    5c61:	89 15 e4 9f 00 70    	mov    %edx,0x70009fe4
    5c67:	b8 00 50 01 70       	mov    $0x70015000,%eax
    5c6c:	ba 00 00 00 00       	mov    $0x0,%edx
    5c71:	05 00 6a 00 00       	add    $0x6a00,%eax
    5c76:	83 d2 00             	adc    $0x0,%edx
    5c79:	a3 e8 9f 00 70       	mov    %eax,0x70009fe8
    5c7e:	89 15 ec 9f 00 70    	mov    %edx,0x70009fec
    5c84:	b8 00 50 01 70       	mov    $0x70015000,%eax
    5c89:	ba 00 00 00 00       	mov    $0x0,%edx
    5c8e:	05 00 6c 00 00       	add    $0x6c00,%eax
    5c93:	83 d2 00             	adc    $0x0,%edx
    5c96:	a3 f0 9f 00 70       	mov    %eax,0x70009ff0
    5c9b:	89 15 f4 9f 00 70    	mov    %edx,0x70009ff4
    5ca1:	b8 00 50 01 70       	mov    $0x70015000,%eax
    5ca6:	ba 00 00 00 00       	mov    $0x0,%edx
    5cab:	05 00 a0 00 00       	add    $0xa000,%eax
    5cb0:	83 d2 00             	adc    $0x0,%edx
    5cb3:	a3 f8 9f 00 70       	mov    %eax,0x70009ff8
    5cb8:	89 15 fc 9f 00 70    	mov    %edx,0x70009ffc
    5cbe:	b8 00 50 01 70       	mov    $0x70015000,%eax
    5cc3:	ba 00 00 00 00       	mov    $0x0,%edx
    5cc8:	05 00 a0 00 00       	add    $0xa000,%eax
    5ccd:	83 d2 00             	adc    $0x0,%edx
    5cd0:	a3 00 a0 00 70       	mov    %eax,0x7000a000
    5cd5:	89 15 04 a0 00 70    	mov    %edx,0x7000a004
    5cdb:	b8 00 50 01 70       	mov    $0x70015000,%eax
    5ce0:	ba 00 00 00 00       	mov    $0x0,%edx
    5ce5:	05 00 c0 00 00       	add    $0xc000,%eax
    5cea:	83 d2 00             	adc    $0x0,%edx
    5ced:	a3 08 a0 00 70       	mov    %eax,0x7000a008
    5cf2:	89 15 0c a0 00 70    	mov    %edx,0x7000a00c
    5cf8:	c7 04 24 10 5a 00 70 	movl   $0x70005a10,(%esp)
    5cff:	e8 74 30 00 00       	call   8d78 <printf>
    5d04:	0f 20 e0             	mov    %cr4,%eax
    5d07:	0f ba e8 0d          	bts    $0xd,%eax
    5d0b:	0f 22 e0             	mov    %eax,%cr4
    5d0e:	a1 b0 9f 00 70       	mov    0x70009fb0,%eax
    5d13:	8b 15 b4 9f 00 70    	mov    0x70009fb4,%edx
    5d19:	c7 44 24 08 00 10 00 	movl   $0x1000,0x8(%esp)
    5d20:	00 
    5d21:	c7 44 24 04 00 00 00 	movl   $0x0,0x4(%esp)
    5d28:	00 
    5d29:	89 04 24             	mov    %eax,(%esp)
    5d2c:	e8 73 23 00 00       	call   80a4 <memset>
    5d31:	a1 b0 9f 00 70       	mov    0x70009fb0,%eax
    5d36:	8b 15 b4 9f 00 70    	mov    0x70009fb4,%edx
    5d3c:	c7 44 24 08 04 00 00 	movl   $0x4,0x8(%esp)
    5d43:	00 
    5d44:	c7 44 24 04 50 9f 00 	movl   $0x70009f50,0x4(%esp)
    5d4b:	70 
    5d4c:	89 04 24             	mov    %eax,(%esp)
    5d4f:	e8 15 23 00 00       	call   8069 <memcpy>
    5d54:	f3 0f c7 35 b0 9f 00 	vmxon  0x70009fb0
    5d5b:	70 
    5d5c:	76 0c                	jbe    5d6a <vmfail>
    5d5e:	b8 01 00 00 00       	mov    $0x1,%eax
    5d63:	a3 2c a0 00 70       	mov    %eax,0x7000a02c
    5d68:	eb 0a                	jmp    5d74 <vmsuccess>

0000000000005d6a <vmfail>:
    5d6a:	b8 00 00 00 00       	mov    $0x0,%eax
    5d6f:	a3 2c a0 00 70       	mov    %eax,0x7000a02c

0000000000005d74 <vmsuccess>:
    5d74:	a1 2c a0 00 70       	mov    0x7000a02c,%eax
    5d79:	89 44 24 04          	mov    %eax,0x4(%esp)
    5d7d:	c7 04 24 37 5a 00 70 	movl   $0x70005a37,(%esp)
    5d84:	e8 ef 2f 00 00       	call   8d78 <printf>
    5d89:	a1 2c a0 00 70       	mov    0x7000a02c,%eax
    5d8e:	89 45 e8             	mov    %eax,-0x18(%ebp)
    5d91:	8b 45 e8             	mov    -0x18(%ebp),%eax
    5d94:	83 c4 24             	add    $0x24,%esp
    5d97:	5b                   	pop    %ebx
    5d98:	5d                   	pop    %ebp
    5d99:	c3                   	ret    
    5d9a:	0a 6c 61 75          	or     0x75(%ecx),%ch
    5d9e:	6e                   	outsb  %ds:(%esi),(%dx)
    5d9f:	63 68 3a             	arpl   %bp,0x3a(%eax)
    5da2:	20 63 6c             	and    %ah,0x6c(%ebx)
    5da5:	65                   	gs
    5da6:	61                   	popa   
    5da7:	72 69                	jb     5e12 <runtime_launch_guest+0xd>
    5da9:	6e                   	outsb  %ds:(%esi),(%dx)
    5daa:	67 20 56 4d          	addr16 and %dl,0x4d(%bp)
    5dae:	43                   	inc    %ebx
    5daf:	53                   	push   %ebx
    5db0:	2e 2e 2e 00 0a       	add    %cl,%cs:(%edx)
    5db5:	6c                   	insb   (%dx),%es:(%edi)
    5db6:	61                   	popa   
    5db7:	75 6e                	jne    5e27 <runtime_launch_guest+0x22>
    5db9:	63 68 3a             	arpl   %bp,0x3a(%eax)
    5dbc:	20 6c 6f 61          	and    %ch,0x61(%edi,%ebp,2)
    5dc0:	64 69 6e 67 20 56 4d 	imul   $0x504d5620,%fs:0x67(%esi),%ebp
    5dc7:	50 
    5dc8:	54                   	push   %esp
    5dc9:	52                   	push   %edx
    5dca:	2e 2e 2e 00 66 90    	add    %ah,%cs:-0x70(%esi)
    5dd0:	0a 6c 61 75          	or     0x75(%ecx),%ch
    5dd4:	6e                   	outsb  %ds:(%esi),(%dx)
    5dd5:	63 68 3a             	arpl   %bp,0x3a(%eax)
    5dd8:	20 77 72             	and    %dh,0x72(%edi)
    5ddb:	69 74 69 6e 67 20 56 	imul   $0x4d562067,0x6e(%ecx,%ebp,2),%esi
    5de2:	4d 
    5de3:	43                   	inc    %ebx
    5de4:	53                   	push   %ebx
    5de5:	20 66 69             	and    %ah,0x69(%esi)
    5de8:	65                   	gs
    5de9:	6c                   	insb   (%dx),%es:(%edi)
    5dea:	64                   	fs
    5deb:	73 2e                	jae    5e1b <runtime_launch_guest+0x16>
    5ded:	2e 2e 00 0a          	add    %cl,%cs:(%edx)
    5df1:	6c                   	insb   (%dx),%es:(%edi)
    5df2:	61                   	popa   
    5df3:	75 6e                	jne    5e63 <runtime_launch_guest+0x5e>
    5df5:	63 68 3a             	arpl   %bp,0x3a(%eax)
    5df8:	20 56 4d             	and    %dl,0x4d(%esi)
    5dfb:	4c                   	dec    %esp
    5dfc:	41                   	inc    %ecx
    5dfd:	55                   	push   %ebp
    5dfe:	4e                   	dec    %esi
    5dff:	43                   	inc    %ebx
    5e00:	48                   	dec    %eax
    5e01:	2e 2e 2e 00 55 89    	add    %dl,%cs:-0x77(%ebp)

0000000000005e05 <runtime_launch_guest>:
    5e05:	55                   	push   %ebp
    5e06:	89 e5                	mov    %esp,%ebp
    5e08:	53                   	push   %ebx
    5e09:	83 ec 14             	sub    $0x14,%esp
    5e0c:	c7 04 24 9a 5d 00 70 	movl   $0x70005d9a,(%esp)
    5e13:	e8 60 2f 00 00       	call   8d78 <printf>
    5e18:	66 0f c7 35 b8 9f 00 	vmclear 0x70009fb8
    5e1f:	70 
    5e20:	0f 86 5e cb ff ff    	jbe    2984 <vt_vmfail>
    5e26:	c7 04 24 09 5a 00 70 	movl   $0x70005a09,(%esp)
    5e2d:	e8 46 2f 00 00       	call   8d78 <printf>
    5e32:	a1 b8 9f 00 70       	mov    0x70009fb8,%eax
    5e37:	8b 15 bc 9f 00 70    	mov    0x70009fbc,%edx
    5e3d:	c7 44 24 08 00 10 00 	movl   $0x1000,0x8(%esp)
    5e44:	00 
    5e45:	c7 44 24 04 00 00 00 	movl   $0x0,0x4(%esp)
    5e4c:	00 
    5e4d:	89 04 24             	mov    %eax,(%esp)
    5e50:	e8 4f 22 00 00       	call   80a4 <memset>
    5e55:	a1 b8 9f 00 70       	mov    0x70009fb8,%eax
    5e5a:	8b 15 bc 9f 00 70    	mov    0x70009fbc,%edx
    5e60:	c7 44 24 08 04 00 00 	movl   $0x4,0x8(%esp)
    5e67:	00 
    5e68:	c7 44 24 04 50 9f 00 	movl   $0x70009f50,0x4(%esp)
    5e6f:	70 
    5e70:	89 04 24             	mov    %eax,(%esp)
    5e73:	e8 f1 21 00 00       	call   8069 <memcpy>
    5e78:	c7 04 24 b4 5d 00 70 	movl   $0x70005db4,(%esp)
    5e7f:	e8 f4 2e 00 00       	call   8d78 <printf>
    5e84:	0f c7 35 b8 9f 00 70 	vmptrld 0x70009fb8
    5e8b:	0f 86 f3 ca ff ff    	jbe    2984 <vt_vmfail>
    5e91:	c7 04 24 09 5a 00 70 	movl   $0x70005a09,(%esp)
    5e98:	e8 db 2e 00 00       	call   8d78 <printf>
    5e9d:	c7 04 24 d0 5d 00 70 	movl   $0x70005dd0,(%esp)
    5ea4:	e8 cf 2e 00 00       	call   8d78 <printf>
    5ea9:	31 d2                	xor    %edx,%edx
    5eab:	8b 0d f0 7f 00 70    	mov    0x70007ff0,%ecx

0000000000005eb1 <nxwr>:
    5eb1:	8b 82 20 98 00 70    	mov    0x70009820(%edx),%eax
    5eb7:	8b 9a 24 98 00 70    	mov    0x70009824(%edx),%ebx
    5ebd:	0f 79 03             	vmwrite (%ebx),%eax
    5ec0:	0f 86 be ca ff ff    	jbe    2984 <vt_vmfail>
    5ec6:	83 c2 08             	add    $0x8,%edx
    5ec9:	e2 e6                	loop   5eb1 <nxwr>
    5ecb:	c7 04 24 09 5a 00 70 	movl   $0x70005a09,(%esp)
    5ed2:	e8 a1 2e 00 00       	call   8d78 <printf>
    5ed7:	c7 04 24 f0 5d 00 70 	movl   $0x70005df0,(%esp)
    5ede:	e8 95 2e 00 00       	call   8d78 <printf>
    5ee3:	a1 10 a0 00 70       	mov    0x7000a010,%eax
    5ee8:	8b 1d 14 a0 00 70    	mov    0x7000a014,%ebx
    5eee:	8b 0d 18 a0 00 70    	mov    0x7000a018,%ecx
    5ef4:	8b 15 1c a0 00 70    	mov    0x7000a01c,%edx
    5efa:	8b 2d 20 a0 00 70    	mov    0x7000a020,%ebp
    5f00:	8b 35 24 a0 00 70    	mov    0x7000a024,%esi
    5f06:	8b 3d 28 a0 00 70    	mov    0x7000a028,%edi
    5f0c:	0f 01 c2             	vmlaunch 
    5f0f:	e9 70 ca ff ff       	jmp    2984 <vt_vmfail>
    5f14:	83 c4 14             	add    $0x14,%esp
    5f17:	5b                   	pop    %ebx
    5f18:	5d                   	pop    %ebp
    5f19:	c3                   	ret    
    5f1a:	66 90                	xchg   %ax,%ax

0000000000005f1c <vmx_msr_index>:
    5f1c:	80 00 00             	addb   $0x0,(%eax)
    5f1f:	c0 81 00 00 c0 28 6e 	rolb   $0x6e,0x28c00000(%ecx)
    5f26:	65                   	gs
    5f27:	78 74                	js     5f9d <vmx_msr_index+0x81>
    5f29:	73 74                	jae    5f9f <vmx_msr_index+0x83>
    5f2b:	61                   	popa   
    5f2c:	74 65                	je     5f93 <vmx_msr_index+0x77>
    5f2e:	20 3d 3d 20 47 53    	and    %bh,0x5347203d
    5f34:	54                   	push   %esp
    5f35:	41                   	inc    %ecx
    5f36:	54                   	push   %esp
    5f37:	45                   	inc    %ebp
    5f38:	5f                   	pop    %edi
    5f39:	52                   	push   %edx
    5f3a:	45                   	inc    %ebp
    5f3b:	41                   	inc    %ecx
    5f3c:	4c                   	dec    %esp
    5f3d:	4d                   	dec    %ebp
    5f3e:	4f                   	dec    %edi
    5f3f:	44                   	inc    %esp
    5f40:	45                   	inc    %ebp
    5f41:	29 00                	sub    %eax,(%eax)
    5f43:	0a 4d 53             	or     0x53(%ebp),%cl
    5f46:	52                   	push   %edx
    5f47:	20 6c 6f 61          	and    %ch,0x61(%edi,%ebp,2)
    5f4b:	64                   	fs
    5f4c:	2f                   	das    
    5f4d:	73 74                	jae    5fc3 <vmx_msr_index+0xa7>
    5f4f:	6f                   	outsl  %ds:(%esi),(%dx)
    5f50:	72 65                	jb     5fb7 <vmx_msr_index+0x9b>
    5f52:	20 70 6f             	and    %dh,0x6f(%eax)
    5f55:	70 75                	jo     5fcc <vmx_msr_index+0xb0>
    5f57:	6c                   	insb   (%dx),%es:(%edi)
    5f58:	61                   	popa   
    5f59:	74 65                	je     5fc0 <vmx_msr_index+0xa4>
    5f5b:	3a 00                	cmp    (%eax),%al
    5f5d:	8d 76 00             	lea    0x0(%esi),%esi
    5f60:	0a 4d 53             	or     0x53(%ebp),%cl
    5f63:	52                   	push   %edx
    5f64:	20 68 6f             	and    %ch,0x6f(%eax)
    5f67:	73 74                	jae    5fdd <vmx_msr_index+0xc1>
    5f69:	5f                   	pop    %edi
    5f6a:	69 6e 64 65 78 3d 30 	imul   $0x303d7865,0x64(%esi),%ebp
    5f71:	78 25                	js     5f98 <vmx_msr_index+0x7c>
    5f73:	30 38                	xor    %bh,(%eax)
    5f75:	78 2c                	js     5fa3 <vmx_msr_index+0x87>
    5f77:	20 68 6f             	and    %ch,0x6f(%eax)
    5f7a:	73 74                	jae    5ff0 <vmx_msr_index+0xd4>
    5f7c:	5f                   	pop    %edi
    5f7d:	64                   	fs
    5f7e:	61                   	popa   
    5f7f:	74 61                	je     5fe2 <vmx_msr_index+0xc6>
    5f81:	3d 30 78 25 30       	cmp    $0x30257830,%eax
    5f86:	31 36                	xor    %esi,(%esi)
    5f88:	6c                   	insb   (%dx),%es:(%edi)
    5f89:	6c                   	insb   (%dx),%es:(%edi)
    5f8a:	78 00                	js     5f8c <vmx_msr_index+0x70>
    5f8c:	0a 4d 53             	or     0x53(%ebp),%cl
    5f8f:	52                   	push   %edx
    5f90:	20 67 75             	and    %ah,0x75(%edi)
    5f93:	65                   	gs
    5f94:	73 74                	jae    600a <vmx_msr_index+0xee>
    5f96:	5f                   	pop    %edi
    5f97:	69 6e 64 65 78 3d 30 	imul   $0x303d7865,0x64(%esi),%ebp
    5f9e:	78 25                	js     5fc5 <vmx_msr_index+0xa9>
    5fa0:	30 38                	xor    %bh,(%eax)
    5fa2:	78 2c                	js     5fd0 <vmx_msr_index+0xb4>
    5fa4:	20 67 75             	and    %ah,0x75(%edi)
    5fa7:	65                   	gs
    5fa8:	73 74                	jae    601e <vmx_msr_index+0x102>
    5faa:	5f                   	pop    %edi
    5fab:	64                   	fs
    5fac:	61                   	popa   
    5fad:	74 61                	je     6010 <vmx_msr_index+0xf4>
    5faf:	3d 30 78 25 30       	cmp    $0x30257830,%eax
    5fb4:	31 36                	xor    %esi,(%esi)
    5fb6:	6c                   	insb   (%dx),%es:(%edi)
    5fb7:	6c                   	insb   (%dx),%es:(%edi)
    5fb8:	78 00                	js     5fba <vmx_msr_index+0x9e>
    5fba:	66 90                	xchg   %ax,%ax
    5fbc:	28 6e 65             	sub    %ch,0x65(%esi)
    5fbf:	78 74                	js     6035 <vmx_msr_index+0x119>
    5fc1:	73 74                	jae    6037 <vmx_msr_index+0x11b>
    5fc3:	61                   	popa   
    5fc4:	74 65                	je     602b <vmx_msr_index+0x10f>
    5fc6:	20 3d 3d 20 47 53    	and    %bh,0x5347203d
    5fcc:	54                   	push   %esp
    5fcd:	41                   	inc    %ecx
    5fce:	54                   	push   %esp
    5fcf:	45                   	inc    %ebp
    5fd0:	5f                   	pop    %edi
    5fd1:	50                   	push   %eax
    5fd2:	52                   	push   %edx
    5fd3:	4f                   	dec    %edi
    5fd4:	54                   	push   %esp
    5fd5:	45                   	inc    %ebp
    5fd6:	43                   	inc    %ebx
    5fd7:	54                   	push   %esp
    5fd8:	45                   	inc    %ebp
    5fd9:	44                   	inc    %esp
    5fda:	4d                   	dec    %ebp
    5fdb:	4f                   	dec    %edi
    5fdc:	44                   	inc    %esp
    5fdd:	45                   	inc    %ebp
    5fde:	29 20                	sub    %esp,(%eax)
    5fe0:	7c 7c                	jl     605e <vmx_msr_index+0x142>
    5fe2:	20 28                	and    %ch,(%eax)
    5fe4:	6e                   	outsb  %ds:(%esi),(%dx)
    5fe5:	65                   	gs
    5fe6:	78 74                	js     605c <vmx_msr_index+0x140>
    5fe8:	73 74                	jae    605e <vmx_msr_index+0x142>
    5fea:	61                   	popa   
    5feb:	74 65                	je     6052 <vmx_msr_index+0x136>
    5fed:	20 3d 3d 20 28 47    	and    %bh,0x4728203d
    5ff3:	53                   	push   %ebx
    5ff4:	54                   	push   %esp
    5ff5:	41                   	inc    %ecx
    5ff6:	54                   	push   %esp
    5ff7:	45                   	inc    %ebp
    5ff8:	5f                   	pop    %edi
    5ff9:	50                   	push   %eax
    5ffa:	52                   	push   %edx
    5ffb:	4f                   	dec    %edi
    5ffc:	54                   	push   %esp
    5ffd:	45                   	inc    %ebp
    5ffe:	43                   	inc    %ebx
    5fff:	54                   	push   %esp
    6000:	45                   	inc    %ebp
    6001:	44                   	inc    %esp
    6002:	4d                   	dec    %ebp
    6003:	4f                   	dec    %edi
    6004:	44                   	inc    %esp
    6005:	45                   	inc    %ebp
    6006:	20 7c 20 47          	and    %bh,0x47(%eax)
    600a:	53                   	push   %ebx
    600b:	54                   	push   %esp
    600c:	41                   	inc    %ecx
    600d:	54                   	push   %esp
    600e:	45                   	inc    %ebp
    600f:	5f                   	pop    %edi
    6010:	50                   	push   %eax
    6011:	52                   	push   %edx
    6012:	4f                   	dec    %edi
    6013:	54                   	push   %esp
    6014:	45                   	inc    %ebp
    6015:	43                   	inc    %ebx
    6016:	54                   	push   %esp
    6017:	45                   	inc    %ebp
    6018:	44                   	inc    %esp
    6019:	4d                   	dec    %ebp
    601a:	4f                   	dec    %edi
    601b:	44                   	inc    %esp
    601c:	45                   	inc    %ebp
    601d:	5f                   	pop    %edi
    601e:	50                   	push   %eax
    601f:	47                   	inc    %edi
    6020:	29 20                	sub    %esp,(%eax)
    6022:	29 00                	sub    %eax,(%eax)
    6024:	28 76 38             	sub    %dh,0x38(%esi)
    6027:	36                   	ss
    6028:	6d                   	insl   (%dx),%es:(%edi)
    6029:	6f                   	outsl  %ds:(%esi),(%dx)
    602a:	6e                   	outsb  %ds:(%esi),(%dx)
    602b:	69 74 6f 72 5f 67 75 	imul   $0x6575675f,0x72(%edi,%ebp,2),%esi
    6032:	65 
    6033:	73 74                	jae    60a9 <vmx_msr_index+0x18d>
    6035:	5f                   	pop    %edi
    6036:	67                   	addr16
    6037:	64                   	fs
    6038:	74 5f                	je     6099 <vmx_msr_index+0x17d>
    603a:	62 61 73             	bound  %esp,0x73(%ecx)
    603d:	65 20 21             	and    %ah,%gs:(%ecx)
    6040:	3d 20 30 29 20       	cmp    $0x20293020,%eax
    6045:	26 26 20 28          	and    %ch,%es:(%eax)
    6049:	76 38                	jbe    6083 <vmx_msr_index+0x167>
    604b:	36                   	ss
    604c:	6d                   	insl   (%dx),%es:(%edi)
    604d:	6f                   	outsl  %ds:(%esi),(%dx)
    604e:	6e                   	outsb  %ds:(%esi),(%dx)
    604f:	69 74 6f 72 5f 67 75 	imul   $0x6575675f,0x72(%edi,%ebp,2),%esi
    6056:	65 
    6057:	73 74                	jae    60cd <vmx_msr_index+0x1b1>
    6059:	5f                   	pop    %edi
    605a:	67                   	addr16
    605b:	64                   	fs
    605c:	74 5f                	je     60bd <vmx_msr_index+0x1a1>
    605e:	6c                   	insb   (%dx),%es:(%edi)
    605f:	69 6d 69 74 20 21 3d 	imul   $0x3d212074,0x69(%ebp),%ebp
    6066:	20 30                	and    %dh,(%eax)
    6068:	29 00                	sub    %eax,(%eax)
    606a:	66 90                	xchg   %ax,%ax
    606c:	6e                   	outsb  %ds:(%esi),(%dx)
    606d:	65                   	gs
    606e:	78 74                	js     60e4 <vmx_msr_index+0x1c8>
    6070:	73 74                	jae    60e6 <vmx_msr_index+0x1ca>
    6072:	61                   	popa   
    6073:	74 65                	je     60da <vmx_msr_index+0x1be>
    6075:	20 26                	and    %ah,(%esi)
    6077:	20 47 53             	and    %al,0x53(%edi)
    607a:	54                   	push   %esp
    607b:	41                   	inc    %ecx
    607c:	54                   	push   %esp
    607d:	45                   	inc    %ebp
    607e:	5f                   	pop    %edi
    607f:	50                   	push   %eax
    6080:	52                   	push   %edx
    6081:	4f                   	dec    %edi
    6082:	54                   	push   %esp
    6083:	45                   	inc    %ebp
    6084:	43                   	inc    %ebx
    6085:	54                   	push   %esp
    6086:	45                   	inc    %ebp
    6087:	44                   	inc    %esp
    6088:	4d                   	dec    %ebp
    6089:	4f                   	dec    %edi
    608a:	44                   	inc    %esp
    608b:	45                   	inc    %ebp
    608c:	5f                   	pop    %edi
    608d:	47                   	inc    %edi
    608e:	44                   	inc    %esp
    608f:	54                   	push   %esp
    6090:	52                   	push   %edx
    6091:	00 66 90             	add    %ah,-0x70(%esi)
    6094:	0a 47 75             	or     0x75(%edi),%al
    6097:	65                   	gs
    6098:	73 74                	jae    610e <vmx_msr_index+0x1f2>
    609a:	20 68 61             	and    %ch,0x61(%eax)
    609d:	73 20                	jae    60bf <vmx_msr_index+0x1a3>
    609f:	4e                   	dec    %esi
    60a0:	54                   	push   %esp
    60a1:	20 62 69             	and    %ah,0x69(%edx)
    60a4:	74 20                	je     60c6 <vmx_msr_index+0x1aa>
    60a6:	73 65                	jae    610d <vmx_msr_index+0x1f1>
    60a8:	74 2c                	je     60d6 <vmx_msr_index+0x1ba>
    60aa:	20 68 6d             	and    %ch,0x6d(%eax)
    60ad:	6d                   	insl   (%dx),%es:(%edi)
    60ae:	20 67 6f             	and    %ah,0x6f(%edi)
    60b1:	74 74                	je     6127 <vmx_msr_index+0x20b>
    60b3:	61                   	popa   
    60b4:	20 68 61             	and    %ch,0x61(%eax)
    60b7:	6e                   	outsb  %ds:(%esi),(%dx)
    60b8:	64                   	fs
    60b9:	6c                   	insb   (%dx),%es:(%edi)
    60ba:	65 20 74 68 69       	and    %dh,%gs:0x69(%eax,%ebp,2)
    60bf:	73 21                	jae    60e2 <vmx_msr_index+0x1c6>
    60c1:	00 66 90             	add    %ah,-0x70(%esi)
    60c4:	0a 47 75             	or     0x75(%edi),%al
    60c7:	65                   	gs
    60c8:	73 74                	jae    613e <isl_prepareVMCS+0x16>
    60ca:	20 68 61             	and    %ch,0x61(%eax)
    60cd:	73 20                	jae    60ef <vmx_msr_index+0x1d3>
    60cf:	49                   	dec    %ecx
    60d0:	4f                   	dec    %edi
    60d1:	50                   	push   %eax
    60d2:	4c                   	dec    %esp
    60d3:	20 33                	and    %dh,(%ebx)
    60d5:	2c 20                	sub    $0x20,%al
    60d7:	68 6d 6d 20 67       	push   $0x67206d6d
    60dc:	6f                   	outsl  %ds:(%esi),(%dx)
    60dd:	74 74                	je     6153 <isl_prepareVMCS+0x2b>
    60df:	61                   	popa   
    60e0:	20 68 61             	and    %ch,0x61(%eax)
    60e3:	6e                   	outsb  %ds:(%esi),(%dx)
    60e4:	64                   	fs
    60e5:	6c                   	insb   (%dx),%es:(%edi)
    60e6:	65 20 74 68 69       	and    %dh,%gs:0x69(%eax,%ebp,2)
    60eb:	73 21                	jae    610e <vmx_msr_index+0x1f2>
    60ed:	00 66 90             	add    %ah,-0x70(%esi)
    60f0:	0a 69 73             	or     0x73(%ecx),%ch
    60f3:	6c                   	insb   (%dx),%es:(%edi)
    60f4:	5f                   	pop    %edi
    60f5:	70 72                	jo     6169 <isl_prepareVMCS+0x41>
    60f7:	65                   	gs
    60f8:	70 61                	jo     615b <isl_prepareVMCS+0x33>
    60fa:	72 65                	jb     6161 <isl_prepareVMCS+0x39>
    60fc:	56                   	push   %esi
    60fd:	4d                   	dec    %ebp
    60fe:	43                   	inc    %ebx
    60ff:	53                   	push   %ebx
    6100:	3a 20                	cmp    (%eax),%ah
    6102:	69 6e 76 61 6c 69 64 	imul   $0x64696c61,0x76(%esi),%ebp
    6109:	20 63 6f             	and    %ah,0x6f(%ebx)
    610c:	6d                   	insl   (%dx),%es:(%edi)
    610d:	62 69 6e             	bound  %ebp,0x6e(%ecx)
    6110:	61                   	popa   
    6111:	74 69                	je     617c <isl_prepareVMCS+0x54>
    6113:	6f                   	outsl  %ds:(%esi),(%dx)
    6114:	6e                   	outsb  %ds:(%esi),(%dx)
    6115:	3a 20                	cmp    (%eax),%ah
    6117:	30 78 25             	xor    %bh,0x25(%eax)
    611a:	30 38                	xor    %bh,(%eax)
    611c:	6c                   	insb   (%dx),%es:(%edi)
    611d:	78 2d                	js     614c <isl_prepareVMCS+0x24>
    611f:	3e 30 78 25          	xor    %bh,%ds:0x25(%eax)
    6123:	30 38                	xor    %bh,(%eax)
    6125:	6c                   	insb   (%dx),%es:(%edi)
    6126:	78 00                	js     6128 <isl_prepareVMCS>

0000000000006128 <isl_prepareVMCS>:
    6128:	55                   	push   %ebp
    6129:	89 e5                	mov    %esp,%ebp
    612b:	57                   	push   %edi
    612c:	56                   	push   %esi
    612d:	53                   	push   %ebx
    612e:	81 ec bc 00 00 00    	sub    $0xbc,%esp
    6134:	83 7d 08 00          	cmpl   $0x0,0x8(%ebp)
    6138:	0f 85 67 0b 00 00    	jne    6ca5 <isl_prepareVMCS+0xb7d>
    613e:	83 7d 0c 01          	cmpl   $0x1,0xc(%ebp)
    6142:	74 25                	je     6169 <isl_prepareVMCS+0x41>
    6144:	c7 44 24 0c 81 42 00 	movl   $0x70004281,0xc(%esp)
    614b:	70 
    614c:	c7 44 24 08 8d 03 00 	movl   $0x38d,0x8(%esp)
    6153:	00 
    6154:	c7 44 24 04 24 5f 00 	movl   $0x70005f24,0x4(%esp)
    615b:	70 
    615c:	c7 04 24 10 43 00 70 	movl   $0x70004310,(%esp)
    6163:	e8 10 2c 00 00       	call   8d78 <printf>
    6168:	f4                   	hlt    
    6169:	0f 20 c0             	mov    %cr0,%eax
    616c:	a3 30 9d 00 70       	mov    %eax,0x70009d30
    6171:	0f 20 e0             	mov    %cr4,%eax
    6174:	a3 40 9d 00 70       	mov    %eax,0x70009d40
    6179:	0f 20 d8             	mov    %cr3,%eax
    617c:	a3 38 9d 00 70       	mov    %eax,0x70009d38
    6181:	8c 05 94 9d 00 70    	mov    %es,0x70009d94
    6187:	8c 0d 96 9d 00 70    	mov    %cs,0x70009d96
    618d:	8c 15 98 9d 00 70    	mov    %ss,0x70009d98
    6193:	8c 1d 9a 9d 00 70    	mov    %ds,0x70009d9a
    6199:	8c 25 9c 9d 00 70    	mov    %fs,0x70009d9c
    619f:	8c 2d 9e 9d 00 70    	mov    %gs,0x70009d9e
    61a5:	0f 00 0d a0 9d 00 70 	str    0x70009da0
    61ac:	b8 10 90 00 70       	mov    $0x70009010,%eax
    61b1:	ba 00 00 00 00       	mov    $0x0,%edx
    61b6:	a3 60 9d 00 70       	mov    %eax,0x70009d60
    61bb:	89 15 64 9d 00 70    	mov    %edx,0x70009d64
    61c1:	b8 40 90 00 70       	mov    $0x70009040,%eax
    61c6:	ba 00 00 00 00       	mov    $0x0,%edx
    61cb:	a3 68 9d 00 70       	mov    %eax,0x70009d68
    61d0:	89 15 6c 9d 00 70    	mov    %edx,0x70009d6c
    61d6:	b8 00 f0 00 70       	mov    $0x7000f000,%eax
    61db:	ba 00 00 00 00       	mov    $0x0,%edx
    61e0:	a3 58 9d 00 70       	mov    %eax,0x70009d58
    61e5:	89 15 5c 9d 00 70    	mov    %edx,0x70009d5c
    61eb:	b8 c0 28 00 70       	mov    $0x700028c0,%eax
    61f0:	ba 00 00 00 00       	mov    $0x0,%edx
    61f5:	a3 88 9d 00 70       	mov    %eax,0x70009d88
    61fa:	89 15 8c 9d 00 70    	mov    %edx,0x70009d8c
    6200:	b8 00 40 94 71       	mov    $0x71944000,%eax
    6205:	ba 00 00 00 00       	mov    $0x0,%edx
    620a:	05 00 40 00 00       	add    $0x4000,%eax
    620f:	83 d2 00             	adc    $0x0,%edx
    6212:	a3 80 9d 00 70       	mov    %eax,0x70009d80
    6217:	89 15 84 9d 00 70    	mov    %edx,0x70009d84
    621d:	b9 74 01 00 00       	mov    $0x174,%ecx
    6222:	0f 32                	rdmsr  
    6224:	a3 90 9d 00 70       	mov    %eax,0x70009d90
    6229:	41                   	inc    %ecx
    622a:	0f 32                	rdmsr  
    622c:	a3 70 9d 00 70       	mov    %eax,0x70009d70
    6231:	89 15 74 9d 00 70    	mov    %edx,0x70009d74
    6237:	41                   	inc    %ecx
    6238:	0f 32                	rdmsr  
    623a:	a3 78 9d 00 70       	mov    %eax,0x70009d78
    623f:	89 15 7c 9d 00 70    	mov    %edx,0x70009d7c
    6245:	b9 00 01 00 c0       	mov    $0xc0000100,%ecx
    624a:	0f 32                	rdmsr  
    624c:	a3 48 9d 00 70       	mov    %eax,0x70009d48
    6251:	89 15 4c 9d 00 70    	mov    %edx,0x70009d4c
    6257:	41                   	inc    %ecx
    6258:	0f 32                	rdmsr  
    625a:	a3 50 9d 00 70       	mov    %eax,0x70009d50
    625f:	89 15 54 9d 00 70    	mov    %edx,0x70009d54
    6265:	c7 85 5c ff ff ff 00 	movl   $0x70025000,-0xa4(%ebp)
    626c:	50 02 70 
    626f:	c7 85 64 ff ff ff 00 	movl   $0x0,-0x9c(%ebp)
    6276:	00 00 00 
    6279:	eb 2b                	jmp    62a6 <isl_prepareVMCS+0x17e>
    627b:	8b 85 64 ff ff ff    	mov    -0x9c(%ebp),%eax
    6281:	c1 e0 02             	shl    $0x2,%eax
    6284:	89 c2                	mov    %eax,%edx
    6286:	03 95 5c ff ff ff    	add    -0xa4(%ebp),%edx
    628c:	8b 85 64 ff ff ff    	mov    -0x9c(%ebp),%eax
    6292:	c1 e0 0c             	shl    $0xc,%eax
    6295:	05 00 60 02 70       	add    $0x70026000,%eax
    629a:	83 c8 07             	or     $0x7,%eax
    629d:	89 02                	mov    %eax,(%edx)
    629f:	83 85 64 ff ff ff 01 	addl   $0x1,-0x9c(%ebp)
    62a6:	81 bd 64 ff ff ff ff 	cmpl   $0x3ff,-0x9c(%ebp)
    62ad:	03 00 00 
    62b0:	76 c9                	jbe    627b <isl_prepareVMCS+0x153>
    62b2:	c7 85 60 ff ff ff 00 	movl   $0x70026000,-0xa0(%ebp)
    62b9:	60 02 70 
    62bc:	c7 85 64 ff ff ff 00 	movl   $0x0,-0x9c(%ebp)
    62c3:	00 00 00 
    62c6:	eb 32                	jmp    62fa <isl_prepareVMCS+0x1d2>
    62c8:	8b 85 64 ff ff ff    	mov    -0x9c(%ebp),%eax
    62ce:	c1 e0 0c             	shl    $0xc,%eax
    62d1:	89 85 68 ff ff ff    	mov    %eax,-0x98(%ebp)
    62d7:	8b 85 64 ff ff ff    	mov    -0x9c(%ebp),%eax
    62dd:	c1 e0 02             	shl    $0x2,%eax
    62e0:	89 c2                	mov    %eax,%edx
    62e2:	03 95 60 ff ff ff    	add    -0xa0(%ebp),%edx
    62e8:	8b 85 68 ff ff ff    	mov    -0x98(%ebp),%eax
    62ee:	83 c8 07             	or     $0x7,%eax
    62f1:	89 02                	mov    %eax,(%edx)
    62f3:	83 85 64 ff ff ff 01 	addl   $0x1,-0x9c(%ebp)
    62fa:	81 bd 64 ff ff ff ff 	cmpl   $0xfffff,-0x9c(%ebp)
    6301:	ff 0f 00 
    6304:	76 c2                	jbe    62c8 <isl_prepareVMCS+0x1a0>
    6306:	c7 44 24 08 00 10 00 	movl   $0x1000,0x8(%esp)
    630d:	00 
    630e:	c7 44 24 04 00 00 00 	movl   $0x0,0x4(%esp)
    6315:	00 
    6316:	c7 04 24 00 60 42 70 	movl   $0x70426000,(%esp)
    631d:	e8 82 1d 00 00       	call   80a4 <memset>
    6322:	c7 85 6c ff ff ff 00 	movl   $0x70426000,-0x94(%ebp)
    6329:	60 42 70 
    632c:	c7 85 7c ff ff ff c0 	movl   $0x700091c0,-0x84(%ebp)
    6333:	91 00 70 
    6336:	c7 45 80 00 00 00 00 	movl   $0x0,-0x80(%ebp)
    633d:	e9 47 01 00 00       	jmp    6489 <isl_prepareVMCS+0x361>
    6342:	83 7d 80 0d          	cmpl   $0xd,-0x80(%ebp)
    6346:	0f 85 98 00 00 00    	jne    63e4 <isl_prepareVMCS+0x2bc>
    634c:	b8 70 28 00 70       	mov    $0x70002870,%eax
    6351:	ba 00 00 00 00       	mov    $0x0,%edx
    6356:	89 85 70 ff ff ff    	mov    %eax,-0x90(%ebp)
    635c:	89 95 74 ff ff ff    	mov    %edx,-0x8c(%ebp)
    6362:	83 a5 70 ff ff ff ff 	andl   $0xffffffff,-0x90(%ebp)
    6369:	83 a5 74 ff ff ff 00 	andl   $0x0,-0x8c(%ebp)
    6370:	8b 85 70 ff ff ff    	mov    -0x90(%ebp),%eax
    6376:	8b 95 74 ff ff ff    	mov    -0x8c(%ebp),%edx
    637c:	89 c2                	mov    %eax,%edx
    637e:	b8 00 00 00 00       	mov    $0x0,%eax
    6383:	09 85 70 ff ff ff    	or     %eax,-0x90(%ebp)
    6389:	09 95 74 ff ff ff    	or     %edx,-0x8c(%ebp)
    638f:	81 a5 70 ff ff ff ff 	andl   $0xffff,-0x90(%ebp)
    6396:	ff 00 00 
    6399:	81 a5 74 ff ff ff 00 	andl   $0xffff0000,-0x8c(%ebp)
    63a0:	00 ff ff 
    63a3:	81 8d 70 ff ff ff 00 	orl    $0x40000,-0x90(%ebp)
    63aa:	00 04 00 
    63ad:	83 8d 74 ff ff ff 00 	orl    $0x0,-0x8c(%ebp)
    63b4:	83 8d 70 ff ff ff 00 	orl    $0x0,-0x90(%ebp)
    63bb:	81 8d 74 ff ff ff 00 	orl    $0xee00,-0x8c(%ebp)
    63c2:	ee 00 00 
    63c5:	8b 85 6c ff ff ff    	mov    -0x94(%ebp),%eax
    63cb:	8d 48 68             	lea    0x68(%eax),%ecx
    63ce:	8b 85 70 ff ff ff    	mov    -0x90(%ebp),%eax
    63d4:	8b 95 74 ff ff ff    	mov    -0x8c(%ebp),%edx
    63da:	89 01                	mov    %eax,(%ecx)
    63dc:	89 51 04             	mov    %edx,0x4(%ecx)
    63df:	e9 a1 00 00 00       	jmp    6485 <isl_prepareVMCS+0x35d>
    63e4:	8b 45 80             	mov    -0x80(%ebp),%eax
    63e7:	c1 e0 02             	shl    $0x2,%eax
    63ea:	03 85 7c ff ff ff    	add    -0x84(%ebp),%eax
    63f0:	8b 00                	mov    (%eax),%eax
    63f2:	ba 00 00 00 00       	mov    $0x0,%edx
    63f7:	89 85 70 ff ff ff    	mov    %eax,-0x90(%ebp)
    63fd:	89 95 74 ff ff ff    	mov    %edx,-0x8c(%ebp)
    6403:	83 a5 70 ff ff ff ff 	andl   $0xffffffff,-0x90(%ebp)
    640a:	83 a5 74 ff ff ff 00 	andl   $0x0,-0x8c(%ebp)
    6411:	8b 85 70 ff ff ff    	mov    -0x90(%ebp),%eax
    6417:	8b 95 74 ff ff ff    	mov    -0x8c(%ebp),%edx
    641d:	89 c2                	mov    %eax,%edx
    641f:	b8 00 00 00 00       	mov    $0x0,%eax
    6424:	09 85 70 ff ff ff    	or     %eax,-0x90(%ebp)
    642a:	09 95 74 ff ff ff    	or     %edx,-0x8c(%ebp)
    6430:	81 a5 70 ff ff ff ff 	andl   $0xffff,-0x90(%ebp)
    6437:	ff 00 00 
    643a:	81 a5 74 ff ff ff 00 	andl   $0xffff0000,-0x8c(%ebp)
    6441:	00 ff ff 
    6444:	81 8d 70 ff ff ff 00 	orl    $0x40000,-0x90(%ebp)
    644b:	00 04 00 
    644e:	83 8d 74 ff ff ff 00 	orl    $0x0,-0x8c(%ebp)
    6455:	83 8d 70 ff ff ff 00 	orl    $0x0,-0x90(%ebp)
    645c:	81 8d 74 ff ff ff 00 	orl    $0xee00,-0x8c(%ebp)
    6463:	ee 00 00 
    6466:	8b 45 80             	mov    -0x80(%ebp),%eax
    6469:	c1 e0 03             	shl    $0x3,%eax
    646c:	89 c1                	mov    %eax,%ecx
    646e:	03 8d 6c ff ff ff    	add    -0x94(%ebp),%ecx
    6474:	8b 85 70 ff ff ff    	mov    -0x90(%ebp),%eax
    647a:	8b 95 74 ff ff ff    	mov    -0x8c(%ebp),%edx
    6480:	89 01                	mov    %eax,(%ecx)
    6482:	89 51 04             	mov    %edx,0x4(%ecx)
    6485:	83 45 80 01          	addl   $0x1,-0x80(%ebp)
    6489:	81 7d 80 ff 00 00 00 	cmpl   $0xff,-0x80(%ebp)
    6490:	0f 86 ac fe ff ff    	jbe    6342 <isl_prepareVMCS+0x21a>
    6496:	c7 44 24 08 00 10 00 	movl   $0x1000,0x8(%esp)
    649d:	00 
    649e:	c7 44 24 04 00 00 00 	movl   $0x0,0x4(%esp)
    64a5:	00 
    64a6:	c7 04 24 00 70 42 70 	movl   $0x70427000,(%esp)
    64ad:	e8 f2 1b 00 00       	call   80a4 <memset>
    64b2:	c7 45 84 00 70 42 70 	movl   $0x70427000,-0x7c(%ebp)
    64b9:	b8 00 80 42 70       	mov    $0x70428000,%eax
    64be:	ba 00 00 00 00       	mov    $0x0,%edx
    64c3:	89 45 88             	mov    %eax,-0x78(%ebp)
    64c6:	89 55 8c             	mov    %edx,-0x74(%ebp)
    64c9:	8b 4d 88             	mov    -0x78(%ebp),%ecx
    64cc:	8b 5d 8c             	mov    -0x74(%ebp),%ebx
    64cf:	89 c8                	mov    %ecx,%eax
    64d1:	25 00 00 00 ff       	and    $0xff000000,%eax
    64d6:	89 da                	mov    %ebx,%edx
    64d8:	83 e2 00             	and    $0x0,%edx
    64db:	89 c3                	mov    %eax,%ebx
    64dd:	89 d6                	mov    %edx,%esi
    64df:	89 de                	mov    %ebx,%esi
    64e1:	bb 00 00 00 00       	mov    $0x0,%ebx
    64e6:	8b 4d 88             	mov    -0x78(%ebp),%ecx
    64e9:	8b 7d 8c             	mov    -0x74(%ebp),%edi
    64ec:	89 c8                	mov    %ecx,%eax
    64ee:	25 ff ff ff 00       	and    $0xffffff,%eax
    64f3:	89 fa                	mov    %edi,%edx
    64f5:	83 e2 00             	and    $0x0,%edx
    64f8:	0f a4 c2 10          	shld   $0x10,%eax,%edx
    64fc:	c1 e0 10             	shl    $0x10,%eax
    64ff:	89 d9                	mov    %ebx,%ecx
    6501:	09 c1                	or     %eax,%ecx
    6503:	89 4d 88             	mov    %ecx,-0x78(%ebp)
    6506:	89 f0                	mov    %esi,%eax
    6508:	09 d0                	or     %edx,%eax
    650a:	89 45 8c             	mov    %eax,-0x74(%ebp)
    650d:	81 4d 88 88 20 00 00 	orl    $0x2088,-0x78(%ebp)
    6514:	81 4d 8c 00 8b 00 00 	orl    $0x8b00,-0x74(%ebp)
    651b:	8b 45 84             	mov    -0x7c(%ebp),%eax
    651e:	8d 48 08             	lea    0x8(%eax),%ecx
    6521:	8b 45 88             	mov    -0x78(%ebp),%eax
    6524:	8b 55 8c             	mov    -0x74(%ebp),%edx
    6527:	89 01                	mov    %eax,(%ecx)
    6529:	89 51 04             	mov    %edx,0x4(%ecx)
    652c:	b8 00 c0 42 70       	mov    $0x7042c000,%eax
    6531:	ba 00 00 00 00       	mov    $0x0,%edx
    6536:	89 45 88             	mov    %eax,-0x78(%ebp)
    6539:	89 55 8c             	mov    %edx,-0x74(%ebp)
    653c:	8b 4d 88             	mov    -0x78(%ebp),%ecx
    653f:	8b 5d 8c             	mov    -0x74(%ebp),%ebx
    6542:	89 c8                	mov    %ecx,%eax
    6544:	25 00 00 00 ff       	and    $0xff000000,%eax
    6549:	89 da                	mov    %ebx,%edx
    654b:	83 e2 00             	and    $0x0,%edx
    654e:	89 c3                	mov    %eax,%ebx
    6550:	89 d6                	mov    %edx,%esi
    6552:	89 de                	mov    %ebx,%esi
    6554:	bb 00 00 00 00       	mov    $0x0,%ebx
    6559:	8b 4d 88             	mov    -0x78(%ebp),%ecx
    655c:	8b 7d 8c             	mov    -0x74(%ebp),%edi
    655f:	89 c8                	mov    %ecx,%eax
    6561:	25 ff ff ff 00       	and    $0xffffff,%eax
    6566:	89 fa                	mov    %edi,%edx
    6568:	83 e2 00             	and    $0x0,%edx
    656b:	0f a4 c2 10          	shld   $0x10,%eax,%edx
    656f:	c1 e0 10             	shl    $0x10,%eax
    6572:	89 d9                	mov    %ebx,%ecx
    6574:	09 c1                	or     %eax,%ecx
    6576:	89 4d 88             	mov    %ecx,-0x78(%ebp)
    6579:	89 f0                	mov    %esi,%eax
    657b:	09 d0                	or     %edx,%eax
    657d:	89 45 8c             	mov    %eax,-0x74(%ebp)
    6580:	83 4d 88 1f          	orl    $0x1f,-0x78(%ebp)
    6584:	81 4d 8c 00 82 00 00 	orl    $0x8200,-0x74(%ebp)
    658b:	8b 45 84             	mov    -0x7c(%ebp),%eax
    658e:	8d 48 10             	lea    0x10(%eax),%ecx
    6591:	8b 45 88             	mov    -0x78(%ebp),%eax
    6594:	8b 55 8c             	mov    -0x74(%ebp),%edx
    6597:	89 01                	mov    %eax,(%ecx)
    6599:	89 51 04             	mov    %edx,0x4(%ecx)
    659c:	c7 44 24 08 00 10 00 	movl   $0x1000,0x8(%esp)
    65a3:	00 
    65a4:	c7 44 24 04 00 00 00 	movl   $0x0,0x4(%esp)
    65ab:	00 
    65ac:	c7 04 24 00 c0 42 70 	movl   $0x7042c000,(%esp)
    65b3:	e8 ec 1a 00 00       	call   80a4 <memset>
    65b8:	c7 45 94 00 c0 42 70 	movl   $0x7042c000,-0x6c(%ebp)
    65bf:	c7 45 98 ff ff 00 00 	movl   $0xffff,-0x68(%ebp)
    65c6:	c7 45 9c 00 9a cf 00 	movl   $0xcf9a00,-0x64(%ebp)
    65cd:	8b 4d 94             	mov    -0x6c(%ebp),%ecx
    65d0:	8b 45 98             	mov    -0x68(%ebp),%eax
    65d3:	8b 55 9c             	mov    -0x64(%ebp),%edx
    65d6:	89 01                	mov    %eax,(%ecx)
    65d8:	89 51 04             	mov    %edx,0x4(%ecx)
    65db:	c7 45 98 ff ff 00 00 	movl   $0xffff,-0x68(%ebp)
    65e2:	c7 45 9c 00 92 cf 00 	movl   $0xcf9200,-0x64(%ebp)
    65e9:	8b 45 94             	mov    -0x6c(%ebp),%eax
    65ec:	8d 48 08             	lea    0x8(%eax),%ecx
    65ef:	8b 45 98             	mov    -0x68(%ebp),%eax
    65f2:	8b 55 9c             	mov    -0x64(%ebp),%edx
    65f5:	89 01                	mov    %eax,(%ecx)
    65f7:	89 51 04             	mov    %edx,0x4(%ecx)
    65fa:	c7 45 98 ff ff 00 80 	movl   $0x8000ffff,-0x68(%ebp)
    6601:	c7 45 9c 0b 92 00 00 	movl   $0x920b,-0x64(%ebp)
    6608:	8b 45 94             	mov    -0x6c(%ebp),%eax
    660b:	8d 48 10             	lea    0x10(%eax),%ecx
    660e:	8b 45 98             	mov    -0x68(%ebp),%eax
    6611:	8b 55 9c             	mov    -0x64(%ebp),%edx
    6614:	89 01                	mov    %eax,(%ecx)
    6616:	89 51 04             	mov    %edx,0x4(%ecx)
    6619:	c7 45 98 ff ff 00 00 	movl   $0xffff,-0x68(%ebp)
    6620:	c7 45 9c 00 92 cf 00 	movl   $0xcf9200,-0x64(%ebp)
    6627:	8b 45 94             	mov    -0x6c(%ebp),%eax
    662a:	8d 48 18             	lea    0x18(%eax),%ecx
    662d:	8b 45 98             	mov    -0x68(%ebp),%eax
    6630:	8b 55 9c             	mov    -0x64(%ebp),%edx
    6633:	89 01                	mov    %eax,(%ecx)
    6635:	89 51 04             	mov    %edx,0x4(%ecx)
    6638:	c7 44 24 08 00 40 00 	movl   $0x4000,0x8(%esp)
    663f:	00 
    6640:	c7 44 24 04 00 00 00 	movl   $0x0,0x4(%esp)
    6647:	00 
    6648:	c7 04 24 00 80 42 70 	movl   $0x70428000,(%esp)
    664f:	e8 50 1a 00 00       	call   80a4 <memset>
    6654:	c7 45 a0 00 80 42 70 	movl   $0x70428000,-0x60(%ebp)
    665b:	8b 45 a0             	mov    -0x60(%ebp),%eax
    665e:	c7 00 00 00 00 00    	movl   $0x0,(%eax)
    6664:	8b 45 a0             	mov    -0x60(%ebp),%eax
    6667:	8d 50 04             	lea    0x4(%eax),%edx
    666a:	b8 00 10 43 70       	mov    $0x70431000,%eax
    666f:	89 02                	mov    %eax,(%edx)
    6671:	8b 45 a0             	mov    -0x60(%ebp),%eax
    6674:	83 c0 08             	add    $0x8,%eax
    6677:	c7 00 1c 00 00 00    	movl   $0x1c,(%eax)
    667d:	8b 45 a0             	mov    -0x60(%ebp),%eax
    6680:	83 c0 64             	add    $0x64,%eax
    6683:	c7 00 00 00 88 00    	movl   $0x880000,(%eax)
    6689:	8b 45 a0             	mov    -0x60(%ebp),%eax
    668c:	05 88 20 00 00       	add    $0x2088,%eax
    6691:	c7 00 ff 00 00 00    	movl   $0xff,(%eax)
    6697:	66 c7 05 a0 9e 00 70 	movw   $0x0,0x70009ea0
    669e:	00 00 
    66a0:	66 c7 05 a2 9e 00 70 	movw   $0x0,0x70009ea2
    66a7:	00 00 
    66a9:	66 c7 05 a4 9e 00 70 	movw   $0x6000,0x70009ea4
    66b0:	00 60 
    66b2:	66 c7 05 a6 9e 00 70 	movw   $0x0,0x70009ea6
    66b9:	00 00 
    66bb:	66 c7 05 a8 9e 00 70 	movw   $0x0,0x70009ea8
    66c2:	00 00 
    66c4:	66 c7 05 aa 9e 00 70 	movw   $0x0,0x70009eaa
    66cb:	00 00 
    66cd:	c7 05 10 a0 00 70 00 	movl   $0x0,0x7000a010
    66d4:	00 00 00 
    66d7:	c7 05 14 a0 00 70 00 	movl   $0x0,0x7000a014
    66de:	00 00 00 
    66e1:	c7 05 18 a0 00 70 00 	movl   $0x0,0x7000a018
    66e8:	00 00 00 
    66eb:	c7 05 1c a0 00 70 00 	movl   $0x0,0x7000a01c
    66f2:	00 00 00 
    66f5:	c7 05 20 a0 00 70 00 	movl   $0x0,0x7000a020
    66fc:	00 00 00 
    66ff:	c7 05 24 a0 00 70 00 	movl   $0x0,0x7000a024
    6706:	00 00 00 
    6709:	c7 05 28 a0 00 70 00 	movl   $0x0,0x7000a028
    6710:	00 00 00 
    6713:	c7 05 18 9e 00 70 00 	movl   $0x4000,0x70009e18
    671a:	40 00 00 
    671d:	c7 05 1c 9e 00 70 00 	movl   $0x0,0x70009e1c
    6724:	00 00 00 
    6727:	c7 05 20 9e 00 70 00 	movl   $0x7c00,0x70009e20
    672e:	7c 00 00 
    6731:	c7 05 24 9e 00 70 00 	movl   $0x0,0x70009e24
    6738:	00 00 00 
    673b:	c7 05 28 9e 00 70 00 	movl   $0x0,0x70009e28
    6742:	00 00 00 
    6745:	c7 05 2c 9e 00 70 00 	movl   $0x0,0x70009e2c
    674c:	00 00 00 
    674f:	8b 0d 28 9e 00 70    	mov    0x70009e28,%ecx
    6755:	8b 1d 2c 9e 00 70    	mov    0x70009e2c,%ebx
    675b:	89 c8                	mov    %ecx,%eax
    675d:	25 d7 7f ff ff       	and    $0xffff7fd7,%eax
    6762:	89 da                	mov    %ebx,%edx
    6764:	80 e6 ff             	and    $0xff,%dh
    6767:	a3 28 9e 00 70       	mov    %eax,0x70009e28
    676c:	89 15 2c 9e 00 70    	mov    %edx,0x70009e2c
    6772:	8b 0d 28 9e 00 70    	mov    0x70009e28,%ecx
    6778:	8b 1d 2c 9e 00 70    	mov    0x70009e2c,%ebx
    677e:	89 c8                	mov    %ecx,%eax
    6780:	83 c8 02             	or     $0x2,%eax
    6783:	89 da                	mov    %ebx,%edx
    6785:	80 ce 00             	or     $0x0,%dh
    6788:	a3 28 9e 00 70       	mov    %eax,0x70009e28
    678d:	89 15 2c 9e 00 70    	mov    %edx,0x70009e2c
    6793:	8b 0d 28 9e 00 70    	mov    0x70009e28,%ecx
    6799:	8b 1d 2c 9e 00 70    	mov    0x70009e2c,%ebx
    679f:	89 c8                	mov    %ecx,%eax
    67a1:	0d 00 00 02 00       	or     $0x20000,%eax
    67a6:	89 da                	mov    %ebx,%edx
    67a8:	80 ce 00             	or     $0x0,%dh
    67ab:	a3 28 9e 00 70       	mov    %eax,0x70009e28
    67b0:	89 15 2c 9e 00 70    	mov    %edx,0x70009e2c
    67b6:	8b 0d 28 9e 00 70    	mov    0x70009e28,%ecx
    67bc:	8b 1d 2c 9e 00 70    	mov    0x70009e2c,%ebx
    67c2:	89 c8                	mov    %ecx,%eax
    67c4:	80 cc 30             	or     $0x30,%ah
    67c7:	89 da                	mov    %ebx,%edx
    67c9:	80 ce 00             	or     $0x0,%dh
    67cc:	a3 28 9e 00 70       	mov    %eax,0x70009e28
    67d1:	89 15 2c 9e 00 70    	mov    %edx,0x70009e2c
    67d7:	8b 0d 28 9e 00 70    	mov    0x70009e28,%ecx
    67dd:	8b 1d 2c 9e 00 70    	mov    0x70009e2c,%ebx
    67e3:	89 c8                	mov    %ecx,%eax
    67e5:	80 cc 02             	or     $0x2,%ah
    67e8:	89 da                	mov    %ebx,%edx
    67ea:	80 ce 00             	or     $0x0,%dh
    67ed:	a3 28 9e 00 70       	mov    %eax,0x70009e28
    67f2:	89 15 2c 9e 00 70    	mov    %edx,0x70009e2c
    67f8:	8b 0d 28 9e 00 70    	mov    0x70009e28,%ecx
    67fe:	8b 1d 2c 9e 00 70    	mov    0x70009e2c,%ebx
    6804:	89 c8                	mov    %ecx,%eax
    6806:	80 e4 bf             	and    $0xbf,%ah
    6809:	89 da                	mov    %ebx,%edx
    680b:	80 e6 ff             	and    $0xff,%dh
    680e:	a3 28 9e 00 70       	mov    %eax,0x70009e28
    6813:	89 15 2c 9e 00 70    	mov    %edx,0x70009e2c
    6819:	0f b7 05 a0 9e 00 70 	movzwl 0x70009ea0,%eax
    6820:	0f b7 c0             	movzwl %ax,%eax
    6823:	c1 e0 04             	shl    $0x4,%eax
    6826:	89 c2                	mov    %eax,%edx
    6828:	c1 fa 1f             	sar    $0x1f,%edx
    682b:	a3 c0 9d 00 70       	mov    %eax,0x70009dc0
    6830:	89 15 c4 9d 00 70    	mov    %edx,0x70009dc4
    6836:	0f b7 05 a2 9e 00 70 	movzwl 0x70009ea2,%eax
    683d:	0f b7 c0             	movzwl %ax,%eax
    6840:	c1 e0 04             	shl    $0x4,%eax
    6843:	89 c2                	mov    %eax,%edx
    6845:	c1 fa 1f             	sar    $0x1f,%edx
    6848:	a3 c8 9d 00 70       	mov    %eax,0x70009dc8
    684d:	89 15 cc 9d 00 70    	mov    %edx,0x70009dcc
    6853:	0f b7 05 a4 9e 00 70 	movzwl 0x70009ea4,%eax
    685a:	0f b7 c0             	movzwl %ax,%eax
    685d:	c1 e0 04             	shl    $0x4,%eax
    6860:	89 c2                	mov    %eax,%edx
    6862:	c1 fa 1f             	sar    $0x1f,%edx
    6865:	a3 d0 9d 00 70       	mov    %eax,0x70009dd0
    686a:	89 15 d4 9d 00 70    	mov    %edx,0x70009dd4
    6870:	0f b7 05 a6 9e 00 70 	movzwl 0x70009ea6,%eax
    6877:	0f b7 c0             	movzwl %ax,%eax
    687a:	c1 e0 04             	shl    $0x4,%eax
    687d:	89 c2                	mov    %eax,%edx
    687f:	c1 fa 1f             	sar    $0x1f,%edx
    6882:	a3 d8 9d 00 70       	mov    %eax,0x70009dd8
    6887:	89 15 dc 9d 00 70    	mov    %edx,0x70009ddc
    688d:	0f b7 05 a8 9e 00 70 	movzwl 0x70009ea8,%eax
    6894:	0f b7 c0             	movzwl %ax,%eax
    6897:	c1 e0 04             	shl    $0x4,%eax
    689a:	89 c2                	mov    %eax,%edx
    689c:	c1 fa 1f             	sar    $0x1f,%edx
    689f:	a3 e0 9d 00 70       	mov    %eax,0x70009de0
    68a4:	89 15 e4 9d 00 70    	mov    %edx,0x70009de4
    68aa:	0f b7 05 aa 9e 00 70 	movzwl 0x70009eaa,%eax
    68b1:	0f b7 c0             	movzwl %ax,%eax
    68b4:	c1 e0 04             	shl    $0x4,%eax
    68b7:	89 c2                	mov    %eax,%edx
    68b9:	c1 fa 1f             	sar    $0x1f,%edx
    68bc:	a3 e8 9d 00 70       	mov    %eax,0x70009de8
    68c1:	89 15 ec 9d 00 70    	mov    %edx,0x70009dec
    68c7:	c7 05 48 9e 00 70 ff 	movl   $0xffff,0x70009e48
    68ce:	ff 00 00 
    68d1:	c7 05 4c 9e 00 70 ff 	movl   $0xffff,0x70009e4c
    68d8:	ff 00 00 
    68db:	c7 05 50 9e 00 70 ff 	movl   $0xffff,0x70009e50
    68e2:	ff 00 00 
    68e5:	c7 05 54 9e 00 70 ff 	movl   $0xffff,0x70009e54
    68ec:	ff 00 00 
    68ef:	c7 05 58 9e 00 70 ff 	movl   $0xffff,0x70009e58
    68f6:	ff 00 00 
    68f9:	c7 05 5c 9e 00 70 ff 	movl   $0xffff,0x70009e5c
    6900:	ff 00 00 
    6903:	c7 05 70 9e 00 70 f3 	movl   $0xf3,0x70009e70
    690a:	00 00 00 
    690d:	c7 05 74 9e 00 70 f3 	movl   $0xf3,0x70009e74
    6914:	00 00 00 
    6917:	c7 05 78 9e 00 70 f3 	movl   $0xf3,0x70009e78
    691e:	00 00 00 
    6921:	c7 05 7c 9e 00 70 f3 	movl   $0xf3,0x70009e7c
    6928:	00 00 00 
    692b:	c7 05 80 9e 00 70 f3 	movl   $0xf3,0x70009e80
    6932:	00 00 00 
    6935:	c7 05 84 9e 00 70 f3 	movl   $0xf3,0x70009e84
    693c:	00 00 00 
    693f:	a1 80 9f 00 70       	mov    0x70009f80,%eax
    6944:	8b 15 84 9f 00 70    	mov    0x70009f84,%edx
    694a:	a3 a8 9d 00 70       	mov    %eax,0x70009da8
    694f:	89 15 ac 9d 00 70    	mov    %edx,0x70009dac
    6955:	a1 90 9f 00 70       	mov    0x70009f90,%eax
    695a:	8b 15 94 9f 00 70    	mov    0x70009f94,%edx
    6960:	a3 b8 9d 00 70       	mov    %eax,0x70009db8
    6965:	89 15 bc 9d 00 70    	mov    %edx,0x70009dbc
    696b:	b8 00 50 02 70       	mov    $0x70025000,%eax
    6970:	ba 00 00 00 00       	mov    $0x0,%edx
    6975:	a3 b0 9d 00 70       	mov    %eax,0x70009db0
    697a:	89 15 b4 9d 00 70    	mov    %edx,0x70009db4
    6980:	c7 05 b0 9e 00 70 ff 	movl   $0xffffffff,0x70009eb0
    6987:	ff ff ff 
    698a:	c7 05 b4 9e 00 70 ff 	movl   $0xffffffff,0x70009eb4
    6991:	ff ff ff 
    6994:	b8 00 60 42 70       	mov    $0x70426000,%eax
    6999:	ba 00 00 00 00       	mov    $0x0,%edx
    699e:	a3 08 9e 00 70       	mov    %eax,0x70009e08
    69a3:	89 15 0c 9e 00 70    	mov    %edx,0x70009e0c
    69a9:	b8 00 70 42 70       	mov    $0x70427000,%eax
    69ae:	ba 00 00 00 00       	mov    $0x0,%edx
    69b3:	a3 00 9e 00 70       	mov    %eax,0x70009e00
    69b8:	89 15 04 9e 00 70    	mov    %edx,0x70009e04
    69be:	b8 00 c0 42 70       	mov    $0x7042c000,%eax
    69c3:	ba 00 00 00 00       	mov    $0x0,%edx
    69c8:	a3 f0 9d 00 70       	mov    %eax,0x70009df0
    69cd:	89 15 f4 9d 00 70    	mov    %edx,0x70009df4
    69d3:	b8 00 80 42 70       	mov    $0x70428000,%eax
    69d8:	ba 00 00 00 00       	mov    $0x0,%edx
    69dd:	a3 f8 9d 00 70       	mov    %eax,0x70009df8
    69e2:	89 15 fc 9d 00 70    	mov    %edx,0x70009dfc
    69e8:	c7 05 6c 9e 00 70 ff 	movl   $0x7ff,0x70009e6c
    69ef:	07 00 00 
    69f2:	c7 05 68 9e 00 70 17 	movl   $0x17,0x70009e68
    69f9:	00 00 00 
    69fc:	c7 05 60 9e 00 70 1f 	movl   $0x1f,0x70009e60
    6a03:	00 00 00 
    6a06:	c7 05 64 9e 00 70 88 	movl   $0x2088,0x70009e64
    6a0d:	20 00 00 
    6a10:	c7 05 88 9e 00 70 82 	movl   $0x82,0x70009e88
    6a17:	00 00 00 
    6a1a:	c7 05 8c 9e 00 70 8b 	movl   $0x8b,0x70009e8c
    6a21:	00 00 00 
    6a24:	66 c7 05 ac 9e 00 70 	movw   $0x10,0x70009eac
    6a2b:	10 00 
    6a2d:	66 c7 05 ae 9e 00 70 	movw   $0x8,0x70009eae
    6a34:	08 00 
    6a36:	a1 58 9f 00 70       	mov    0x70009f58,%eax
    6a3b:	8b 15 5c 9f 00 70    	mov    0x70009f5c,%edx
    6a41:	a3 68 9c 00 70       	mov    %eax,0x70009c68
    6a46:	a1 60 9f 00 70       	mov    0x70009f60,%eax
    6a4b:	8b 15 64 9f 00 70    	mov    0x70009f64,%edx
    6a51:	a3 6c 9c 00 70       	mov    %eax,0x70009c6c
    6a56:	a1 68 9f 00 70       	mov    0x70009f68,%eax
    6a5b:	8b 15 6c 9f 00 70    	mov    0x70009f6c,%edx
    6a61:	a3 80 9c 00 70       	mov    %eax,0x70009c80
    6a66:	a1 70 9f 00 70       	mov    0x70009f70,%eax
    6a6b:	8b 15 74 9f 00 70    	mov    0x70009f74,%edx
    6a71:	a3 8c 9c 00 70       	mov    %eax,0x70009c8c
    6a76:	a1 6c 9c 00 70       	mov    0x70009c6c,%eax
    6a7b:	0c 80                	or     $0x80,%al
    6a7d:	a3 6c 9c 00 70       	mov    %eax,0x70009c6c
    6a82:	a1 80 9f 00 70       	mov    0x70009f80,%eax
    6a87:	8b 15 84 9f 00 70    	mov    0x70009f84,%edx
    6a8d:	a3 a8 9c 00 70       	mov    %eax,0x70009ca8
    6a92:	89 15 ac 9c 00 70    	mov    %edx,0x70009cac
    6a98:	c7 05 b8 9c 00 70 20 	movl   $0x20,0x70009cb8
    6a9f:	00 00 00 
    6aa2:	c7 05 bc 9c 00 70 00 	movl   $0x0,0x70009cbc
    6aa9:	00 00 00 
    6aac:	c7 45 ac 00 a0 c3 70 	movl   $0x70c3a000,-0x54(%ebp)
    6ab3:	c7 45 b0 00 c0 c3 70 	movl   $0x70c3c000,-0x50(%ebp)
    6aba:	c7 04 24 43 5f 00 70 	movl   $0x70005f43,(%esp)
    6ac1:	e8 b2 22 00 00       	call   8d78 <printf>
    6ac6:	c7 45 a4 00 00 00 00 	movl   $0x0,-0x5c(%ebp)
    6acd:	e9 e8 00 00 00       	jmp    6bba <isl_prepareVMCS+0xa92>
    6ad2:	8b 45 ac             	mov    -0x54(%ebp),%eax
    6ad5:	89 45 b4             	mov    %eax,-0x4c(%ebp)
    6ad8:	8b 45 b0             	mov    -0x50(%ebp),%eax
    6adb:	89 45 b8             	mov    %eax,-0x48(%ebp)
    6ade:	8b 45 a4             	mov    -0x5c(%ebp),%eax
    6ae1:	8b 04 85 1c 5f 00 70 	mov    0x70005f1c(,%eax,4),%eax
    6ae8:	89 45 a8             	mov    %eax,-0x58(%ebp)
    6aeb:	8d 85 54 ff ff ff    	lea    -0xac(%ebp),%eax
    6af1:	89 44 24 08          	mov    %eax,0x8(%esp)
    6af5:	8d 85 58 ff ff ff    	lea    -0xa8(%ebp),%eax
    6afb:	89 44 24 04          	mov    %eax,0x4(%esp)
    6aff:	8b 45 a8             	mov    -0x58(%ebp),%eax
    6b02:	89 04 24             	mov    %eax,(%esp)
    6b05:	e8 c6 14 00 00       	call   7fd0 <rdmsr>
    6b0a:	8b 55 b8             	mov    -0x48(%ebp),%edx
    6b0d:	8b 45 a8             	mov    -0x58(%ebp),%eax
    6b10:	89 02                	mov    %eax,(%edx)
    6b12:	8b 45 b8             	mov    -0x48(%ebp),%eax
    6b15:	8b 10                	mov    (%eax),%edx
    6b17:	8b 45 b4             	mov    -0x4c(%ebp),%eax
    6b1a:	89 10                	mov    %edx,(%eax)
    6b1c:	8b 85 54 ff ff ff    	mov    -0xac(%ebp),%eax
    6b22:	ba 00 00 00 00       	mov    $0x0,%edx
    6b27:	89 c6                	mov    %eax,%esi
    6b29:	89 d7                	mov    %edx,%edi
    6b2b:	89 f7                	mov    %esi,%edi
    6b2d:	be 00 00 00 00       	mov    $0x0,%esi
    6b32:	8b 85 58 ff ff ff    	mov    -0xa8(%ebp),%eax
    6b38:	89 c1                	mov    %eax,%ecx
    6b3a:	bb 00 00 00 00       	mov    $0x0,%ebx
    6b3f:	89 f0                	mov    %esi,%eax
    6b41:	09 c8                	or     %ecx,%eax
    6b43:	89 fa                	mov    %edi,%edx
    6b45:	09 da                	or     %ebx,%edx
    6b47:	8b 4d b8             	mov    -0x48(%ebp),%ecx
    6b4a:	89 41 08             	mov    %eax,0x8(%ecx)
    6b4d:	89 51 0c             	mov    %edx,0xc(%ecx)
    6b50:	8b 45 b8             	mov    -0x48(%ebp),%eax
    6b53:	8b 50 0c             	mov    0xc(%eax),%edx
    6b56:	8b 40 08             	mov    0x8(%eax),%eax
    6b59:	8b 4d b4             	mov    -0x4c(%ebp),%ecx
    6b5c:	89 41 08             	mov    %eax,0x8(%ecx)
    6b5f:	89 51 0c             	mov    %edx,0xc(%ecx)
    6b62:	8b 45 b4             	mov    -0x4c(%ebp),%eax
    6b65:	8b 50 08             	mov    0x8(%eax),%edx
    6b68:	8b 48 0c             	mov    0xc(%eax),%ecx
    6b6b:	8b 45 b4             	mov    -0x4c(%ebp),%eax
    6b6e:	8b 00                	mov    (%eax),%eax
    6b70:	89 54 24 08          	mov    %edx,0x8(%esp)
    6b74:	89 4c 24 0c          	mov    %ecx,0xc(%esp)
    6b78:	89 44 24 04          	mov    %eax,0x4(%esp)
    6b7c:	c7 04 24 60 5f 00 70 	movl   $0x70005f60,(%esp)
    6b83:	e8 f0 21 00 00       	call   8d78 <printf>
    6b88:	8b 45 b8             	mov    -0x48(%ebp),%eax
    6b8b:	8b 50 08             	mov    0x8(%eax),%edx
    6b8e:	8b 48 0c             	mov    0xc(%eax),%ecx
    6b91:	8b 45 b8             	mov    -0x48(%ebp),%eax
    6b94:	8b 00                	mov    (%eax),%eax
    6b96:	89 54 24 08          	mov    %edx,0x8(%esp)
    6b9a:	89 4c 24 0c          	mov    %ecx,0xc(%esp)
    6b9e:	89 44 24 04          	mov    %eax,0x4(%esp)
    6ba2:	c7 04 24 8c 5f 00 70 	movl   $0x70005f8c,(%esp)
    6ba9:	e8 ca 21 00 00       	call   8d78 <printf>
    6bae:	83 45 ac 10          	addl   $0x10,-0x54(%ebp)
    6bb2:	83 45 b0 10          	addl   $0x10,-0x50(%ebp)
    6bb6:	83 45 a4 01          	addl   $0x1,-0x5c(%ebp)
    6bba:	83 7d a4 01          	cmpl   $0x1,-0x5c(%ebp)
    6bbe:	0f 86 0e ff ff ff    	jbe    6ad2 <isl_prepareVMCS+0x9aa>
    6bc4:	b8 00 a0 c3 70       	mov    $0x70c3a000,%eax
    6bc9:	a3 08 9d 00 70       	mov    %eax,0x70009d08
    6bce:	c7 05 0c 9d 00 70 00 	movl   $0x0,0x70009d0c
    6bd5:	00 00 00 
    6bd8:	c7 05 88 9c 00 70 02 	movl   $0x2,0x70009c88
    6bdf:	00 00 00 
    6be2:	b8 00 c0 c3 70       	mov    $0x70c3c000,%eax
    6be7:	a3 10 9d 00 70       	mov    %eax,0x70009d10
    6bec:	c7 05 14 9d 00 70 00 	movl   $0x0,0x70009d14
    6bf3:	00 00 00 
    6bf6:	c7 05 90 9c 00 70 02 	movl   $0x2,0x70009c90
    6bfd:	00 00 00 
    6c00:	b8 00 c0 c3 70       	mov    $0x70c3c000,%eax
    6c05:	a3 00 9d 00 70       	mov    %eax,0x70009d00
    6c0a:	c7 05 04 9d 00 70 00 	movl   $0x0,0x70009d04
    6c11:	00 00 00 
    6c14:	c7 05 84 9c 00 70 02 	movl   $0x2,0x70009c84
    6c1b:	00 00 00 
    6c1e:	c7 05 74 9c 00 70 00 	movl   $0x0,0x70009c74
    6c25:	00 00 00 
    6c28:	c7 05 78 9c 00 70 00 	movl   $0x0,0x70009c78
    6c2f:	00 00 00 
    6c32:	c7 05 70 9c 00 70 00 	movl   $0x0,0x70009c70
    6c39:	00 00 00 
    6c3c:	c7 05 7c 9c 00 70 00 	movl   $0x0,0x70009c7c
    6c43:	00 00 00 
    6c46:	8b 0d 90 9f 00 70    	mov    0x70009f90,%ecx
    6c4c:	8b 1d 94 9f 00 70    	mov    0x70009f94,%ebx
    6c52:	89 c8                	mov    %ecx,%eax
    6c54:	83 c8 20             	or     $0x20,%eax
    6c57:	89 da                	mov    %ebx,%edx
    6c59:	80 ce 00             	or     $0x0,%dh
    6c5c:	a3 b0 9c 00 70       	mov    %eax,0x70009cb0
    6c61:	89 15 b4 9c 00 70    	mov    %edx,0x70009cb4
    6c67:	c7 05 c0 9c 00 70 00 	movl   $0x2000,0x70009cc0
    6c6e:	20 00 00 
    6c71:	c7 05 c4 9c 00 70 00 	movl   $0x0,0x70009cc4
    6c78:	00 00 00 
    6c7b:	a1 6c 9c 00 70       	mov    0x70009c6c,%eax
    6c80:	80 e4 7f             	and    $0x7f,%ah
    6c83:	a3 6c 9c 00 70       	mov    %eax,0x70009c6c
    6c88:	a1 6c 9c 00 70       	mov    0x70009c6c,%eax
    6c8d:	25 ff ff fe ff       	and    $0xfffeffff,%eax
    6c92:	a3 6c 9c 00 70       	mov    %eax,0x70009c6c
    6c97:	8b 45 0c             	mov    0xc(%ebp),%eax
    6c9a:	89 85 4c ff ff ff    	mov    %eax,-0xb4(%ebp)
    6ca0:	e9 1a 13 00 00       	jmp    7fbf <isl_prepareVMCS+0x1e97>
    6ca5:	83 7d 08 01          	cmpl   $0x1,0x8(%ebp)
    6ca9:	0f 85 e8 05 00 00    	jne    7297 <isl_prepareVMCS+0x116f>
    6caf:	83 7d 0c 02          	cmpl   $0x2,0xc(%ebp)
    6cb3:	74 2b                	je     6ce0 <isl_prepareVMCS+0xbb8>
    6cb5:	83 7d 0c 22          	cmpl   $0x22,0xc(%ebp)
    6cb9:	74 25                	je     6ce0 <isl_prepareVMCS+0xbb8>
    6cbb:	c7 44 24 0c 81 42 00 	movl   $0x70004281,0xc(%esp)
    6cc2:	70 
    6cc3:	c7 44 24 08 9d 04 00 	movl   $0x49d,0x8(%esp)
    6cca:	00 
    6ccb:	c7 44 24 04 bc 5f 00 	movl   $0x70005fbc,0x4(%esp)
    6cd2:	70 
    6cd3:	c7 04 24 10 43 00 70 	movl   $0x70004310,(%esp)
    6cda:	e8 99 20 00 00       	call   8d78 <printf>
    6cdf:	f4                   	hlt    
    6ce0:	a1 6c 9c 00 70       	mov    0x70009c6c,%eax
    6ce5:	24 7f                	and    $0x7f,%al
    6ce7:	a3 6c 9c 00 70       	mov    %eax,0x70009c6c
    6cec:	a1 70 9c 00 70       	mov    0x70009c70,%eax
    6cf1:	80 cc 20             	or     $0x20,%ah
    6cf4:	a3 70 9c 00 70       	mov    %eax,0x70009c70
    6cf9:	c7 44 24 08 00 00 00 	movl   $0x0,0x8(%esp)
    6d00:	00 
    6d01:	c7 44 24 04 00 20 00 	movl   $0x2000,0x4(%esp)
    6d08:	00 
    6d09:	c7 04 24 00 10 43 70 	movl   $0x70431000,(%esp)
    6d10:	e8 8f 13 00 00       	call   80a4 <memset>
    6d15:	c7 45 bc 00 10 43 70 	movl   $0x70431000,-0x44(%ebp)
    6d1c:	a1 40 96 00 70       	mov    0x70009640,%eax
    6d21:	85 c0                	test   %eax,%eax
    6d23:	74 0c                	je     6d31 <isl_prepareVMCS+0xc09>
    6d25:	0f b7 05 44 96 00 70 	movzwl 0x70009644,%eax
    6d2c:	66 85 c0             	test   %ax,%ax
    6d2f:	75 25                	jne    6d56 <isl_prepareVMCS+0xc2e>
    6d31:	c7 44 24 0c 81 42 00 	movl   $0x70004281,0xc(%esp)
    6d38:	70 
    6d39:	c7 44 24 08 b6 04 00 	movl   $0x4b6,0x8(%esp)
    6d40:	00 
    6d41:	c7 44 24 04 24 60 00 	movl   $0x70006024,0x4(%esp)
    6d48:	70 
    6d49:	c7 04 24 10 43 00 70 	movl   $0x70004310,(%esp)
    6d50:	e8 23 20 00 00       	call   8d78 <printf>
    6d55:	f4                   	hlt    
    6d56:	0f b7 05 44 96 00 70 	movzwl 0x70009644,%eax
    6d5d:	83 c0 09             	add    $0x9,%eax
    6d60:	66 a3 a2 9e 00 70    	mov    %ax,0x70009ea2
    6d66:	0f b7 05 44 96 00 70 	movzwl 0x70009644,%eax
    6d6d:	83 c0 11             	add    $0x11,%eax
    6d70:	66 a3 a4 9e 00 70    	mov    %ax,0x70009ea4
    6d76:	0f b7 05 44 96 00 70 	movzwl 0x70009644,%eax
    6d7d:	83 c0 19             	add    $0x19,%eax
    6d80:	66 a3 ae 9e 00 70    	mov    %ax,0x70009eae
    6d86:	a1 78 96 00 70       	mov    0x70009678,%eax
    6d8b:	c1 e0 04             	shl    $0x4,%eax
    6d8e:	ba 00 00 00 00       	mov    $0x0,%edx
    6d93:	89 45 c0             	mov    %eax,-0x40(%ebp)
    6d96:	89 55 c4             	mov    %edx,-0x3c(%ebp)
    6d99:	8b 4d c0             	mov    -0x40(%ebp),%ecx
    6d9c:	8b 5d c4             	mov    -0x3c(%ebp),%ebx
    6d9f:	89 c8                	mov    %ecx,%eax
    6da1:	25 00 00 00 ff       	and    $0xff000000,%eax
    6da6:	89 da                	mov    %ebx,%edx
    6da8:	83 e2 00             	and    $0x0,%edx
    6dab:	89 c3                	mov    %eax,%ebx
    6dad:	89 d6                	mov    %edx,%esi
    6daf:	89 de                	mov    %ebx,%esi
    6db1:	bb 00 00 00 00       	mov    $0x0,%ebx
    6db6:	8b 4d c0             	mov    -0x40(%ebp),%ecx
    6db9:	8b 7d c4             	mov    -0x3c(%ebp),%edi
    6dbc:	89 c8                	mov    %ecx,%eax
    6dbe:	25 ff ff ff 00       	and    $0xffffff,%eax
    6dc3:	89 fa                	mov    %edi,%edx
    6dc5:	83 e2 00             	and    $0x0,%edx
    6dc8:	0f a4 c2 10          	shld   $0x10,%eax,%edx
    6dcc:	c1 e0 10             	shl    $0x10,%eax
    6dcf:	89 d9                	mov    %ebx,%ecx
    6dd1:	09 c1                	or     %eax,%ecx
    6dd3:	89 4d c0             	mov    %ecx,-0x40(%ebp)
    6dd6:	89 f0                	mov    %esi,%eax
    6dd8:	09 d0                	or     %edx,%eax
    6dda:	89 45 c4             	mov    %eax,-0x3c(%ebp)
    6ddd:	81 4d c0 ff ff 00 00 	orl    $0xffff,-0x40(%ebp)
    6de4:	81 4d c4 00 9b 00 00 	orl    $0x9b00,-0x3c(%ebp)
    6deb:	0f b7 05 a2 9e 00 70 	movzwl 0x70009ea2,%eax
    6df2:	66 c1 e8 03          	shr    $0x3,%ax
    6df6:	0f b7 c0             	movzwl %ax,%eax
    6df9:	c1 e0 03             	shl    $0x3,%eax
    6dfc:	89 c1                	mov    %eax,%ecx
    6dfe:	03 4d bc             	add    -0x44(%ebp),%ecx
    6e01:	8b 45 c0             	mov    -0x40(%ebp),%eax
    6e04:	8b 55 c4             	mov    -0x3c(%ebp),%edx
    6e07:	89 01                	mov    %eax,(%ecx)
    6e09:	89 51 04             	mov    %edx,0x4(%ecx)
    6e0c:	a1 7c 96 00 70       	mov    0x7000967c,%eax
    6e11:	c1 e0 04             	shl    $0x4,%eax
    6e14:	ba 00 00 00 00       	mov    $0x0,%edx
    6e19:	89 45 c0             	mov    %eax,-0x40(%ebp)
    6e1c:	89 55 c4             	mov    %edx,-0x3c(%ebp)
    6e1f:	8b 4d c0             	mov    -0x40(%ebp),%ecx
    6e22:	8b 5d c4             	mov    -0x3c(%ebp),%ebx
    6e25:	89 c8                	mov    %ecx,%eax
    6e27:	25 00 00 00 ff       	and    $0xff000000,%eax
    6e2c:	89 da                	mov    %ebx,%edx
    6e2e:	83 e2 00             	and    $0x0,%edx
    6e31:	89 c3                	mov    %eax,%ebx
    6e33:	89 d6                	mov    %edx,%esi
    6e35:	89 de                	mov    %ebx,%esi
    6e37:	bb 00 00 00 00       	mov    $0x0,%ebx
    6e3c:	8b 4d c0             	mov    -0x40(%ebp),%ecx
    6e3f:	8b 7d c4             	mov    -0x3c(%ebp),%edi
    6e42:	89 c8                	mov    %ecx,%eax
    6e44:	25 ff ff ff 00       	and    $0xffffff,%eax
    6e49:	89 fa                	mov    %edi,%edx
    6e4b:	83 e2 00             	and    $0x0,%edx
    6e4e:	0f a4 c2 10          	shld   $0x10,%eax,%edx
    6e52:	c1 e0 10             	shl    $0x10,%eax
    6e55:	89 d9                	mov    %ebx,%ecx
    6e57:	09 c1                	or     %eax,%ecx
    6e59:	89 4d c0             	mov    %ecx,-0x40(%ebp)
    6e5c:	89 f0                	mov    %esi,%eax
    6e5e:	09 d0                	or     %edx,%eax
    6e60:	89 45 c4             	mov    %eax,-0x3c(%ebp)
    6e63:	81 4d c0 ff ff 00 00 	orl    $0xffff,-0x40(%ebp)
    6e6a:	81 4d c4 00 93 00 00 	orl    $0x9300,-0x3c(%ebp)
    6e71:	0f b7 05 a4 9e 00 70 	movzwl 0x70009ea4,%eax
    6e78:	66 c1 e8 03          	shr    $0x3,%ax
    6e7c:	0f b7 c0             	movzwl %ax,%eax
    6e7f:	c1 e0 03             	shl    $0x3,%eax
    6e82:	89 c1                	mov    %eax,%ecx
    6e84:	03 4d bc             	add    -0x44(%ebp),%ecx
    6e87:	8b 45 c0             	mov    -0x40(%ebp),%eax
    6e8a:	8b 55 c4             	mov    -0x3c(%ebp),%edx
    6e8d:	89 01                	mov    %eax,(%ecx)
    6e8f:	89 51 04             	mov    %edx,0x4(%ecx)
    6e92:	b8 00 10 43 70       	mov    $0x70431000,%eax
    6e97:	ba 00 00 00 00       	mov    $0x0,%edx
    6e9c:	a3 00 9e 00 70       	mov    %eax,0x70009e00
    6ea1:	89 15 04 9e 00 70    	mov    %edx,0x70009e04
    6ea7:	c7 05 68 9e 00 70 ff 	movl   $0x1fff,0x70009e68
    6eae:	1f 00 00 
    6eb1:	a1 80 97 00 70       	mov    0x70009780,%eax
    6eb6:	83 f8 01             	cmp    $0x1,%eax
    6eb9:	75 6e                	jne    6f29 <isl_prepareVMCS+0xe01>
    6ebb:	0f b7 05 90 97 00 70 	movzwl 0x70009790,%eax
    6ec2:	66 a3 ae 9e 00 70    	mov    %ax,0x70009eae
    6ec8:	a1 84 97 00 70       	mov    0x70009784,%eax
    6ecd:	ba 00 00 00 00       	mov    $0x0,%edx
    6ed2:	a3 f8 9d 00 70       	mov    %eax,0x70009df8
    6ed7:	89 15 fc 9d 00 70    	mov    %edx,0x70009dfc
    6edd:	a1 8c 97 00 70       	mov    0x7000978c,%eax
    6ee2:	a3 64 9e 00 70       	mov    %eax,0x70009e64
    6ee7:	a1 88 97 00 70       	mov    0x70009788,%eax
    6eec:	a3 8c 9e 00 70       	mov    %eax,0x70009e8c
    6ef1:	0f b7 05 a0 97 00 70 	movzwl 0x700097a0,%eax
    6ef8:	66 a3 ac 9e 00 70    	mov    %ax,0x70009eac
    6efe:	a1 94 97 00 70       	mov    0x70009794,%eax
    6f03:	ba 00 00 00 00       	mov    $0x0,%edx
    6f08:	a3 f0 9d 00 70       	mov    %eax,0x70009df0
    6f0d:	89 15 f4 9d 00 70    	mov    %edx,0x70009df4
    6f13:	a1 9c 97 00 70       	mov    0x7000979c,%eax
    6f18:	a3 60 9e 00 70       	mov    %eax,0x70009e60
    6f1d:	a1 98 97 00 70       	mov    0x70009798,%eax
    6f22:	a3 88 9e 00 70       	mov    %eax,0x70009e88
    6f27:	eb 31                	jmp    6f5a <isl_prepareVMCS+0xe32>
    6f29:	66 c7 05 ac 9e 00 70 	movw   $0x0,0x70009eac
    6f30:	00 00 
    6f32:	c7 05 f0 9d 00 70 00 	movl   $0x0,0x70009df0
    6f39:	00 00 00 
    6f3c:	c7 05 f4 9d 00 70 00 	movl   $0x0,0x70009df4
    6f43:	00 00 00 
    6f46:	c7 05 60 9e 00 70 00 	movl   $0x0,0x70009e60
    6f4d:	00 00 00 
    6f50:	c7 05 88 9e 00 70 00 	movl   $0x10000,0x70009e88
    6f57:	00 01 00 
    6f5a:	b8 00 50 02 70       	mov    $0x70025000,%eax
    6f5f:	ba 00 00 00 00       	mov    $0x0,%edx
    6f64:	a3 b0 9d 00 70       	mov    %eax,0x70009db0
    6f69:	89 15 b4 9d 00 70    	mov    %edx,0x70009db4
    6f6f:	c7 05 08 9e 00 70 00 	movl   $0x0,0x70009e08
    6f76:	00 00 00 
    6f79:	c7 05 0c 9e 00 70 00 	movl   $0x0,0x70009e0c
    6f80:	00 00 00 
    6f83:	c7 05 6c 9e 00 70 00 	movl   $0x0,0x70009e6c
    6f8a:	00 00 00 
    6f8d:	a1 84 96 00 70       	mov    0x70009684,%eax
    6f92:	ba 00 00 00 00       	mov    $0x0,%edx
    6f97:	a3 b8 9d 00 70       	mov    %eax,0x70009db8
    6f9c:	89 15 bc 9d 00 70    	mov    %edx,0x70009dbc
    6fa2:	a1 50 96 00 70       	mov    0x70009650,%eax
    6fa7:	ba 00 00 00 00       	mov    $0x0,%edx
    6fac:	a3 a8 9d 00 70       	mov    %eax,0x70009da8
    6fb1:	89 15 ac 9d 00 70    	mov    %edx,0x70009dac
    6fb7:	8b 35 90 9f 00 70    	mov    0x70009f90,%esi
    6fbd:	8b 3d 94 9f 00 70    	mov    0x70009f94,%edi
    6fc3:	8b 0d b8 9d 00 70    	mov    0x70009db8,%ecx
    6fc9:	8b 1d bc 9d 00 70    	mov    0x70009dbc,%ebx
    6fcf:	89 f0                	mov    %esi,%eax
    6fd1:	09 c8                	or     %ecx,%eax
    6fd3:	89 fa                	mov    %edi,%edx
    6fd5:	09 da                	or     %ebx,%edx
    6fd7:	a3 b8 9d 00 70       	mov    %eax,0x70009db8
    6fdc:	89 15 bc 9d 00 70    	mov    %edx,0x70009dbc
    6fe2:	8b 35 80 9f 00 70    	mov    0x70009f80,%esi
    6fe8:	8b 3d 84 9f 00 70    	mov    0x70009f84,%edi
    6fee:	8b 0d a8 9d 00 70    	mov    0x70009da8,%ecx
    6ff4:	8b 1d ac 9d 00 70    	mov    0x70009dac,%ebx
    6ffa:	89 f0                	mov    %esi,%eax
    6ffc:	09 c8                	or     %ecx,%eax
    6ffe:	89 fa                	mov    %edi,%edx
    7000:	09 da                	or     %ebx,%edx
    7002:	a3 a8 9d 00 70       	mov    %eax,0x70009da8
    7007:	89 15 ac 9d 00 70    	mov    %edx,0x70009dac
    700d:	8b 0d a8 9d 00 70    	mov    0x70009da8,%ecx
    7013:	8b 1d ac 9d 00 70    	mov    0x70009dac,%ebx
    7019:	89 c8                	mov    %ecx,%eax
    701b:	0d 00 00 01 00       	or     $0x10000,%eax
    7020:	89 da                	mov    %ebx,%edx
    7022:	80 ce 00             	or     $0x0,%dh
    7025:	a3 a8 9d 00 70       	mov    %eax,0x70009da8
    702a:	89 15 ac 9d 00 70    	mov    %edx,0x70009dac
    7030:	66 c7 05 a0 9e 00 70 	movw   $0x0,0x70009ea0
    7037:	00 00 
    7039:	66 c7 05 a6 9e 00 70 	movw   $0x0,0x70009ea6
    7040:	00 00 
    7042:	66 c7 05 a8 9e 00 70 	movw   $0x0,0x70009ea8
    7049:	00 00 
    704b:	66 c7 05 aa 9e 00 70 	movw   $0x0,0x70009eaa
    7052:	00 00 
    7054:	a1 54 96 00 70       	mov    0x70009654,%eax
    7059:	a3 10 a0 00 70       	mov    %eax,0x7000a010
    705e:	a1 58 96 00 70       	mov    0x70009658,%eax
    7063:	a3 14 a0 00 70       	mov    %eax,0x7000a014
    7068:	a1 5c 96 00 70       	mov    0x7000965c,%eax
    706d:	a3 18 a0 00 70       	mov    %eax,0x7000a018
    7072:	a1 60 96 00 70       	mov    0x70009660,%eax
    7077:	a3 1c a0 00 70       	mov    %eax,0x7000a01c
    707c:	a1 6c 96 00 70       	mov    0x7000966c,%eax
    7081:	a3 20 a0 00 70       	mov    %eax,0x7000a020
    7086:	a1 64 96 00 70       	mov    0x70009664,%eax
    708b:	a3 24 a0 00 70       	mov    %eax,0x7000a024
    7090:	a1 68 96 00 70       	mov    0x70009668,%eax
    7095:	a3 28 a0 00 70       	mov    %eax,0x7000a028
    709a:	a1 70 96 00 70       	mov    0x70009670,%eax
    709f:	ba 00 00 00 00       	mov    $0x0,%edx
    70a4:	a3 18 9e 00 70       	mov    %eax,0x70009e18
    70a9:	89 15 1c 9e 00 70    	mov    %edx,0x70009e1c
    70af:	a1 74 96 00 70       	mov    0x70009674,%eax
    70b4:	ba 00 00 00 00       	mov    $0x0,%edx
    70b9:	a3 20 9e 00 70       	mov    %eax,0x70009e20
    70be:	89 15 24 9e 00 70    	mov    %edx,0x70009e24
    70c4:	a1 80 96 00 70       	mov    0x70009680,%eax
    70c9:	ba 00 00 00 00       	mov    $0x0,%edx
    70ce:	a3 28 9e 00 70       	mov    %eax,0x70009e28
    70d3:	89 15 2c 9e 00 70    	mov    %edx,0x70009e2c
    70d9:	8b 0d 28 9e 00 70    	mov    0x70009e28,%ecx
    70df:	8b 1d 2c 9e 00 70    	mov    0x70009e2c,%ebx
    70e5:	89 c8                	mov    %ecx,%eax
    70e7:	25 d7 7f ff ff       	and    $0xffff7fd7,%eax
    70ec:	89 da                	mov    %ebx,%edx
    70ee:	80 e6 ff             	and    $0xff,%dh
    70f1:	a3 28 9e 00 70       	mov    %eax,0x70009e28
    70f6:	89 15 2c 9e 00 70    	mov    %edx,0x70009e2c
    70fc:	8b 0d 28 9e 00 70    	mov    0x70009e28,%ecx
    7102:	8b 1d 2c 9e 00 70    	mov    0x70009e2c,%ebx
    7108:	89 c8                	mov    %ecx,%eax
    710a:	83 c8 02             	or     $0x2,%eax
    710d:	89 da                	mov    %ebx,%edx
    710f:	80 ce 00             	or     $0x0,%dh
    7112:	a3 28 9e 00 70       	mov    %eax,0x70009e28
    7117:	89 15 2c 9e 00 70    	mov    %edx,0x70009e2c
    711d:	8b 0d 28 9e 00 70    	mov    0x70009e28,%ecx
    7123:	8b 1d 2c 9e 00 70    	mov    0x70009e2c,%ebx
    7129:	89 c8                	mov    %ecx,%eax
    712b:	25 ff ff fd ff       	and    $0xfffdffff,%eax
    7130:	89 da                	mov    %ebx,%edx
    7132:	80 e6 ff             	and    $0xff,%dh
    7135:	a3 28 9e 00 70       	mov    %eax,0x70009e28
    713a:	89 15 2c 9e 00 70    	mov    %edx,0x70009e2c
    7140:	8b 0d 28 9e 00 70    	mov    0x70009e28,%ecx
    7146:	8b 1d 2c 9e 00 70    	mov    0x70009e2c,%ebx
    714c:	89 c8                	mov    %ecx,%eax
    714e:	80 e4 cf             	and    $0xcf,%ah
    7151:	89 da                	mov    %ebx,%edx
    7153:	80 e6 ff             	and    $0xff,%dh
    7156:	a3 28 9e 00 70       	mov    %eax,0x70009e28
    715b:	89 15 2c 9e 00 70    	mov    %edx,0x70009e2c
    7161:	c7 05 c0 9d 00 70 00 	movl   $0x0,0x70009dc0
    7168:	00 00 00 
    716b:	c7 05 c4 9d 00 70 00 	movl   $0x0,0x70009dc4
    7172:	00 00 00 
    7175:	a1 78 96 00 70       	mov    0x70009678,%eax
    717a:	c1 e0 04             	shl    $0x4,%eax
    717d:	ba 00 00 00 00       	mov    $0x0,%edx
    7182:	a3 c8 9d 00 70       	mov    %eax,0x70009dc8
    7187:	89 15 cc 9d 00 70    	mov    %edx,0x70009dcc
    718d:	a1 7c 96 00 70       	mov    0x7000967c,%eax
    7192:	c1 e0 04             	shl    $0x4,%eax
    7195:	ba 00 00 00 00       	mov    $0x0,%edx
    719a:	a3 d0 9d 00 70       	mov    %eax,0x70009dd0
    719f:	89 15 d4 9d 00 70    	mov    %edx,0x70009dd4
    71a5:	c7 05 d8 9d 00 70 00 	movl   $0x0,0x70009dd8
    71ac:	00 00 00 
    71af:	c7 05 dc 9d 00 70 00 	movl   $0x0,0x70009ddc
    71b6:	00 00 00 
    71b9:	c7 05 e0 9d 00 70 00 	movl   $0x0,0x70009de0
    71c0:	00 00 00 
    71c3:	c7 05 e4 9d 00 70 00 	movl   $0x0,0x70009de4
    71ca:	00 00 00 
    71cd:	c7 05 e8 9d 00 70 00 	movl   $0x0,0x70009de8
    71d4:	00 00 00 
    71d7:	c7 05 ec 9d 00 70 00 	movl   $0x0,0x70009dec
    71de:	00 00 00 
    71e1:	c7 05 48 9e 00 70 00 	movl   $0x0,0x70009e48
    71e8:	00 00 00 
    71eb:	c7 05 4c 9e 00 70 ff 	movl   $0xffff,0x70009e4c
    71f2:	ff 00 00 
    71f5:	c7 05 50 9e 00 70 ff 	movl   $0xffff,0x70009e50
    71fc:	ff 00 00 
    71ff:	c7 05 54 9e 00 70 00 	movl   $0x0,0x70009e54
    7206:	00 00 00 
    7209:	c7 05 58 9e 00 70 00 	movl   $0x0,0x70009e58
    7210:	00 00 00 
    7213:	c7 05 5c 9e 00 70 00 	movl   $0x0,0x70009e5c
    721a:	00 00 00 
    721d:	c7 05 70 9e 00 70 00 	movl   $0x10000,0x70009e70
    7224:	00 01 00 
    7227:	c7 05 74 9e 00 70 9b 	movl   $0x9b,0x70009e74
    722e:	00 00 00 
    7231:	c7 05 78 9e 00 70 93 	movl   $0x93,0x70009e78
    7238:	00 00 00 
    723b:	c7 05 7c 9e 00 70 00 	movl   $0x10000,0x70009e7c
    7242:	00 01 00 
    7245:	c7 05 80 9e 00 70 00 	movl   $0x10000,0x70009e80
    724c:	00 01 00 
    724f:	c7 05 84 9e 00 70 00 	movl   $0x10000,0x70009e84
    7256:	00 01 00 
    7259:	c7 05 b0 9e 00 70 ff 	movl   $0xffffffff,0x70009eb0
    7260:	ff ff ff 
    7263:	c7 05 b4 9e 00 70 ff 	movl   $0xffffffff,0x70009eb4
    726a:	ff ff ff 
    726d:	a1 6c 9c 00 70       	mov    0x70009c6c,%eax
    7272:	80 cc 80             	or     $0x80,%ah
    7275:	a3 6c 9c 00 70       	mov    %eax,0x70009c6c
    727a:	a1 6c 9c 00 70       	mov    0x70009c6c,%eax
    727f:	0d 00 00 01 00       	or     $0x10000,%eax
    7284:	a3 6c 9c 00 70       	mov    %eax,0x70009c6c
    7289:	8b 45 0c             	mov    0xc(%ebp),%eax
    728c:	89 85 4c ff ff ff    	mov    %eax,-0xb4(%ebp)
    7292:	e9 28 0d 00 00       	jmp    7fbf <isl_prepareVMCS+0x1e97>
    7297:	8b 45 08             	mov    0x8(%ebp),%eax
    729a:	83 e0 02             	and    $0x2,%eax
    729d:	85 c0                	test   %eax,%eax
    729f:	0f 84 f5 0c 00 00    	je     7f9a <isl_prepareVMCS+0x1e72>
    72a5:	8b 45 08             	mov    0x8(%ebp),%eax
    72a8:	83 e0 08             	and    $0x8,%eax
    72ab:	85 c0                	test   %eax,%eax
    72ad:	0f 85 67 03 00 00    	jne    761a <isl_prepareVMCS+0x14f2>
    72b3:	8b 45 0c             	mov    0xc(%ebp),%eax
    72b6:	83 e0 08             	and    $0x8,%eax
    72b9:	85 c0                	test   %eax,%eax
    72bb:	75 25                	jne    72e2 <isl_prepareVMCS+0x11ba>
    72bd:	c7 44 24 0c 81 42 00 	movl   $0x70004281,0xc(%esp)
    72c4:	70 
    72c5:	c7 44 24 08 39 05 00 	movl   $0x539,0x8(%esp)
    72cc:	00 
    72cd:	c7 44 24 04 6c 60 00 	movl   $0x7000606c,0x4(%esp)
    72d4:	70 
    72d5:	c7 04 24 10 43 00 70 	movl   $0x70004310,(%esp)
    72dc:	e8 97 1a 00 00       	call   8d78 <printf>
    72e1:	f4                   	hlt    
    72e2:	a1 40 96 00 70       	mov    0x70009640,%eax
    72e7:	ba 00 00 00 00       	mov    $0x0,%edx
    72ec:	a3 00 9e 00 70       	mov    %eax,0x70009e00
    72f1:	89 15 04 9e 00 70    	mov    %edx,0x70009e04
    72f7:	0f b7 05 44 96 00 70 	movzwl 0x70009644,%eax
    72fe:	0f b7 c0             	movzwl %ax,%eax
    7301:	a3 68 9e 00 70       	mov    %eax,0x70009e68
    7306:	8b 45 0c             	mov    0xc(%ebp),%eax
    7309:	83 e0 10             	and    $0x10,%eax
    730c:	85 c0                	test   %eax,%eax
    730e:	74 24                	je     7334 <isl_prepareVMCS+0x120c>
    7310:	a1 48 96 00 70       	mov    0x70009648,%eax
    7315:	ba 00 00 00 00       	mov    $0x0,%edx
    731a:	a3 08 9e 00 70       	mov    %eax,0x70009e08
    731f:	89 15 0c 9e 00 70    	mov    %edx,0x70009e0c
    7325:	0f b7 05 4c 96 00 70 	movzwl 0x7000964c,%eax
    732c:	0f b7 c0             	movzwl %ax,%eax
    732f:	a3 6c 9e 00 70       	mov    %eax,0x70009e6c
    7334:	c7 05 d0 9d 00 70 00 	movl   $0x0,0x70009dd0
    733b:	00 00 00 
    733e:	c7 05 d4 9d 00 70 00 	movl   $0x0,0x70009dd4
    7345:	00 00 00 
    7348:	c7 05 50 9e 00 70 00 	movl   $0x0,0x70009e50
    734f:	00 00 00 
    7352:	c7 05 78 9e 00 70 00 	movl   $0x10000,0x70009e78
    7359:	00 01 00 
    735c:	66 c7 05 a4 9e 00 70 	movw   $0x0,0x70009ea4
    7363:	00 00 
    7365:	0f b7 05 e0 97 00 70 	movzwl 0x700097e0,%eax
    736c:	66 a3 a2 9e 00 70    	mov    %ax,0x70009ea2
    7372:	a1 00 9e 00 70       	mov    0x70009e00,%eax
    7377:	8b 15 04 9e 00 70    	mov    0x70009e04,%edx
    737d:	89 45 cc             	mov    %eax,-0x34(%ebp)
    7380:	0f b7 05 a2 9e 00 70 	movzwl 0x70009ea2,%eax
    7387:	66 c1 e8 03          	shr    $0x3,%ax
    738b:	0f b7 c0             	movzwl %ax,%eax
    738e:	c1 e0 03             	shl    $0x3,%eax
    7391:	03 45 cc             	add    -0x34(%ebp),%eax
    7394:	8b 50 04             	mov    0x4(%eax),%edx
    7397:	8b 00                	mov    (%eax),%eax
    7399:	89 45 d0             	mov    %eax,-0x30(%ebp)
    739c:	89 55 d4             	mov    %edx,-0x2c(%ebp)
    739f:	8b 4d d0             	mov    -0x30(%ebp),%ecx
    73a2:	8b 5d d4             	mov    -0x2c(%ebp),%ebx
    73a5:	89 c8                	mov    %ecx,%eax
    73a7:	66 b8 00 00          	mov    $0x0,%ax
    73ab:	0f b6 d3             	movzbl %bl,%edx
    73ae:	0f ac d0 10          	shrd   $0x10,%edx,%eax
    73b2:	c1 ea 10             	shr    $0x10,%edx
    73b5:	89 c6                	mov    %eax,%esi
    73b7:	8b 4d d0             	mov    -0x30(%ebp),%ecx
    73ba:	8b 5d d4             	mov    -0x2c(%ebp),%ebx
    73bd:	89 c8                	mov    %ecx,%eax
    73bf:	83 e0 00             	and    $0x0,%eax
    73c2:	89 da                	mov    %ebx,%edx
    73c4:	81 e2 00 00 00 ff    	and    $0xff000000,%edx
    73ca:	89 d0                	mov    %edx,%eax
    73cc:	31 d2                	xor    %edx,%edx
    73ce:	09 f0                	or     %esi,%eax
    73d0:	ba 00 00 00 00       	mov    $0x0,%edx
    73d5:	a3 c8 9d 00 70       	mov    %eax,0x70009dc8
    73da:	89 15 cc 9d 00 70    	mov    %edx,0x70009dcc
    73e0:	8b 45 d0             	mov    -0x30(%ebp),%eax
    73e3:	0f b7 f0             	movzwl %ax,%esi
    73e6:	8b 4d d0             	mov    -0x30(%ebp),%ecx
    73e9:	8b 5d d4             	mov    -0x2c(%ebp),%ebx
    73ec:	89 c8                	mov    %ecx,%eax
    73ee:	83 e0 00             	and    $0x0,%eax
    73f1:	89 da                	mov    %ebx,%edx
    73f3:	81 e2 00 00 0f 00    	and    $0xf0000,%edx
    73f9:	89 d0                	mov    %edx,%eax
    73fb:	31 d2                	xor    %edx,%edx
    73fd:	09 f0                	or     %esi,%eax
    73ff:	a3 4c 9e 00 70       	mov    %eax,0x70009e4c
    7404:	8b 4d d0             	mov    -0x30(%ebp),%ecx
    7407:	8b 5d d4             	mov    -0x2c(%ebp),%ebx
    740a:	89 c8                	mov    %ecx,%eax
    740c:	83 e0 00             	and    $0x0,%eax
    740f:	89 da                	mov    %ebx,%edx
    7411:	81 e2 00 00 f0 00    	and    $0xf00000,%edx
    7417:	89 d0                	mov    %edx,%eax
    7419:	31 d2                	xor    %edx,%edx
    741b:	c1 e8 17             	shr    $0x17,%eax
    741e:	89 45 d8             	mov    %eax,-0x28(%ebp)
    7421:	83 7d d8 01          	cmpl   $0x1,-0x28(%ebp)
    7425:	75 16                	jne    743d <isl_prepareVMCS+0x1315>
    7427:	a1 4c 9e 00 70       	mov    0x70009e4c,%eax
    742c:	3d ff ff 0f 00       	cmp    $0xfffff,%eax
    7431:	75 0a                	jne    743d <isl_prepareVMCS+0x1315>
    7433:	c7 05 4c 9e 00 70 ff 	movl   $0xffffffff,0x70009e4c
    743a:	ff ff ff 
    743d:	8b 4d d0             	mov    -0x30(%ebp),%ecx
    7440:	8b 5d d4             	mov    -0x2c(%ebp),%ebx
    7443:	89 c8                	mov    %ecx,%eax
    7445:	83 e0 00             	and    $0x0,%eax
    7448:	89 da                	mov    %ebx,%edx
    744a:	81 e2 00 ff f0 00    	and    $0xf0ff00,%edx
    7450:	89 d0                	mov    %edx,%eax
    7452:	31 d2                	xor    %edx,%edx
    7454:	c1 e8 08             	shr    $0x8,%eax
    7457:	a3 74 9e 00 70       	mov    %eax,0x70009e74
    745c:	0f b7 0d e2 97 00 70 	movzwl 0x700097e2,%ecx
    7463:	0f b7 c1             	movzwl %cx,%eax
    7466:	ba 00 00 00 00       	mov    $0x0,%edx
    746b:	a3 20 9e 00 70       	mov    %eax,0x70009e20
    7470:	89 15 24 9e 00 70    	mov    %edx,0x70009e24
    7476:	66 c7 05 a0 9e 00 70 	movw   $0x0,0x70009ea0
    747d:	00 00 
    747f:	66 c7 05 a6 9e 00 70 	movw   $0x0,0x70009ea6
    7486:	00 00 
    7488:	66 c7 05 a8 9e 00 70 	movw   $0x0,0x70009ea8
    748f:	00 00 
    7491:	66 c7 05 aa 9e 00 70 	movw   $0x0,0x70009eaa
    7498:	00 00 
    749a:	8b 0d 28 9e 00 70    	mov    0x70009e28,%ecx
    74a0:	8b 1d 2c 9e 00 70    	mov    0x70009e2c,%ebx
    74a6:	89 c8                	mov    %ecx,%eax
    74a8:	25 d7 7f ff ff       	and    $0xffff7fd7,%eax
    74ad:	89 da                	mov    %ebx,%edx
    74af:	80 e6 ff             	and    $0xff,%dh
    74b2:	a3 28 9e 00 70       	mov    %eax,0x70009e28
    74b7:	89 15 2c 9e 00 70    	mov    %edx,0x70009e2c
    74bd:	8b 0d 28 9e 00 70    	mov    0x70009e28,%ecx
    74c3:	8b 1d 2c 9e 00 70    	mov    0x70009e2c,%ebx
    74c9:	89 c8                	mov    %ecx,%eax
    74cb:	83 c8 02             	or     $0x2,%eax
    74ce:	89 da                	mov    %ebx,%edx
    74d0:	80 ce 00             	or     $0x0,%dh
    74d3:	a3 28 9e 00 70       	mov    %eax,0x70009e28
    74d8:	89 15 2c 9e 00 70    	mov    %edx,0x70009e2c
    74de:	c7 05 c0 9d 00 70 00 	movl   $0x0,0x70009dc0
    74e5:	00 00 00 
    74e8:	c7 05 c4 9d 00 70 00 	movl   $0x0,0x70009dc4
    74ef:	00 00 00 
    74f2:	c7 05 d8 9d 00 70 00 	movl   $0x0,0x70009dd8
    74f9:	00 00 00 
    74fc:	c7 05 dc 9d 00 70 00 	movl   $0x0,0x70009ddc
    7503:	00 00 00 
    7506:	c7 05 e0 9d 00 70 00 	movl   $0x0,0x70009de0
    750d:	00 00 00 
    7510:	c7 05 e4 9d 00 70 00 	movl   $0x0,0x70009de4
    7517:	00 00 00 
    751a:	c7 05 e8 9d 00 70 00 	movl   $0x0,0x70009de8
    7521:	00 00 00 
    7524:	c7 05 ec 9d 00 70 00 	movl   $0x0,0x70009dec
    752b:	00 00 00 
    752e:	c7 05 48 9e 00 70 00 	movl   $0x0,0x70009e48
    7535:	00 00 00 
    7538:	c7 05 54 9e 00 70 00 	movl   $0x0,0x70009e54
    753f:	00 00 00 
    7542:	c7 05 58 9e 00 70 00 	movl   $0x0,0x70009e58
    7549:	00 00 00 
    754c:	c7 05 5c 9e 00 70 00 	movl   $0x0,0x70009e5c
    7553:	00 00 00 
    7556:	c7 05 70 9e 00 70 00 	movl   $0x10000,0x70009e70
    755d:	00 01 00 
    7560:	a1 74 9e 00 70       	mov    0x70009e74,%eax
    7565:	83 c8 0b             	or     $0xb,%eax
    7568:	a3 74 9e 00 70       	mov    %eax,0x70009e74
    756d:	c7 05 78 9e 00 70 00 	movl   $0x10000,0x70009e78
    7574:	00 01 00 
    7577:	c7 05 7c 9e 00 70 00 	movl   $0x10000,0x70009e7c
    757e:	00 01 00 
    7581:	c7 05 80 9e 00 70 00 	movl   $0x10000,0x70009e80
    7588:	00 01 00 
    758b:	c7 05 84 9e 00 70 00 	movl   $0x10000,0x70009e84
    7592:	00 01 00 
    7595:	c7 05 b0 9e 00 70 ff 	movl   $0xffffffff,0x70009eb0
    759c:	ff ff ff 
    759f:	c7 05 b4 9e 00 70 ff 	movl   $0xffffffff,0x70009eb4
    75a6:	ff ff ff 
    75a9:	a1 70 9c 00 70       	mov    0x70009c70,%eax
    75ae:	80 e4 df             	and    $0xdf,%ah
    75b1:	a3 70 9c 00 70       	mov    %eax,0x70009c70
    75b6:	8b 45 0c             	mov    0xc(%ebp),%eax
    75b9:	83 e0 20             	and    $0x20,%eax
    75bc:	85 c0                	test   %eax,%eax
    75be:	74 17                	je     75d7 <isl_prepareVMCS+0x14af>
    75c0:	a1 88 96 00 70       	mov    0x70009688,%eax
    75c5:	ba 00 00 00 00       	mov    $0x0,%edx
    75ca:	a3 b0 9d 00 70       	mov    %eax,0x70009db0
    75cf:	89 15 b4 9d 00 70    	mov    %edx,0x70009db4
    75d5:	eb 0a                	jmp    75e1 <isl_prepareVMCS+0x14b9>
    75d7:	a1 88 96 00 70       	mov    0x70009688,%eax
    75dc:	a3 10 98 00 70       	mov    %eax,0x70009810
    75e1:	a1 a4 97 00 70       	mov    0x700097a4,%eax
    75e6:	89 c6                	mov    %eax,%esi
    75e8:	bf 00 00 00 00       	mov    $0x0,%edi
    75ed:	8b 0d 18 9e 00 70    	mov    0x70009e18,%ecx
    75f3:	8b 1d 1c 9e 00 70    	mov    0x70009e1c,%ebx
    75f9:	89 f0                	mov    %esi,%eax
    75fb:	09 c8                	or     %ecx,%eax
    75fd:	89 fa                	mov    %edi,%edx
    75ff:	09 da                	or     %ebx,%edx
    7601:	a3 18 9e 00 70       	mov    %eax,0x70009e18
    7606:	89 15 1c 9e 00 70    	mov    %edx,0x70009e1c
    760c:	8b 45 0c             	mov    0xc(%ebp),%eax
    760f:	89 85 4c ff ff ff    	mov    %eax,-0xb4(%ebp)
    7615:	e9 a5 09 00 00       	jmp    7fbf <isl_prepareVMCS+0x1e97>
    761a:	83 7d 0c 01          	cmpl   $0x1,0xc(%ebp)
    761e:	0f 85 76 09 00 00    	jne    7f9a <isl_prepareVMCS+0x1e72>
    7624:	0f b7 05 ae 9e 00 70 	movzwl 0x70009eae,%eax
    762b:	66 a3 90 97 00 70    	mov    %ax,0x70009790
    7631:	a1 f8 9d 00 70       	mov    0x70009df8,%eax
    7636:	8b 15 fc 9d 00 70    	mov    0x70009dfc,%edx
    763c:	a3 84 97 00 70       	mov    %eax,0x70009784
    7641:	a1 64 9e 00 70       	mov    0x70009e64,%eax
    7646:	a3 8c 97 00 70       	mov    %eax,0x7000978c
    764b:	a1 8c 9e 00 70       	mov    0x70009e8c,%eax
    7650:	a3 88 97 00 70       	mov    %eax,0x70009788
    7655:	0f b7 05 ac 9e 00 70 	movzwl 0x70009eac,%eax
    765c:	66 a3 a0 97 00 70    	mov    %ax,0x700097a0
    7662:	a1 f0 9d 00 70       	mov    0x70009df0,%eax
    7667:	8b 15 f4 9d 00 70    	mov    0x70009df4,%edx
    766d:	a3 94 97 00 70       	mov    %eax,0x70009794
    7672:	a1 60 9e 00 70       	mov    0x70009e60,%eax
    7677:	a3 9c 97 00 70       	mov    %eax,0x7000979c
    767c:	a1 88 9e 00 70       	mov    0x70009e88,%eax
    7681:	a3 98 97 00 70       	mov    %eax,0x70009798
    7686:	c7 05 80 97 00 70 01 	movl   $0x1,0x70009780
    768d:	00 00 00 
    7690:	a1 b0 9d 00 70       	mov    0x70009db0,%eax
    7695:	8b 15 b4 9d 00 70    	mov    0x70009db4,%edx
    769b:	a3 88 96 00 70       	mov    %eax,0x70009688
    76a0:	a1 00 9e 00 70       	mov    0x70009e00,%eax
    76a5:	8b 15 04 9e 00 70    	mov    0x70009e04,%edx
    76ab:	89 45 dc             	mov    %eax,-0x24(%ebp)
    76ae:	0f b7 05 a2 9e 00 70 	movzwl 0x70009ea2,%eax
    76b5:	66 c1 e8 03          	shr    $0x3,%ax
    76b9:	0f b7 c0             	movzwl %ax,%eax
    76bc:	c1 e0 03             	shl    $0x3,%eax
    76bf:	03 45 dc             	add    -0x24(%ebp),%eax
    76c2:	8b 50 04             	mov    0x4(%eax),%edx
    76c5:	8b 00                	mov    (%eax),%eax
    76c7:	89 45 e0             	mov    %eax,-0x20(%ebp)
    76ca:	89 55 e4             	mov    %edx,-0x1c(%ebp)
    76cd:	8b 4d e0             	mov    -0x20(%ebp),%ecx
    76d0:	8b 5d e4             	mov    -0x1c(%ebp),%ebx
    76d3:	89 c8                	mov    %ecx,%eax
    76d5:	66 b8 00 00          	mov    $0x0,%ax
    76d9:	0f b6 d3             	movzbl %bl,%edx
    76dc:	0f ac d0 10          	shrd   $0x10,%edx,%eax
    76e0:	c1 ea 10             	shr    $0x10,%edx
    76e3:	89 c6                	mov    %eax,%esi
    76e5:	8b 4d e0             	mov    -0x20(%ebp),%ecx
    76e8:	8b 5d e4             	mov    -0x1c(%ebp),%ebx
    76eb:	89 c8                	mov    %ecx,%eax
    76ed:	83 e0 00             	and    $0x0,%eax
    76f0:	89 da                	mov    %ebx,%edx
    76f2:	81 e2 00 00 00 ff    	and    $0xff000000,%edx
    76f8:	89 d0                	mov    %edx,%eax
    76fa:	31 d2                	xor    %edx,%edx
    76fc:	09 f0                	or     %esi,%eax
    76fe:	ba 00 00 00 00       	mov    $0x0,%edx
    7703:	a3 c8 9d 00 70       	mov    %eax,0x70009dc8
    7708:	89 15 cc 9d 00 70    	mov    %edx,0x70009dcc
    770e:	8b 45 e0             	mov    -0x20(%ebp),%eax
    7711:	0f b7 f0             	movzwl %ax,%esi
    7714:	8b 4d e0             	mov    -0x20(%ebp),%ecx
    7717:	8b 5d e4             	mov    -0x1c(%ebp),%ebx
    771a:	89 c8                	mov    %ecx,%eax
    771c:	83 e0 00             	and    $0x0,%eax
    771f:	89 da                	mov    %ebx,%edx
    7721:	81 e2 00 00 0f 00    	and    $0xf0000,%edx
    7727:	89 d0                	mov    %edx,%eax
    7729:	31 d2                	xor    %edx,%edx
    772b:	09 f0                	or     %esi,%eax
    772d:	a3 4c 9e 00 70       	mov    %eax,0x70009e4c
    7732:	8b 4d e0             	mov    -0x20(%ebp),%ecx
    7735:	8b 5d e4             	mov    -0x1c(%ebp),%ebx
    7738:	89 c8                	mov    %ecx,%eax
    773a:	83 e0 00             	and    $0x0,%eax
    773d:	89 da                	mov    %ebx,%edx
    773f:	81 e2 00 00 f0 00    	and    $0xf00000,%edx
    7745:	89 d0                	mov    %edx,%eax
    7747:	31 d2                	xor    %edx,%edx
    7749:	c1 e8 17             	shr    $0x17,%eax
    774c:	89 45 ec             	mov    %eax,-0x14(%ebp)
    774f:	83 7d ec 00          	cmpl   $0x0,-0x14(%ebp)
    7753:	0f 94 c0             	sete   %al
    7756:	0f b6 c0             	movzbl %al,%eax
    7759:	89 45 ec             	mov    %eax,-0x14(%ebp)
    775c:	a1 4c 9e 00 70       	mov    0x70009e4c,%eax
    7761:	0f af 45 ec          	imul   -0x14(%ebp),%eax
    7765:	a3 4c 9e 00 70       	mov    %eax,0x70009e4c
    776a:	81 7d ec 00 10 00 00 	cmpl   $0x1000,-0x14(%ebp)
    7771:	75 0f                	jne    7782 <isl_prepareVMCS+0x165a>
    7773:	a1 4c 9e 00 70       	mov    0x70009e4c,%eax
    7778:	05 ff 0f 00 00       	add    $0xfff,%eax
    777d:	a3 4c 9e 00 70       	mov    %eax,0x70009e4c
    7782:	8b 4d e0             	mov    -0x20(%ebp),%ecx
    7785:	8b 5d e4             	mov    -0x1c(%ebp),%ebx
    7788:	89 c8                	mov    %ecx,%eax
    778a:	83 e0 00             	and    $0x0,%eax
    778d:	89 da                	mov    %ebx,%edx
    778f:	81 e2 00 ff ff 00    	and    $0xffff00,%edx
    7795:	89 d0                	mov    %edx,%eax
    7797:	31 d2                	xor    %edx,%edx
    7799:	c1 e8 08             	shr    $0x8,%eax
    779c:	a3 74 9e 00 70       	mov    %eax,0x70009e74
    77a1:	0f b7 05 a6 9e 00 70 	movzwl 0x70009ea6,%eax
    77a8:	66 c1 e8 03          	shr    $0x3,%ax
    77ac:	0f b7 c0             	movzwl %ax,%eax
    77af:	c1 e0 03             	shl    $0x3,%eax
    77b2:	03 45 dc             	add    -0x24(%ebp),%eax
    77b5:	8b 50 04             	mov    0x4(%eax),%edx
    77b8:	8b 00                	mov    (%eax),%eax
    77ba:	89 45 e0             	mov    %eax,-0x20(%ebp)
    77bd:	89 55 e4             	mov    %edx,-0x1c(%ebp)
    77c0:	8b 4d e0             	mov    -0x20(%ebp),%ecx
    77c3:	8b 5d e4             	mov    -0x1c(%ebp),%ebx
    77c6:	89 c8                	mov    %ecx,%eax
    77c8:	66 b8 00 00          	mov    $0x0,%ax
    77cc:	0f b6 d3             	movzbl %bl,%edx
    77cf:	0f ac d0 10          	shrd   $0x10,%edx,%eax
    77d3:	c1 ea 10             	shr    $0x10,%edx
    77d6:	89 c6                	mov    %eax,%esi
    77d8:	8b 4d e0             	mov    -0x20(%ebp),%ecx
    77db:	8b 5d e4             	mov    -0x1c(%ebp),%ebx
    77de:	89 c8                	mov    %ecx,%eax
    77e0:	83 e0 00             	and    $0x0,%eax
    77e3:	89 da                	mov    %ebx,%edx
    77e5:	81 e2 00 00 00 ff    	and    $0xff000000,%edx
    77eb:	89 d0                	mov    %edx,%eax
    77ed:	31 d2                	xor    %edx,%edx
    77ef:	09 f0                	or     %esi,%eax
    77f1:	ba 00 00 00 00       	mov    $0x0,%edx
    77f6:	a3 d8 9d 00 70       	mov    %eax,0x70009dd8
    77fb:	89 15 dc 9d 00 70    	mov    %edx,0x70009ddc
    7801:	8b 45 e0             	mov    -0x20(%ebp),%eax
    7804:	0f b7 f0             	movzwl %ax,%esi
    7807:	8b 4d e0             	mov    -0x20(%ebp),%ecx
    780a:	8b 5d e4             	mov    -0x1c(%ebp),%ebx
    780d:	89 c8                	mov    %ecx,%eax
    780f:	83 e0 00             	and    $0x0,%eax
    7812:	89 da                	mov    %ebx,%edx
    7814:	81 e2 00 00 0f 00    	and    $0xf0000,%edx
    781a:	89 d0                	mov    %edx,%eax
    781c:	31 d2                	xor    %edx,%edx
    781e:	09 f0                	or     %esi,%eax
    7820:	a3 54 9e 00 70       	mov    %eax,0x70009e54
    7825:	8b 4d e0             	mov    -0x20(%ebp),%ecx
    7828:	8b 5d e4             	mov    -0x1c(%ebp),%ebx
    782b:	89 c8                	mov    %ecx,%eax
    782d:	83 e0 00             	and    $0x0,%eax
    7830:	89 da                	mov    %ebx,%edx
    7832:	81 e2 00 00 f0 00    	and    $0xf00000,%edx
    7838:	89 d0                	mov    %edx,%eax
    783a:	31 d2                	xor    %edx,%edx
    783c:	c1 e8 17             	shr    $0x17,%eax
    783f:	89 45 ec             	mov    %eax,-0x14(%ebp)
    7842:	83 7d ec 00          	cmpl   $0x0,-0x14(%ebp)
    7846:	0f 94 c0             	sete   %al
    7849:	0f b6 c0             	movzbl %al,%eax
    784c:	89 45 ec             	mov    %eax,-0x14(%ebp)
    784f:	a1 54 9e 00 70       	mov    0x70009e54,%eax
    7854:	0f af 45 ec          	imul   -0x14(%ebp),%eax
    7858:	a3 54 9e 00 70       	mov    %eax,0x70009e54
    785d:	81 7d ec 00 10 00 00 	cmpl   $0x1000,-0x14(%ebp)
    7864:	75 0f                	jne    7875 <isl_prepareVMCS+0x174d>
    7866:	a1 54 9e 00 70       	mov    0x70009e54,%eax
    786b:	05 ff 0f 00 00       	add    $0xfff,%eax
    7870:	a3 54 9e 00 70       	mov    %eax,0x70009e54
    7875:	8b 4d e0             	mov    -0x20(%ebp),%ecx
    7878:	8b 5d e4             	mov    -0x1c(%ebp),%ebx
    787b:	89 c8                	mov    %ecx,%eax
    787d:	83 e0 00             	and    $0x0,%eax
    7880:	89 da                	mov    %ebx,%edx
    7882:	81 e2 00 ff ff 00    	and    $0xffff00,%edx
    7888:	89 d0                	mov    %edx,%eax
    788a:	31 d2                	xor    %edx,%edx
    788c:	c1 e8 08             	shr    $0x8,%eax
    788f:	a3 7c 9e 00 70       	mov    %eax,0x70009e7c
    7894:	0f b7 05 a0 9e 00 70 	movzwl 0x70009ea0,%eax
    789b:	66 c1 e8 03          	shr    $0x3,%ax
    789f:	0f b7 c0             	movzwl %ax,%eax
    78a2:	c1 e0 03             	shl    $0x3,%eax
    78a5:	03 45 dc             	add    -0x24(%ebp),%eax
    78a8:	8b 50 04             	mov    0x4(%eax),%edx
    78ab:	8b 00                	mov    (%eax),%eax
    78ad:	89 45 e0             	mov    %eax,-0x20(%ebp)
    78b0:	89 55 e4             	mov    %edx,-0x1c(%ebp)
    78b3:	8b 4d e0             	mov    -0x20(%ebp),%ecx
    78b6:	8b 5d e4             	mov    -0x1c(%ebp),%ebx
    78b9:	89 c8                	mov    %ecx,%eax
    78bb:	66 b8 00 00          	mov    $0x0,%ax
    78bf:	0f b6 d3             	movzbl %bl,%edx
    78c2:	0f ac d0 10          	shrd   $0x10,%edx,%eax
    78c6:	c1 ea 10             	shr    $0x10,%edx
    78c9:	89 c6                	mov    %eax,%esi
    78cb:	8b 4d e0             	mov    -0x20(%ebp),%ecx
    78ce:	8b 5d e4             	mov    -0x1c(%ebp),%ebx
    78d1:	89 c8                	mov    %ecx,%eax
    78d3:	83 e0 00             	and    $0x0,%eax
    78d6:	89 da                	mov    %ebx,%edx
    78d8:	81 e2 00 00 00 ff    	and    $0xff000000,%edx
    78de:	89 d0                	mov    %edx,%eax
    78e0:	31 d2                	xor    %edx,%edx
    78e2:	09 f0                	or     %esi,%eax
    78e4:	ba 00 00 00 00       	mov    $0x0,%edx
    78e9:	a3 c0 9d 00 70       	mov    %eax,0x70009dc0
    78ee:	89 15 c4 9d 00 70    	mov    %edx,0x70009dc4
    78f4:	8b 45 e0             	mov    -0x20(%ebp),%eax
    78f7:	0f b7 f0             	movzwl %ax,%esi
    78fa:	8b 4d e0             	mov    -0x20(%ebp),%ecx
    78fd:	8b 5d e4             	mov    -0x1c(%ebp),%ebx
    7900:	89 c8                	mov    %ecx,%eax
    7902:	83 e0 00             	and    $0x0,%eax
    7905:	89 da                	mov    %ebx,%edx
    7907:	81 e2 00 00 0f 00    	and    $0xf0000,%edx
    790d:	89 d0                	mov    %edx,%eax
    790f:	31 d2                	xor    %edx,%edx
    7911:	09 f0                	or     %esi,%eax
    7913:	a3 48 9e 00 70       	mov    %eax,0x70009e48
    7918:	8b 4d e0             	mov    -0x20(%ebp),%ecx
    791b:	8b 5d e4             	mov    -0x1c(%ebp),%ebx
    791e:	89 c8                	mov    %ecx,%eax
    7920:	83 e0 00             	and    $0x0,%eax
    7923:	89 da                	mov    %ebx,%edx
    7925:	81 e2 00 00 f0 00    	and    $0xf00000,%edx
    792b:	89 d0                	mov    %edx,%eax
    792d:	31 d2                	xor    %edx,%edx
    792f:	c1 e8 17             	shr    $0x17,%eax
    7932:	89 45 ec             	mov    %eax,-0x14(%ebp)
    7935:	83 7d ec 00          	cmpl   $0x0,-0x14(%ebp)
    7939:	0f 94 c0             	sete   %al
    793c:	0f b6 c0             	movzbl %al,%eax
    793f:	89 45 ec             	mov    %eax,-0x14(%ebp)
    7942:	a1 48 9e 00 70       	mov    0x70009e48,%eax
    7947:	0f af 45 ec          	imul   -0x14(%ebp),%eax
    794b:	a3 48 9e 00 70       	mov    %eax,0x70009e48
    7950:	81 7d ec 00 10 00 00 	cmpl   $0x1000,-0x14(%ebp)
    7957:	75 0f                	jne    7968 <isl_prepareVMCS+0x1840>
    7959:	a1 48 9e 00 70       	mov    0x70009e48,%eax
    795e:	05 ff 0f 00 00       	add    $0xfff,%eax
    7963:	a3 48 9e 00 70       	mov    %eax,0x70009e48
    7968:	8b 4d e0             	mov    -0x20(%ebp),%ecx
    796b:	8b 5d e4             	mov    -0x1c(%ebp),%ebx
    796e:	89 c8                	mov    %ecx,%eax
    7970:	83 e0 00             	and    $0x0,%eax
    7973:	89 da                	mov    %ebx,%edx
    7975:	81 e2 00 ff ff 00    	and    $0xffff00,%edx
    797b:	89 d0                	mov    %edx,%eax
    797d:	31 d2                	xor    %edx,%edx
    797f:	c1 e8 08             	shr    $0x8,%eax
    7982:	a3 70 9e 00 70       	mov    %eax,0x70009e70
    7987:	0f b7 05 a8 9e 00 70 	movzwl 0x70009ea8,%eax
    798e:	66 c1 e8 03          	shr    $0x3,%ax
    7992:	0f b7 c0             	movzwl %ax,%eax
    7995:	c1 e0 03             	shl    $0x3,%eax
    7998:	03 45 dc             	add    -0x24(%ebp),%eax
    799b:	8b 50 04             	mov    0x4(%eax),%edx
    799e:	8b 00                	mov    (%eax),%eax
    79a0:	89 45 e0             	mov    %eax,-0x20(%ebp)
    79a3:	89 55 e4             	mov    %edx,-0x1c(%ebp)
    79a6:	8b 4d e0             	mov    -0x20(%ebp),%ecx
    79a9:	8b 5d e4             	mov    -0x1c(%ebp),%ebx
    79ac:	89 c8                	mov    %ecx,%eax
    79ae:	66 b8 00 00          	mov    $0x0,%ax
    79b2:	0f b6 d3             	movzbl %bl,%edx
    79b5:	0f ac d0 10          	shrd   $0x10,%edx,%eax
    79b9:	c1 ea 10             	shr    $0x10,%edx
    79bc:	89 c6                	mov    %eax,%esi
    79be:	8b 4d e0             	mov    -0x20(%ebp),%ecx
    79c1:	8b 5d e4             	mov    -0x1c(%ebp),%ebx
    79c4:	89 c8                	mov    %ecx,%eax
    79c6:	83 e0 00             	and    $0x0,%eax
    79c9:	89 da                	mov    %ebx,%edx
    79cb:	81 e2 00 00 00 ff    	and    $0xff000000,%edx
    79d1:	89 d0                	mov    %edx,%eax
    79d3:	31 d2                	xor    %edx,%edx
    79d5:	09 f0                	or     %esi,%eax
    79d7:	ba 00 00 00 00       	mov    $0x0,%edx
    79dc:	a3 e0 9d 00 70       	mov    %eax,0x70009de0
    79e1:	89 15 e4 9d 00 70    	mov    %edx,0x70009de4
    79e7:	8b 45 e0             	mov    -0x20(%ebp),%eax
    79ea:	0f b7 f0             	movzwl %ax,%esi
    79ed:	8b 4d e0             	mov    -0x20(%ebp),%ecx
    79f0:	8b 5d e4             	mov    -0x1c(%ebp),%ebx
    79f3:	89 c8                	mov    %ecx,%eax
    79f5:	83 e0 00             	and    $0x0,%eax
    79f8:	89 da                	mov    %ebx,%edx
    79fa:	81 e2 00 00 0f 00    	and    $0xf0000,%edx
    7a00:	89 d0                	mov    %edx,%eax
    7a02:	31 d2                	xor    %edx,%edx
    7a04:	09 f0                	or     %esi,%eax
    7a06:	a3 58 9e 00 70       	mov    %eax,0x70009e58
    7a0b:	8b 4d e0             	mov    -0x20(%ebp),%ecx
    7a0e:	8b 5d e4             	mov    -0x1c(%ebp),%ebx
    7a11:	89 c8                	mov    %ecx,%eax
    7a13:	83 e0 00             	and    $0x0,%eax
    7a16:	89 da                	mov    %ebx,%edx
    7a18:	81 e2 00 00 f0 00    	and    $0xf00000,%edx
    7a1e:	89 d0                	mov    %edx,%eax
    7a20:	31 d2                	xor    %edx,%edx
    7a22:	c1 e8 17             	shr    $0x17,%eax
    7a25:	89 45 ec             	mov    %eax,-0x14(%ebp)
    7a28:	83 7d ec 00          	cmpl   $0x0,-0x14(%ebp)
    7a2c:	0f 94 c0             	sete   %al
    7a2f:	0f b6 c0             	movzbl %al,%eax
    7a32:	89 45 ec             	mov    %eax,-0x14(%ebp)
    7a35:	a1 58 9e 00 70       	mov    0x70009e58,%eax
    7a3a:	0f af 45 ec          	imul   -0x14(%ebp),%eax
    7a3e:	a3 58 9e 00 70       	mov    %eax,0x70009e58
    7a43:	81 7d ec 00 10 00 00 	cmpl   $0x1000,-0x14(%ebp)
    7a4a:	75 0f                	jne    7a5b <isl_prepareVMCS+0x1933>
    7a4c:	a1 58 9e 00 70       	mov    0x70009e58,%eax
    7a51:	05 ff 0f 00 00       	add    $0xfff,%eax
    7a56:	a3 58 9e 00 70       	mov    %eax,0x70009e58
    7a5b:	8b 4d e0             	mov    -0x20(%ebp),%ecx
    7a5e:	8b 5d e4             	mov    -0x1c(%ebp),%ebx
    7a61:	89 c8                	mov    %ecx,%eax
    7a63:	83 e0 00             	and    $0x0,%eax
    7a66:	89 da                	mov    %ebx,%edx
    7a68:	81 e2 00 ff ff 00    	and    $0xffff00,%edx
    7a6e:	89 d0                	mov    %edx,%eax
    7a70:	31 d2                	xor    %edx,%edx
    7a72:	c1 e8 08             	shr    $0x8,%eax
    7a75:	a3 80 9e 00 70       	mov    %eax,0x70009e80
    7a7a:	0f b7 05 aa 9e 00 70 	movzwl 0x70009eaa,%eax
    7a81:	66 c1 e8 03          	shr    $0x3,%ax
    7a85:	0f b7 c0             	movzwl %ax,%eax
    7a88:	c1 e0 03             	shl    $0x3,%eax
    7a8b:	03 45 dc             	add    -0x24(%ebp),%eax
    7a8e:	8b 50 04             	mov    0x4(%eax),%edx
    7a91:	8b 00                	mov    (%eax),%eax
    7a93:	89 45 e0             	mov    %eax,-0x20(%ebp)
    7a96:	89 55 e4             	mov    %edx,-0x1c(%ebp)
    7a99:	8b 4d e0             	mov    -0x20(%ebp),%ecx
    7a9c:	8b 5d e4             	mov    -0x1c(%ebp),%ebx
    7a9f:	89 c8                	mov    %ecx,%eax
    7aa1:	66 b8 00 00          	mov    $0x0,%ax
    7aa5:	0f b6 d3             	movzbl %bl,%edx
    7aa8:	0f ac d0 10          	shrd   $0x10,%edx,%eax
    7aac:	c1 ea 10             	shr    $0x10,%edx
    7aaf:	89 c6                	mov    %eax,%esi
    7ab1:	8b 4d e0             	mov    -0x20(%ebp),%ecx
    7ab4:	8b 5d e4             	mov    -0x1c(%ebp),%ebx
    7ab7:	89 c8                	mov    %ecx,%eax
    7ab9:	83 e0 00             	and    $0x0,%eax
    7abc:	89 da                	mov    %ebx,%edx
    7abe:	81 e2 00 00 00 ff    	and    $0xff000000,%edx
    7ac4:	89 d0                	mov    %edx,%eax
    7ac6:	31 d2                	xor    %edx,%edx
    7ac8:	09 f0                	or     %esi,%eax
    7aca:	ba 00 00 00 00       	mov    $0x0,%edx
    7acf:	a3 e8 9d 00 70       	mov    %eax,0x70009de8
    7ad4:	89 15 ec 9d 00 70    	mov    %edx,0x70009dec
    7ada:	8b 45 e0             	mov    -0x20(%ebp),%eax
    7add:	0f b7 f0             	movzwl %ax,%esi
    7ae0:	8b 4d e0             	mov    -0x20(%ebp),%ecx
    7ae3:	8b 5d e4             	mov    -0x1c(%ebp),%ebx
    7ae6:	89 c8                	mov    %ecx,%eax
    7ae8:	83 e0 00             	and    $0x0,%eax
    7aeb:	89 da                	mov    %ebx,%edx
    7aed:	81 e2 00 00 0f 00    	and    $0xf0000,%edx
    7af3:	89 d0                	mov    %edx,%eax
    7af5:	31 d2                	xor    %edx,%edx
    7af7:	09 f0                	or     %esi,%eax
    7af9:	a3 5c 9e 00 70       	mov    %eax,0x70009e5c
    7afe:	8b 4d e0             	mov    -0x20(%ebp),%ecx
    7b01:	8b 5d e4             	mov    -0x1c(%ebp),%ebx
    7b04:	89 c8                	mov    %ecx,%eax
    7b06:	83 e0 00             	and    $0x0,%eax
    7b09:	89 da                	mov    %ebx,%edx
    7b0b:	81 e2 00 00 f0 00    	and    $0xf00000,%edx
    7b11:	89 d0                	mov    %edx,%eax
    7b13:	31 d2                	xor    %edx,%edx
    7b15:	c1 e8 17             	shr    $0x17,%eax
    7b18:	89 45 ec             	mov    %eax,-0x14(%ebp)
    7b1b:	83 7d ec 00          	cmpl   $0x0,-0x14(%ebp)
    7b1f:	0f 94 c0             	sete   %al
    7b22:	0f b6 c0             	movzbl %al,%eax
    7b25:	89 45 ec             	mov    %eax,-0x14(%ebp)
    7b28:	a1 5c 9e 00 70       	mov    0x70009e5c,%eax
    7b2d:	0f af 45 ec          	imul   -0x14(%ebp),%eax
    7b31:	a3 5c 9e 00 70       	mov    %eax,0x70009e5c
    7b36:	81 7d ec 00 10 00 00 	cmpl   $0x1000,-0x14(%ebp)
    7b3d:	75 0f                	jne    7b4e <isl_prepareVMCS+0x1a26>
    7b3f:	a1 5c 9e 00 70       	mov    0x70009e5c,%eax
    7b44:	05 ff 0f 00 00       	add    $0xfff,%eax
    7b49:	a3 5c 9e 00 70       	mov    %eax,0x70009e5c
    7b4e:	8b 4d e0             	mov    -0x20(%ebp),%ecx
    7b51:	8b 5d e4             	mov    -0x1c(%ebp),%ebx
    7b54:	89 c8                	mov    %ecx,%eax
    7b56:	83 e0 00             	and    $0x0,%eax
    7b59:	89 da                	mov    %ebx,%edx
    7b5b:	81 e2 00 ff ff 00    	and    $0xffff00,%edx
    7b61:	89 d0                	mov    %edx,%eax
    7b63:	31 d2                	xor    %edx,%edx
    7b65:	c1 e8 08             	shr    $0x8,%eax
    7b68:	a3 84 9e 00 70       	mov    %eax,0x70009e84
    7b6d:	0f b7 05 a4 9e 00 70 	movzwl 0x70009ea4,%eax
    7b74:	66 c1 e8 03          	shr    $0x3,%ax
    7b78:	0f b7 c0             	movzwl %ax,%eax
    7b7b:	c1 e0 03             	shl    $0x3,%eax
    7b7e:	03 45 dc             	add    -0x24(%ebp),%eax
    7b81:	8b 50 04             	mov    0x4(%eax),%edx
    7b84:	8b 00                	mov    (%eax),%eax
    7b86:	89 45 e0             	mov    %eax,-0x20(%ebp)
    7b89:	89 55 e4             	mov    %edx,-0x1c(%ebp)
    7b8c:	8b 4d e0             	mov    -0x20(%ebp),%ecx
    7b8f:	8b 5d e4             	mov    -0x1c(%ebp),%ebx
    7b92:	89 c8                	mov    %ecx,%eax
    7b94:	66 b8 00 00          	mov    $0x0,%ax
    7b98:	0f b6 d3             	movzbl %bl,%edx
    7b9b:	0f ac d0 10          	shrd   $0x10,%edx,%eax
    7b9f:	c1 ea 10             	shr    $0x10,%edx
    7ba2:	89 c6                	mov    %eax,%esi
    7ba4:	8b 4d e0             	mov    -0x20(%ebp),%ecx
    7ba7:	8b 5d e4             	mov    -0x1c(%ebp),%ebx
    7baa:	89 c8                	mov    %ecx,%eax
    7bac:	83 e0 00             	and    $0x0,%eax
    7baf:	89 da                	mov    %ebx,%edx
    7bb1:	81 e2 00 00 00 ff    	and    $0xff000000,%edx
    7bb7:	89 d0                	mov    %edx,%eax
    7bb9:	31 d2                	xor    %edx,%edx
    7bbb:	09 f0                	or     %esi,%eax
    7bbd:	ba 00 00 00 00       	mov    $0x0,%edx
    7bc2:	a3 d0 9d 00 70       	mov    %eax,0x70009dd0
    7bc7:	89 15 d4 9d 00 70    	mov    %edx,0x70009dd4
    7bcd:	8b 45 e0             	mov    -0x20(%ebp),%eax
    7bd0:	0f b7 f0             	movzwl %ax,%esi
    7bd3:	8b 4d e0             	mov    -0x20(%ebp),%ecx
    7bd6:	8b 5d e4             	mov    -0x1c(%ebp),%ebx
    7bd9:	89 c8                	mov    %ecx,%eax
    7bdb:	83 e0 00             	and    $0x0,%eax
    7bde:	89 da                	mov    %ebx,%edx
    7be0:	81 e2 00 00 0f 00    	and    $0xf0000,%edx
    7be6:	89 d0                	mov    %edx,%eax
    7be8:	31 d2                	xor    %edx,%edx
    7bea:	09 f0                	or     %esi,%eax
    7bec:	a3 50 9e 00 70       	mov    %eax,0x70009e50
    7bf1:	8b 4d e0             	mov    -0x20(%ebp),%ecx
    7bf4:	8b 5d e4             	mov    -0x1c(%ebp),%ebx
    7bf7:	89 c8                	mov    %ecx,%eax
    7bf9:	83 e0 00             	and    $0x0,%eax
    7bfc:	89 da                	mov    %ebx,%edx
    7bfe:	81 e2 00 00 f0 00    	and    $0xf00000,%edx
    7c04:	89 d0                	mov    %edx,%eax
    7c06:	31 d2                	xor    %edx,%edx
    7c08:	c1 e8 17             	shr    $0x17,%eax
    7c0b:	89 45 ec             	mov    %eax,-0x14(%ebp)
    7c0e:	83 7d ec 00          	cmpl   $0x0,-0x14(%ebp)
    7c12:	0f 94 c0             	sete   %al
    7c15:	0f b6 c0             	movzbl %al,%eax
    7c18:	89 45 ec             	mov    %eax,-0x14(%ebp)
    7c1b:	a1 50 9e 00 70       	mov    0x70009e50,%eax
    7c20:	0f af 45 ec          	imul   -0x14(%ebp),%eax
    7c24:	a3 50 9e 00 70       	mov    %eax,0x70009e50
    7c29:	81 7d ec 00 10 00 00 	cmpl   $0x1000,-0x14(%ebp)
    7c30:	75 0f                	jne    7c41 <isl_prepareVMCS+0x1b19>
    7c32:	a1 50 9e 00 70       	mov    0x70009e50,%eax
    7c37:	05 ff 0f 00 00       	add    $0xfff,%eax
    7c3c:	a3 50 9e 00 70       	mov    %eax,0x70009e50
    7c41:	8b 4d e0             	mov    -0x20(%ebp),%ecx
    7c44:	8b 5d e4             	mov    -0x1c(%ebp),%ebx
    7c47:	89 c8                	mov    %ecx,%eax
    7c49:	83 e0 00             	and    $0x0,%eax
    7c4c:	89 da                	mov    %ebx,%edx
    7c4e:	81 e2 00 ff ff 00    	and    $0xffff00,%edx
    7c54:	89 d0                	mov    %edx,%eax
    7c56:	31 d2                	xor    %edx,%edx
    7c58:	c1 e8 08             	shr    $0x8,%eax
    7c5b:	a3 78 9e 00 70       	mov    %eax,0x70009e78
    7c60:	8b 0d 28 9e 00 70    	mov    0x70009e28,%ecx
    7c66:	8b 1d 2c 9e 00 70    	mov    0x70009e2c,%ebx
    7c6c:	89 c8                	mov    %ecx,%eax
    7c6e:	25 00 40 00 00       	and    $0x4000,%eax
    7c73:	89 da                	mov    %ebx,%edx
    7c75:	83 e2 00             	and    $0x0,%edx
    7c78:	09 d0                	or     %edx,%eax
    7c7a:	85 c0                	test   %eax,%eax
    7c7c:	74 0d                	je     7c8b <isl_prepareVMCS+0x1b63>
    7c7e:	c7 04 24 94 60 00 70 	movl   $0x70006094,(%esp)
    7c85:	e8 ee 10 00 00       	call   8d78 <printf>
    7c8a:	f4                   	hlt    
    7c8b:	a1 28 9e 00 70       	mov    0x70009e28,%eax
    7c90:	8b 15 2c 9e 00 70    	mov    0x70009e2c,%edx
    7c96:	89 c1                	mov    %eax,%ecx
    7c98:	81 e1 00 30 00 00    	and    $0x3000,%ecx
    7c9e:	89 d3                	mov    %edx,%ebx
    7ca0:	83 e3 00             	and    $0x0,%ebx
    7ca3:	89 d8                	mov    %ebx,%eax
    7ca5:	09 c8                	or     %ecx,%eax
    7ca7:	85 c0                	test   %eax,%eax
    7ca9:	74 0d                	je     7cb8 <isl_prepareVMCS+0x1b90>
    7cab:	c7 04 24 c4 60 00 70 	movl   $0x700060c4,(%esp)
    7cb2:	e8 c1 10 00 00       	call   8d78 <printf>
    7cb7:	f4                   	hlt    
    7cb8:	8b 0d 28 9e 00 70    	mov    0x70009e28,%ecx
    7cbe:	8b 1d 2c 9e 00 70    	mov    0x70009e2c,%ebx
    7cc4:	89 c8                	mov    %ecx,%eax
    7cc6:	25 d7 7f ff ff       	and    $0xffff7fd7,%eax
    7ccb:	89 da                	mov    %ebx,%edx
    7ccd:	80 e6 ff             	and    $0xff,%dh
    7cd0:	a3 28 9e 00 70       	mov    %eax,0x70009e28
    7cd5:	89 15 2c 9e 00 70    	mov    %edx,0x70009e2c
    7cdb:	8b 0d 28 9e 00 70    	mov    0x70009e28,%ecx
    7ce1:	8b 1d 2c 9e 00 70    	mov    0x70009e2c,%ebx
    7ce7:	89 c8                	mov    %ecx,%eax
    7ce9:	83 c8 02             	or     $0x2,%eax
    7cec:	89 da                	mov    %ebx,%edx
    7cee:	80 ce 00             	or     $0x0,%dh
    7cf1:	a3 28 9e 00 70       	mov    %eax,0x70009e28
    7cf6:	89 15 2c 9e 00 70    	mov    %edx,0x70009e2c
    7cfc:	8b 0d 28 9e 00 70    	mov    0x70009e28,%ecx
    7d02:	8b 1d 2c 9e 00 70    	mov    0x70009e2c,%ebx
    7d08:	89 c8                	mov    %ecx,%eax
    7d0a:	0d 00 00 02 00       	or     $0x20000,%eax
    7d0f:	89 da                	mov    %ebx,%edx
    7d11:	80 ce 00             	or     $0x0,%dh
    7d14:	a3 28 9e 00 70       	mov    %eax,0x70009e28
    7d19:	89 15 2c 9e 00 70    	mov    %edx,0x70009e2c
    7d1f:	8b 0d 28 9e 00 70    	mov    0x70009e28,%ecx
    7d25:	8b 1d 2c 9e 00 70    	mov    0x70009e2c,%ebx
    7d2b:	89 c8                	mov    %ecx,%eax
    7d2d:	80 cc 30             	or     $0x30,%ah
    7d30:	89 da                	mov    %ebx,%edx
    7d32:	80 ce 00             	or     $0x0,%dh
    7d35:	a3 28 9e 00 70       	mov    %eax,0x70009e28
    7d3a:	89 15 2c 9e 00 70    	mov    %edx,0x70009e2c
    7d40:	8b 0d 28 9e 00 70    	mov    0x70009e28,%ecx
    7d46:	8b 1d 2c 9e 00 70    	mov    0x70009e2c,%ebx
    7d4c:	89 c8                	mov    %ecx,%eax
    7d4e:	80 e4 bf             	and    $0xbf,%ah
    7d51:	89 da                	mov    %ebx,%edx
    7d53:	80 e6 ff             	and    $0xff,%dh
    7d56:	a3 28 9e 00 70       	mov    %eax,0x70009e28
    7d5b:	89 15 2c 9e 00 70    	mov    %edx,0x70009e2c
    7d61:	8b 35 80 9f 00 70    	mov    0x70009f80,%esi
    7d67:	8b 3d 84 9f 00 70    	mov    0x70009f84,%edi
    7d6d:	8b 0d a8 9d 00 70    	mov    0x70009da8,%ecx
    7d73:	8b 1d ac 9d 00 70    	mov    0x70009dac,%ebx
    7d79:	89 f0                	mov    %esi,%eax
    7d7b:	09 c8                	or     %ecx,%eax
    7d7d:	89 fa                	mov    %edi,%edx
    7d7f:	09 da                	or     %ebx,%edx
    7d81:	a3 a8 9d 00 70       	mov    %eax,0x70009da8
    7d86:	89 15 ac 9d 00 70    	mov    %edx,0x70009dac
    7d8c:	8b 0d a8 9d 00 70    	mov    0x70009da8,%ecx
    7d92:	8b 1d ac 9d 00 70    	mov    0x70009dac,%ebx
    7d98:	89 c8                	mov    %ecx,%eax
    7d9a:	0d 00 00 01 00       	or     $0x10000,%eax
    7d9f:	89 da                	mov    %ebx,%edx
    7da1:	80 ce 00             	or     $0x0,%dh
    7da4:	a3 a8 9d 00 70       	mov    %eax,0x70009da8
    7da9:	89 15 ac 9d 00 70    	mov    %edx,0x70009dac
    7daf:	b8 00 50 02 70       	mov    $0x70025000,%eax
    7db4:	ba 00 00 00 00       	mov    $0x0,%edx
    7db9:	a3 b0 9d 00 70       	mov    %eax,0x70009db0
    7dbe:	89 15 b4 9d 00 70    	mov    %edx,0x70009db4
    7dc4:	c7 05 b0 9e 00 70 ff 	movl   $0xffffffff,0x70009eb0
    7dcb:	ff ff ff 
    7dce:	c7 05 b4 9e 00 70 ff 	movl   $0xffffffff,0x70009eb4
    7dd5:	ff ff ff 
    7dd8:	b8 00 60 42 70       	mov    $0x70426000,%eax
    7ddd:	ba 00 00 00 00       	mov    $0x0,%edx
    7de2:	a3 08 9e 00 70       	mov    %eax,0x70009e08
    7de7:	89 15 0c 9e 00 70    	mov    %edx,0x70009e0c
    7ded:	b8 00 70 42 70       	mov    $0x70427000,%eax
    7df2:	ba 00 00 00 00       	mov    $0x0,%edx
    7df7:	a3 00 9e 00 70       	mov    %eax,0x70009e00
    7dfc:	89 15 04 9e 00 70    	mov    %edx,0x70009e04
    7e02:	b8 00 c0 42 70       	mov    $0x7042c000,%eax
    7e07:	ba 00 00 00 00       	mov    $0x0,%edx
    7e0c:	a3 f0 9d 00 70       	mov    %eax,0x70009df0
    7e11:	89 15 f4 9d 00 70    	mov    %edx,0x70009df4
    7e17:	b8 00 80 42 70       	mov    $0x70428000,%eax
    7e1c:	ba 00 00 00 00       	mov    $0x0,%edx
    7e21:	a3 f8 9d 00 70       	mov    %eax,0x70009df8
    7e26:	89 15 fc 9d 00 70    	mov    %edx,0x70009dfc
    7e2c:	c7 05 6c 9e 00 70 ff 	movl   $0x7ff,0x70009e6c
    7e33:	07 00 00 
    7e36:	c7 05 68 9e 00 70 17 	movl   $0x17,0x70009e68
    7e3d:	00 00 00 
    7e40:	c7 05 60 9e 00 70 1f 	movl   $0x1f,0x70009e60
    7e47:	00 00 00 
    7e4a:	c7 05 64 9e 00 70 88 	movl   $0x2088,0x70009e64
    7e51:	20 00 00 
    7e54:	c7 05 88 9e 00 70 82 	movl   $0x82,0x70009e88
    7e5b:	00 00 00 
    7e5e:	c7 05 8c 9e 00 70 8b 	movl   $0x8b,0x70009e8c
    7e65:	00 00 00 
    7e68:	66 c7 05 ac 9e 00 70 	movw   $0x10,0x70009eac
    7e6f:	10 00 
    7e71:	66 c7 05 ae 9e 00 70 	movw   $0x8,0x70009eae
    7e78:	08 00 
    7e7a:	c7 05 70 9e 00 70 f3 	movl   $0xf3,0x70009e70
    7e81:	00 00 00 
    7e84:	c7 05 74 9e 00 70 f3 	movl   $0xf3,0x70009e74
    7e8b:	00 00 00 
    7e8e:	c7 05 78 9e 00 70 f3 	movl   $0xf3,0x70009e78
    7e95:	00 00 00 
    7e98:	c7 05 7c 9e 00 70 f3 	movl   $0xf3,0x70009e7c
    7e9f:	00 00 00 
    7ea2:	c7 05 80 9e 00 70 f3 	movl   $0xf3,0x70009e80
    7ea9:	00 00 00 
    7eac:	c7 05 84 9e 00 70 f3 	movl   $0xf3,0x70009e84
    7eb3:	00 00 00 
    7eb6:	a1 c8 9d 00 70       	mov    0x70009dc8,%eax
    7ebb:	8b 15 cc 9d 00 70    	mov    0x70009dcc,%edx
    7ec1:	0f ac d0 04          	shrd   $0x4,%edx,%eax
    7ec5:	c1 ea 04             	shr    $0x4,%edx
    7ec8:	66 a3 a2 9e 00 70    	mov    %ax,0x70009ea2
    7ece:	a1 d8 9d 00 70       	mov    0x70009dd8,%eax
    7ed3:	8b 15 dc 9d 00 70    	mov    0x70009ddc,%edx
    7ed9:	0f ac d0 04          	shrd   $0x4,%edx,%eax
    7edd:	c1 ea 04             	shr    $0x4,%edx
    7ee0:	66 a3 a6 9e 00 70    	mov    %ax,0x70009ea6
    7ee6:	a1 c0 9d 00 70       	mov    0x70009dc0,%eax
    7eeb:	8b 15 c4 9d 00 70    	mov    0x70009dc4,%edx
    7ef1:	0f ac d0 04          	shrd   $0x4,%edx,%eax
    7ef5:	c1 ea 04             	shr    $0x4,%edx
    7ef8:	66 a3 a0 9e 00 70    	mov    %ax,0x70009ea0
    7efe:	a1 e0 9d 00 70       	mov    0x70009de0,%eax
    7f03:	8b 15 e4 9d 00 70    	mov    0x70009de4,%edx
    7f09:	0f ac d0 04          	shrd   $0x4,%edx,%eax
    7f0d:	c1 ea 04             	shr    $0x4,%edx
    7f10:	66 a3 a8 9e 00 70    	mov    %ax,0x70009ea8
    7f16:	a1 e8 9d 00 70       	mov    0x70009de8,%eax
    7f1b:	8b 15 ec 9d 00 70    	mov    0x70009dec,%edx
    7f21:	0f ac d0 04          	shrd   $0x4,%edx,%eax
    7f25:	c1 ea 04             	shr    $0x4,%edx
    7f28:	66 a3 aa 9e 00 70    	mov    %ax,0x70009eaa
    7f2e:	a1 d0 9d 00 70       	mov    0x70009dd0,%eax
    7f33:	8b 15 d4 9d 00 70    	mov    0x70009dd4,%edx
    7f39:	0f ac d0 04          	shrd   $0x4,%edx,%eax
    7f3d:	c1 ea 04             	shr    $0x4,%edx
    7f40:	66 a3 a4 9e 00 70    	mov    %ax,0x70009ea4
    7f46:	a1 18 9e 00 70       	mov    0x70009e18,%eax
    7f4b:	8b 15 1c 9e 00 70    	mov    0x70009e1c,%edx
    7f51:	a3 a4 97 00 70       	mov    %eax,0x700097a4
    7f56:	a1 a4 97 00 70       	mov    0x700097a4,%eax
    7f5b:	66 b8 00 00          	mov    $0x0,%ax
    7f5f:	a3 a4 97 00 70       	mov    %eax,0x700097a4
    7f64:	8b 0d 18 9e 00 70    	mov    0x70009e18,%ecx
    7f6a:	8b 1d 1c 9e 00 70    	mov    0x70009e1c,%ebx
    7f70:	0f b7 c1             	movzwl %cx,%eax
    7f73:	89 da                	mov    %ebx,%edx
    7f75:	83 e2 00             	and    $0x0,%edx
    7f78:	a3 18 9e 00 70       	mov    %eax,0x70009e18
    7f7d:	89 15 1c 9e 00 70    	mov    %edx,0x70009e1c
    7f83:	a1 6c 9c 00 70       	mov    0x70009c6c,%eax
    7f88:	0c 80                	or     $0x80,%al
    7f8a:	a3 6c 9c 00 70       	mov    %eax,0x70009c6c
    7f8f:	8b 45 0c             	mov    0xc(%ebp),%eax
    7f92:	89 85 4c ff ff ff    	mov    %eax,-0xb4(%ebp)
    7f98:	eb 25                	jmp    7fbf <isl_prepareVMCS+0x1e97>
    7f9a:	8b 45 0c             	mov    0xc(%ebp),%eax
    7f9d:	89 44 24 08          	mov    %eax,0x8(%esp)
    7fa1:	8b 45 08             	mov    0x8(%ebp),%eax
    7fa4:	89 44 24 04          	mov    %eax,0x4(%esp)
    7fa8:	c7 04 24 f0 60 00 70 	movl   $0x700060f0,(%esp)
    7faf:	e8 c4 0d 00 00       	call   8d78 <printf>
    7fb4:	f4                   	hlt    
    7fb5:	c7 85 4c ff ff ff 00 	movl   $0x0,-0xb4(%ebp)
    7fbc:	00 00 00 
    7fbf:	8b 85 4c ff ff ff    	mov    -0xb4(%ebp),%eax
    7fc5:	81 c4 bc 00 00 00    	add    $0xbc,%esp
    7fcb:	5b                   	pop    %ebx
    7fcc:	5e                   	pop    %esi
    7fcd:	5f                   	pop    %edi
    7fce:	5d                   	pop    %ebp
    7fcf:	c3                   	ret    

0000000000007fd0 <rdmsr>:
    7fd0:	55                   	push   %ebp
    7fd1:	89 e5                	mov    %esp,%ebp
    7fd3:	83 ec 04             	sub    $0x4,%esp
    7fd6:	8b 4d 08             	mov    0x8(%ebp),%ecx
    7fd9:	0f 32                	rdmsr  
    7fdb:	89 d1                	mov    %edx,%ecx
    7fdd:	89 45 fc             	mov    %eax,-0x4(%ebp)
    7fe0:	8b 45 0c             	mov    0xc(%ebp),%eax
    7fe3:	8b 55 fc             	mov    -0x4(%ebp),%edx
    7fe6:	89 10                	mov    %edx,(%eax)
    7fe8:	8b 45 10             	mov    0x10(%ebp),%eax
    7feb:	89 08                	mov    %ecx,(%eax)
    7fed:	c9                   	leave  
    7fee:	c3                   	ret    
    7fef:	90                   	nop    

0000000000007ff0 <elements>:
    7ff0:	6f                   	outsl  %ds:(%esi),(%dx)
    7ff1:	00 00                	add    %al,(%eax)
	...

0000000000007ff4 <rocount>:
    7ff4:	19 00                	sbb    %eax,(%eax)
    7ff6:	00 00                	add    %al,(%eax)
    7ff8:	90                   	nop    
    7ff9:	90                   	nop    
    7ffa:	90                   	nop    
    7ffb:	90                   	nop    
    7ffc:	90                   	nop    
    7ffd:	90                   	nop    
    7ffe:	90                   	nop    
    7fff:	90                   	nop    

0000000000008000 <strchr>:
    8000:	55                   	push   %ebp
    8001:	89 e5                	mov    %esp,%ebp
    8003:	56                   	push   %esi
    8004:	83 ec 10             	sub    $0x10,%esp
    8007:	8b 45 08             	mov    0x8(%ebp),%eax
    800a:	8b 55 0c             	mov    0xc(%ebp),%edx
    800d:	89 c6                	mov    %eax,%esi
    800f:	89 d0                	mov    %edx,%eax
    8011:	88 c4                	mov    %al,%ah
    8013:	ac                   	lods   %ds:(%esi),%al
    8014:	38 e0                	cmp    %ah,%al
    8016:	74 09                	je     8021 <strchr+0x21>
    8018:	84 c0                	test   %al,%al
    801a:	75 f7                	jne    8013 <strchr+0x13>
    801c:	be 01 00 00 00       	mov    $0x1,%esi
    8021:	89 f0                	mov    %esi,%eax
    8023:	48                   	dec    %eax
    8024:	89 75 f8             	mov    %esi,-0x8(%ebp)
    8027:	83 c4 10             	add    $0x10,%esp
    802a:	5e                   	pop    %esi
    802b:	5d                   	pop    %ebp
    802c:	c3                   	ret    

000000000000802d <strnlen>:
    802d:	55                   	push   %ebp
    802e:	89 e5                	mov    %esp,%ebp
    8030:	83 ec 10             	sub    $0x10,%esp
    8033:	8b 45 08             	mov    0x8(%ebp),%eax
    8036:	89 45 fc             	mov    %eax,-0x4(%ebp)
    8039:	eb 04                	jmp    803f <strnlen+0x12>
    803b:	83 45 fc 01          	addl   $0x1,-0x4(%ebp)
    803f:	83 7d 0c 00          	cmpl   $0x0,0xc(%ebp)
    8043:	0f 95 c0             	setne  %al
    8046:	83 6d 0c 01          	subl   $0x1,0xc(%ebp)
    804a:	83 f0 01             	xor    $0x1,%eax
    804d:	84 c0                	test   %al,%al
    804f:	75 0a                	jne    805b <strnlen+0x2e>
    8051:	8b 45 fc             	mov    -0x4(%ebp),%eax
    8054:	0f b6 00             	movzbl (%eax),%eax
    8057:	84 c0                	test   %al,%al
    8059:	75 e0                	jne    803b <strnlen+0xe>
    805b:	8b 55 fc             	mov    -0x4(%ebp),%edx
    805e:	8b 45 08             	mov    0x8(%ebp),%eax
    8061:	89 d1                	mov    %edx,%ecx
    8063:	29 c1                	sub    %eax,%ecx
    8065:	89 c8                	mov    %ecx,%eax
    8067:	c9                   	leave  
    8068:	c3                   	ret    

0000000000008069 <memcpy>:
    8069:	55                   	push   %ebp
    806a:	89 e5                	mov    %esp,%ebp
    806c:	57                   	push   %edi
    806d:	56                   	push   %esi
    806e:	53                   	push   %ebx
    806f:	83 ec 10             	sub    $0x10,%esp
    8072:	8b 45 10             	mov    0x10(%ebp),%eax
    8075:	c1 e8 02             	shr    $0x2,%eax
    8078:	8b 55 08             	mov    0x8(%ebp),%edx
    807b:	8b 5d 0c             	mov    0xc(%ebp),%ebx
    807e:	89 c1                	mov    %eax,%ecx
    8080:	89 d7                	mov    %edx,%edi
    8082:	89 de                	mov    %ebx,%esi
    8084:	f3 a5                	rep movsl %ds:(%esi),%es:(%edi)
    8086:	8b 4d 10             	mov    0x10(%ebp),%ecx
    8089:	83 e1 03             	and    $0x3,%ecx
    808c:	74 02                	je     8090 <memcpy+0x27>
    808e:	f3 a4                	rep movsb %ds:(%esi),%es:(%edi)
    8090:	89 4d e8             	mov    %ecx,-0x18(%ebp)
    8093:	89 7d ec             	mov    %edi,-0x14(%ebp)
    8096:	89 75 f0             	mov    %esi,-0x10(%ebp)
    8099:	8b 45 08             	mov    0x8(%ebp),%eax
    809c:	83 c4 10             	add    $0x10,%esp
    809f:	5b                   	pop    %ebx
    80a0:	5e                   	pop    %esi
    80a1:	5f                   	pop    %edi
    80a2:	5d                   	pop    %ebp
    80a3:	c3                   	ret    

00000000000080a4 <memset>:
    80a4:	55                   	push   %ebp
    80a5:	89 e5                	mov    %esp,%ebp
    80a7:	83 ec 04             	sub    $0x4,%esp
    80aa:	8b 45 08             	mov    0x8(%ebp),%eax
    80ad:	89 45 fc             	mov    %eax,-0x4(%ebp)
    80b0:	eb 0c                	jmp    80be <memset+0x1a>
    80b2:	8b 45 0c             	mov    0xc(%ebp),%eax
    80b5:	8b 55 fc             	mov    -0x4(%ebp),%edx
    80b8:	88 02                	mov    %al,(%edx)
    80ba:	83 45 fc 01          	addl   $0x1,-0x4(%ebp)
    80be:	83 7d 10 00          	cmpl   $0x0,0x10(%ebp)
    80c2:	0f 95 c0             	setne  %al
    80c5:	83 6d 10 01          	subl   $0x1,0x10(%ebp)
    80c9:	84 c0                	test   %al,%al
    80cb:	75 e5                	jne    80b2 <memset+0xe>
    80cd:	8b 45 08             	mov    0x8(%ebp),%eax
    80d0:	c9                   	leave  
    80d1:	c3                   	ret    

00000000000080d2 <strncmp>:
    80d2:	55                   	push   %ebp
    80d3:	89 e5                	mov    %esp,%ebp
    80d5:	57                   	push   %edi
    80d6:	56                   	push   %esi
    80d7:	83 ec 10             	sub    $0x10,%esp
    80da:	8b 45 08             	mov    0x8(%ebp),%eax
    80dd:	8b 55 0c             	mov    0xc(%ebp),%edx
    80e0:	8b 4d 10             	mov    0x10(%ebp),%ecx
    80e3:	89 c6                	mov    %eax,%esi
    80e5:	89 d7                	mov    %edx,%edi
    80e7:	49                   	dec    %ecx
    80e8:	78 08                	js     80f2 <strncmp+0x20>
    80ea:	ac                   	lods   %ds:(%esi),%al
    80eb:	ae                   	scas   %es:(%edi),%al
    80ec:	75 08                	jne    80f6 <strncmp+0x24>
    80ee:	84 c0                	test   %al,%al
    80f0:	75 f5                	jne    80e7 <strncmp+0x15>
    80f2:	31 c0                	xor    %eax,%eax
    80f4:	eb 04                	jmp    80fa <strncmp+0x28>
    80f6:	19 c0                	sbb    %eax,%eax
    80f8:	0c 01                	or     $0x1,%al
    80fa:	89 45 e8             	mov    %eax,-0x18(%ebp)
    80fd:	89 75 ec             	mov    %esi,-0x14(%ebp)
    8100:	89 7d f0             	mov    %edi,-0x10(%ebp)
    8103:	89 4d f4             	mov    %ecx,-0xc(%ebp)
    8106:	8b 45 e8             	mov    -0x18(%ebp),%eax
    8109:	83 c4 10             	add    $0x10,%esp
    810c:	5e                   	pop    %esi
    810d:	5f                   	pop    %edi
    810e:	5d                   	pop    %ebp
    810f:	c3                   	ret    

0000000000008110 <skip_atoi>:
    8110:	55                   	push   %ebp
    8111:	89 e5                	mov    %esp,%ebp
    8113:	83 ec 10             	sub    $0x10,%esp
    8116:	c7 45 fc 00 00 00 00 	movl   $0x0,-0x4(%ebp)
    811d:	eb 2a                	jmp    8149 <skip_atoi+0x39>
    811f:	8b 55 fc             	mov    -0x4(%ebp),%edx
    8122:	89 d0                	mov    %edx,%eax
    8124:	c1 e0 02             	shl    $0x2,%eax
    8127:	01 d0                	add    %edx,%eax
    8129:	01 c0                	add    %eax,%eax
    812b:	89 c2                	mov    %eax,%edx
    812d:	8b 45 08             	mov    0x8(%ebp),%eax
    8130:	8b 08                	mov    (%eax),%ecx
    8132:	0f b6 01             	movzbl (%ecx),%eax
    8135:	0f be c0             	movsbl %al,%eax
    8138:	8d 04 02             	lea    (%edx,%eax,1),%eax
    813b:	83 e8 30             	sub    $0x30,%eax
    813e:	89 45 fc             	mov    %eax,-0x4(%ebp)
    8141:	8d 51 01             	lea    0x1(%ecx),%edx
    8144:	8b 45 08             	mov    0x8(%ebp),%eax
    8147:	89 10                	mov    %edx,(%eax)
    8149:	8b 45 08             	mov    0x8(%ebp),%eax
    814c:	8b 00                	mov    (%eax),%eax
    814e:	0f b6 00             	movzbl (%eax),%eax
    8151:	0f b6 c0             	movzbl %al,%eax
    8154:	0f b6 80 40 a0 00 70 	movzbl 0x7000a040(%eax),%eax
    815b:	0f b6 c0             	movzbl %al,%eax
    815e:	83 e0 04             	and    $0x4,%eax
    8161:	85 c0                	test   %eax,%eax
    8163:	75 ba                	jne    811f <skip_atoi+0xf>
    8165:	8b 45 fc             	mov    -0x4(%ebp),%eax
    8168:	c9                   	leave  
    8169:	c3                   	ret    

000000000000816a <number>:
    816a:	55                   	push   %ebp
    816b:	89 e5                	mov    %esp,%ebp
    816d:	81 ec d8 00 00 00    	sub    $0xd8,%esp
    8173:	8b 45 10             	mov    0x10(%ebp),%eax
    8176:	89 85 48 ff ff ff    	mov    %eax,-0xb8(%ebp)
    817c:	8b 45 14             	mov    0x14(%ebp),%eax
    817f:	89 85 4c ff ff ff    	mov    %eax,-0xb4(%ebp)
    8185:	c7 85 7b ff ff ff 30 	movl   $0x33323130,-0x85(%ebp)
    818c:	31 32 33 
    818f:	c7 85 7f ff ff ff 34 	movl   $0x37363534,-0x81(%ebp)
    8196:	35 36 37 
    8199:	c7 45 83 38 39 61 62 	movl   $0x62613938,-0x7d(%ebp)
    81a0:	c7 45 87 63 64 65 66 	movl   $0x66656463,-0x79(%ebp)
    81a7:	c7 45 8b 67 68 69 6a 	movl   $0x6a696867,-0x75(%ebp)
    81ae:	c7 45 8f 6b 6c 6d 6e 	movl   $0x6e6d6c6b,-0x71(%ebp)
    81b5:	c7 45 93 6f 70 71 72 	movl   $0x7271706f,-0x6d(%ebp)
    81bc:	c7 45 97 73 74 75 76 	movl   $0x76757473,-0x69(%ebp)
    81c3:	c7 45 9b 77 78 79 7a 	movl   $0x7a797877,-0x65(%ebp)
    81ca:	c6 45 9f 00          	movb   $0x0,-0x61(%ebp)
    81ce:	c7 85 56 ff ff ff 30 	movl   $0x33323130,-0xaa(%ebp)
    81d5:	31 32 33 
    81d8:	c7 85 5a ff ff ff 34 	movl   $0x37363534,-0xa6(%ebp)
    81df:	35 36 37 
    81e2:	c7 85 5e ff ff ff 38 	movl   $0x42413938,-0xa2(%ebp)
    81e9:	39 41 42 
    81ec:	c7 85 62 ff ff ff 43 	movl   $0x46454443,-0x9e(%ebp)
    81f3:	44 45 46 
    81f6:	c7 85 66 ff ff ff 47 	movl   $0x4a494847,-0x9a(%ebp)
    81fd:	48 49 4a 
    8200:	c7 85 6a ff ff ff 4b 	movl   $0x4e4d4c4b,-0x96(%ebp)
    8207:	4c 4d 4e 
    820a:	c7 85 6e ff ff ff 4f 	movl   $0x5251504f,-0x92(%ebp)
    8211:	50 51 52 
    8214:	c7 85 72 ff ff ff 53 	movl   $0x56555453,-0x8e(%ebp)
    821b:	54 55 56 
    821e:	c7 85 76 ff ff ff 57 	movl   $0x5a595857,-0x8a(%ebp)
    8225:	58 59 5a 
    8228:	c6 85 7a ff ff ff 00 	movb   $0x0,-0x86(%ebp)
    822f:	8b 45 24             	mov    0x24(%ebp),%eax
    8232:	83 e0 40             	and    $0x40,%eax
    8235:	85 c0                	test   %eax,%eax
    8237:	74 0e                	je     8247 <number+0xdd>
    8239:	8d 85 56 ff ff ff    	lea    -0xaa(%ebp),%eax
    823f:	89 85 38 ff ff ff    	mov    %eax,-0xc8(%ebp)
    8245:	eb 0c                	jmp    8253 <number+0xe9>
    8247:	8d 95 7b ff ff ff    	lea    -0x85(%ebp),%edx
    824d:	89 95 38 ff ff ff    	mov    %edx,-0xc8(%ebp)
    8253:	8b 85 38 ff ff ff    	mov    -0xc8(%ebp),%eax
    8259:	89 45 e4             	mov    %eax,-0x1c(%ebp)
    825c:	8b 45 24             	mov    0x24(%ebp),%eax
    825f:	83 e0 10             	and    $0x10,%eax
    8262:	85 c0                	test   %eax,%eax
    8264:	74 04                	je     826a <number+0x100>
    8266:	83 65 24 fe          	andl   $0xfffffffe,0x24(%ebp)
    826a:	83 7d 18 01          	cmpl   $0x1,0x18(%ebp)
    826e:	7e 06                	jle    8276 <number+0x10c>
    8270:	83 7d 18 24          	cmpl   $0x24,0x18(%ebp)
    8274:	7e 0f                	jle    8285 <number+0x11b>
    8276:	c7 85 3c ff ff ff 00 	movl   $0x0,-0xc4(%ebp)
    827d:	00 00 00 
    8280:	e9 df 02 00 00       	jmp    8564 <number+0x3fa>
    8285:	8b 45 24             	mov    0x24(%ebp),%eax
    8288:	83 e0 01             	and    $0x1,%eax
    828b:	84 c0                	test   %al,%al
    828d:	74 09                	je     8298 <number+0x12e>
    828f:	c6 85 43 ff ff ff 30 	movb   $0x30,-0xbd(%ebp)
    8296:	eb 07                	jmp    829f <number+0x135>
    8298:	c6 85 43 ff ff ff 20 	movb   $0x20,-0xbd(%ebp)
    829f:	0f b6 95 43 ff ff ff 	movzbl -0xbd(%ebp),%edx
    82a6:	88 55 e2             	mov    %dl,-0x1e(%ebp)
    82a9:	c6 45 e3 00          	movb   $0x0,-0x1d(%ebp)
    82ad:	8b 45 24             	mov    0x24(%ebp),%eax
    82b0:	83 e0 02             	and    $0x2,%eax
    82b3:	85 c0                	test   %eax,%eax
    82b5:	74 5f                	je     8316 <number+0x1ac>
    82b7:	8b 85 48 ff ff ff    	mov    -0xb8(%ebp),%eax
    82bd:	8b 95 4c ff ff ff    	mov    -0xb4(%ebp),%edx
    82c3:	85 d2                	test   %edx,%edx
    82c5:	79 29                	jns    82f0 <number+0x186>
    82c7:	c6 45 e3 2d          	movb   $0x2d,-0x1d(%ebp)
    82cb:	8b 85 48 ff ff ff    	mov    -0xb8(%ebp),%eax
    82d1:	8b 95 4c ff ff ff    	mov    -0xb4(%ebp),%edx
    82d7:	f7 d8                	neg    %eax
    82d9:	83 d2 00             	adc    $0x0,%edx
    82dc:	f7 da                	neg    %edx
    82de:	89 85 48 ff ff ff    	mov    %eax,-0xb8(%ebp)
    82e4:	89 95 4c ff ff ff    	mov    %edx,-0xb4(%ebp)
    82ea:	83 6d 1c 01          	subl   $0x1,0x1c(%ebp)
    82ee:	eb 26                	jmp    8316 <number+0x1ac>
    82f0:	8b 45 24             	mov    0x24(%ebp),%eax
    82f3:	83 e0 04             	and    $0x4,%eax
    82f6:	85 c0                	test   %eax,%eax
    82f8:	74 0a                	je     8304 <number+0x19a>
    82fa:	c6 45 e3 2b          	movb   $0x2b,-0x1d(%ebp)
    82fe:	83 6d 1c 01          	subl   $0x1,0x1c(%ebp)
    8302:	eb 12                	jmp    8316 <number+0x1ac>
    8304:	8b 45 24             	mov    0x24(%ebp),%eax
    8307:	83 e0 08             	and    $0x8,%eax
    830a:	85 c0                	test   %eax,%eax
    830c:	74 08                	je     8316 <number+0x1ac>
    830e:	c6 45 e3 20          	movb   $0x20,-0x1d(%ebp)
    8312:	83 6d 1c 01          	subl   $0x1,0x1c(%ebp)
    8316:	8b 45 24             	mov    0x24(%ebp),%eax
    8319:	83 e0 20             	and    $0x20,%eax
    831c:	85 c0                	test   %eax,%eax
    831e:	74 16                	je     8336 <number+0x1cc>
    8320:	83 7d 18 10          	cmpl   $0x10,0x18(%ebp)
    8324:	75 06                	jne    832c <number+0x1c2>
    8326:	83 6d 1c 02          	subl   $0x2,0x1c(%ebp)
    832a:	eb 0a                	jmp    8336 <number+0x1cc>
    832c:	83 7d 18 08          	cmpl   $0x8,0x18(%ebp)
    8330:	75 04                	jne    8336 <number+0x1cc>
    8332:	83 6d 1c 01          	subl   $0x1,0x1c(%ebp)
    8336:	c7 45 e8 00 00 00 00 	movl   $0x0,-0x18(%ebp)
    833d:	8b 85 48 ff ff ff    	mov    -0xb8(%ebp),%eax
    8343:	8b 95 4c ff ff ff    	mov    -0xb4(%ebp),%edx
    8349:	09 d0                	or     %edx,%eax
    834b:	85 c0                	test   %eax,%eax
    834d:	0f 85 9e 00 00 00    	jne    83f1 <number+0x287>
    8353:	8b 45 e8             	mov    -0x18(%ebp),%eax
    8356:	c6 44 05 a0 30       	movb   $0x30,-0x60(%ebp,%eax,1)
    835b:	83 45 e8 01          	addl   $0x1,-0x18(%ebp)
    835f:	e9 a3 00 00 00       	jmp    8407 <number+0x29d>
    8364:	8b 45 e8             	mov    -0x18(%ebp),%eax
    8367:	89 85 44 ff ff ff    	mov    %eax,-0xbc(%ebp)
    836d:	8b 45 18             	mov    0x18(%ebp),%eax
    8370:	89 45 fc             	mov    %eax,-0x4(%ebp)
    8373:	8b 85 48 ff ff ff    	mov    -0xb8(%ebp),%eax
    8379:	8b 95 4c ff ff ff    	mov    -0xb4(%ebp),%edx
    837f:	89 45 f0             	mov    %eax,-0x10(%ebp)
    8382:	89 55 f4             	mov    %edx,-0xc(%ebp)
    8385:	8b 45 f4             	mov    -0xc(%ebp),%eax
    8388:	89 45 ec             	mov    %eax,-0x14(%ebp)
    838b:	83 7d f4 00          	cmpl   $0x0,-0xc(%ebp)
    838f:	74 28                	je     83b9 <number+0x24f>
    8391:	8b 55 f4             	mov    -0xc(%ebp),%edx
    8394:	89 95 2c ff ff ff    	mov    %edx,-0xd4(%ebp)
    839a:	8b 85 2c ff ff ff    	mov    -0xd4(%ebp),%eax
    83a0:	ba 00 00 00 00       	mov    $0x0,%edx
    83a5:	f7 75 fc             	divl   -0x4(%ebp)
    83a8:	89 55 ec             	mov    %edx,-0x14(%ebp)
    83ab:	8b 45 f4             	mov    -0xc(%ebp),%eax
    83ae:	ba 00 00 00 00       	mov    $0x0,%edx
    83b3:	f7 75 fc             	divl   -0x4(%ebp)
    83b6:	89 45 f4             	mov    %eax,-0xc(%ebp)
    83b9:	8b 45 f0             	mov    -0x10(%ebp),%eax
    83bc:	8b 55 ec             	mov    -0x14(%ebp),%edx
    83bf:	f7 75 fc             	divl   -0x4(%ebp)
    83c2:	89 45 f0             	mov    %eax,-0x10(%ebp)
    83c5:	89 55 f8             	mov    %edx,-0x8(%ebp)
    83c8:	8b 45 f0             	mov    -0x10(%ebp),%eax
    83cb:	8b 55 f4             	mov    -0xc(%ebp),%edx
    83ce:	89 85 48 ff ff ff    	mov    %eax,-0xb8(%ebp)
    83d4:	89 95 4c ff ff ff    	mov    %edx,-0xb4(%ebp)
    83da:	8b 45 f8             	mov    -0x8(%ebp),%eax
    83dd:	03 45 e4             	add    -0x1c(%ebp),%eax
    83e0:	0f b6 00             	movzbl (%eax),%eax
    83e3:	8b 95 44 ff ff ff    	mov    -0xbc(%ebp),%edx
    83e9:	88 44 15 a0          	mov    %al,-0x60(%ebp,%edx,1)
    83ed:	83 45 e8 01          	addl   $0x1,-0x18(%ebp)
    83f1:	8b 85 48 ff ff ff    	mov    -0xb8(%ebp),%eax
    83f7:	8b 95 4c ff ff ff    	mov    -0xb4(%ebp),%edx
    83fd:	09 d0                	or     %edx,%eax
    83ff:	85 c0                	test   %eax,%eax
    8401:	0f 85 5d ff ff ff    	jne    8364 <number+0x1fa>
    8407:	8b 45 e8             	mov    -0x18(%ebp),%eax
    840a:	3b 45 20             	cmp    0x20(%ebp),%eax
    840d:	7e 06                	jle    8415 <number+0x2ab>
    840f:	8b 45 e8             	mov    -0x18(%ebp),%eax
    8412:	89 45 20             	mov    %eax,0x20(%ebp)
    8415:	8b 45 20             	mov    0x20(%ebp),%eax
    8418:	29 45 1c             	sub    %eax,0x1c(%ebp)
    841b:	8b 45 24             	mov    0x24(%ebp),%eax
    841e:	83 e0 11             	and    $0x11,%eax
    8421:	85 c0                	test   %eax,%eax
    8423:	75 23                	jne    8448 <number+0x2de>
    8425:	eb 12                	jmp    8439 <number+0x2cf>
    8427:	8b 45 08             	mov    0x8(%ebp),%eax
    842a:	3b 45 0c             	cmp    0xc(%ebp),%eax
    842d:	77 06                	ja     8435 <number+0x2cb>
    842f:	8b 45 08             	mov    0x8(%ebp),%eax
    8432:	c6 00 20             	movb   $0x20,(%eax)
    8435:	83 45 08 01          	addl   $0x1,0x8(%ebp)
    8439:	83 7d 1c 00          	cmpl   $0x0,0x1c(%ebp)
    843d:	0f 9f c0             	setg   %al
    8440:	83 6d 1c 01          	subl   $0x1,0x1c(%ebp)
    8444:	84 c0                	test   %al,%al
    8446:	75 df                	jne    8427 <number+0x2bd>
    8448:	80 7d e3 00          	cmpb   $0x0,-0x1d(%ebp)
    844c:	74 15                	je     8463 <number+0x2f9>
    844e:	8b 45 08             	mov    0x8(%ebp),%eax
    8451:	3b 45 0c             	cmp    0xc(%ebp),%eax
    8454:	77 09                	ja     845f <number+0x2f5>
    8456:	8b 55 08             	mov    0x8(%ebp),%edx
    8459:	0f b6 45 e3          	movzbl -0x1d(%ebp),%eax
    845d:	88 02                	mov    %al,(%edx)
    845f:	83 45 08 01          	addl   $0x1,0x8(%ebp)
    8463:	8b 45 24             	mov    0x24(%ebp),%eax
    8466:	83 e0 20             	and    $0x20,%eax
    8469:	85 c0                	test   %eax,%eax
    846b:	74 4c                	je     84b9 <number+0x34f>
    846d:	83 7d 18 08          	cmpl   $0x8,0x18(%ebp)
    8471:	75 14                	jne    8487 <number+0x31d>
    8473:	8b 45 08             	mov    0x8(%ebp),%eax
    8476:	3b 45 0c             	cmp    0xc(%ebp),%eax
    8479:	77 06                	ja     8481 <number+0x317>
    847b:	8b 45 08             	mov    0x8(%ebp),%eax
    847e:	c6 00 30             	movb   $0x30,(%eax)
    8481:	83 45 08 01          	addl   $0x1,0x8(%ebp)
    8485:	eb 32                	jmp    84b9 <number+0x34f>
    8487:	83 7d 18 10          	cmpl   $0x10,0x18(%ebp)
    848b:	75 2c                	jne    84b9 <number+0x34f>
    848d:	8b 45 08             	mov    0x8(%ebp),%eax
    8490:	3b 45 0c             	cmp    0xc(%ebp),%eax
    8493:	77 06                	ja     849b <number+0x331>
    8495:	8b 45 08             	mov    0x8(%ebp),%eax
    8498:	c6 00 30             	movb   $0x30,(%eax)
    849b:	83 45 08 01          	addl   $0x1,0x8(%ebp)
    849f:	8b 45 08             	mov    0x8(%ebp),%eax
    84a2:	3b 45 0c             	cmp    0xc(%ebp),%eax
    84a5:	77 0e                	ja     84b5 <number+0x34b>
    84a7:	8b 45 e4             	mov    -0x1c(%ebp),%eax
    84aa:	83 c0 21             	add    $0x21,%eax
    84ad:	0f b6 10             	movzbl (%eax),%edx
    84b0:	8b 45 08             	mov    0x8(%ebp),%eax
    84b3:	88 10                	mov    %dl,(%eax)
    84b5:	83 45 08 01          	addl   $0x1,0x8(%ebp)
    84b9:	8b 45 24             	mov    0x24(%ebp),%eax
    84bc:	83 e0 10             	and    $0x10,%eax
    84bf:	85 c0                	test   %eax,%eax
    84c1:	75 3a                	jne    84fd <number+0x393>
    84c3:	eb 15                	jmp    84da <number+0x370>
    84c5:	8b 45 08             	mov    0x8(%ebp),%eax
    84c8:	3b 45 0c             	cmp    0xc(%ebp),%eax
    84cb:	77 09                	ja     84d6 <number+0x36c>
    84cd:	8b 55 08             	mov    0x8(%ebp),%edx
    84d0:	0f b6 45 e2          	movzbl -0x1e(%ebp),%eax
    84d4:	88 02                	mov    %al,(%edx)
    84d6:	83 45 08 01          	addl   $0x1,0x8(%ebp)
    84da:	83 7d 1c 00          	cmpl   $0x0,0x1c(%ebp)
    84de:	0f 9f c0             	setg   %al
    84e1:	83 6d 1c 01          	subl   $0x1,0x1c(%ebp)
    84e5:	84 c0                	test   %al,%al
    84e7:	75 dc                	jne    84c5 <number+0x35b>
    84e9:	eb 12                	jmp    84fd <number+0x393>
    84eb:	8b 45 08             	mov    0x8(%ebp),%eax
    84ee:	3b 45 0c             	cmp    0xc(%ebp),%eax
    84f1:	77 06                	ja     84f9 <number+0x38f>
    84f3:	8b 45 08             	mov    0x8(%ebp),%eax
    84f6:	c6 00 30             	movb   $0x30,(%eax)
    84f9:	83 45 08 01          	addl   $0x1,0x8(%ebp)
    84fd:	8b 45 20             	mov    0x20(%ebp),%eax
    8500:	3b 45 e8             	cmp    -0x18(%ebp),%eax
    8503:	0f 9f c0             	setg   %al
    8506:	83 6d 20 01          	subl   $0x1,0x20(%ebp)
    850a:	84 c0                	test   %al,%al
    850c:	75 dd                	jne    84eb <number+0x381>
    850e:	eb 19                	jmp    8529 <number+0x3bf>
    8510:	8b 45 08             	mov    0x8(%ebp),%eax
    8513:	3b 45 0c             	cmp    0xc(%ebp),%eax
    8516:	77 0d                	ja     8525 <number+0x3bb>
    8518:	8b 45 e8             	mov    -0x18(%ebp),%eax
    851b:	0f b6 54 05 a0       	movzbl -0x60(%ebp,%eax,1),%edx
    8520:	8b 45 08             	mov    0x8(%ebp),%eax
    8523:	88 10                	mov    %dl,(%eax)
    8525:	83 45 08 01          	addl   $0x1,0x8(%ebp)
    8529:	83 7d e8 00          	cmpl   $0x0,-0x18(%ebp)
    852d:	0f 9f c0             	setg   %al
    8530:	83 6d e8 01          	subl   $0x1,-0x18(%ebp)
    8534:	84 c0                	test   %al,%al
    8536:	75 d8                	jne    8510 <number+0x3a6>
    8538:	eb 12                	jmp    854c <number+0x3e2>
    853a:	8b 45 08             	mov    0x8(%ebp),%eax
    853d:	3b 45 0c             	cmp    0xc(%ebp),%eax
    8540:	77 06                	ja     8548 <number+0x3de>
    8542:	8b 45 08             	mov    0x8(%ebp),%eax
    8545:	c6 00 20             	movb   $0x20,(%eax)
    8548:	83 45 08 01          	addl   $0x1,0x8(%ebp)
    854c:	83 7d 1c 00          	cmpl   $0x0,0x1c(%ebp)
    8550:	0f 9f c0             	setg   %al
    8553:	83 6d 1c 01          	subl   $0x1,0x1c(%ebp)
    8557:	84 c0                	test   %al,%al
    8559:	75 df                	jne    853a <number+0x3d0>
    855b:	8b 45 08             	mov    0x8(%ebp),%eax
    855e:	89 85 3c ff ff ff    	mov    %eax,-0xc4(%ebp)
    8564:	8b 85 3c ff ff ff    	mov    -0xc4(%ebp),%eax
    856a:	c9                   	leave  
    856b:	c3                   	ret    
    856c:	0a 48 41             	or     0x41(%eax),%cl
    856f:	4c                   	dec    %esp
    8570:	54                   	push   %esp
    8571:	3a 20                	cmp    (%eax),%ah
    8573:	45                   	inc    %ebp
    8574:	72 72                	jb     85e8 <vsnprintf+0x5c>
    8576:	6f                   	outsl  %ds:(%esi),(%dx)
    8577:	72 20                	jb     8599 <vsnprintf+0xd>
    8579:	69 6e 20 70 72 69 6e 	imul   $0x6e697270,0x20(%esi),%ebp
    8580:	74 66                	je     85e8 <vsnprintf+0x5c>
    8582:	21 21                	and    %esp,(%ecx)
    8584:	00 3c 4e             	add    %bh,(%esi,%ecx,2)
    8587:	55                   	push   %ebp
    8588:	4c                   	dec    %esp
    8589:	4c                   	dec    %esp
    858a:	3e 00 55 89          	add    %dl,%ds:-0x77(%ebp)

000000000000858c <vsnprintf>:
    858c:	55                   	push   %ebp
    858d:	89 e5                	mov    %esp,%ebp
    858f:	83 ec 78             	sub    $0x78,%esp
    8592:	8b 45 0c             	mov    0xc(%ebp),%eax
    8595:	85 c0                	test   %eax,%eax
    8597:	79 0d                	jns    85a6 <vsnprintf+0x1a>
    8599:	c7 04 24 6c 85 00 70 	movl   $0x7000856c,(%esp)
    85a0:	e8 87 08 00 00       	call   8e2c <putstr>
    85a5:	f4                   	hlt    
    85a6:	8b 45 08             	mov    0x8(%ebp),%eax
    85a9:	89 45 d0             	mov    %eax,-0x30(%ebp)
    85ac:	8b 45 0c             	mov    0xc(%ebp),%eax
    85af:	83 e8 01             	sub    $0x1,%eax
    85b2:	03 45 08             	add    0x8(%ebp),%eax
    85b5:	89 45 d4             	mov    %eax,-0x2c(%ebp)
    85b8:	8b 45 08             	mov    0x8(%ebp),%eax
    85bb:	83 e8 01             	sub    $0x1,%eax
    85be:	3b 45 d4             	cmp    -0x2c(%ebp),%eax
    85c1:	0f 86 79 07 00 00    	jbe    8d40 <vsnprintf+0x7b4>
    85c7:	c7 45 d4 ff ff ff ff 	movl   $0xffffffff,-0x2c(%ebp)
    85ce:	8b 55 d4             	mov    -0x2c(%ebp),%edx
    85d1:	8b 45 08             	mov    0x8(%ebp),%eax
    85d4:	89 d1                	mov    %edx,%ecx
    85d6:	29 c1                	sub    %eax,%ecx
    85d8:	89 c8                	mov    %ecx,%eax
    85da:	83 c0 01             	add    $0x1,%eax
    85dd:	89 45 0c             	mov    %eax,0xc(%ebp)
    85e0:	e9 5b 07 00 00       	jmp    8d40 <vsnprintf+0x7b4>
    85e5:	8b 45 10             	mov    0x10(%ebp),%eax
    85e8:	0f b6 00             	movzbl (%eax),%eax
    85eb:	3c 25                	cmp    $0x25,%al
    85ed:	74 1c                	je     860b <vsnprintf+0x7f>
    85ef:	8b 45 d0             	mov    -0x30(%ebp),%eax
    85f2:	3b 45 d4             	cmp    -0x2c(%ebp),%eax
    85f5:	77 0b                	ja     8602 <vsnprintf+0x76>
    85f7:	8b 45 10             	mov    0x10(%ebp),%eax
    85fa:	0f b6 10             	movzbl (%eax),%edx
    85fd:	8b 45 d0             	mov    -0x30(%ebp),%eax
    8600:	88 10                	mov    %dl,(%eax)
    8602:	83 45 d0 01          	addl   $0x1,-0x30(%ebp)
    8606:	e9 2c 07 00 00       	jmp    8d37 <vsnprintf+0x7ab>
    860b:	c7 45 f0 01 00 00 00 	movl   $0x1,-0x10(%ebp)
    8612:	c7 45 e0 00 00 00 00 	movl   $0x0,-0x20(%ebp)
    8619:	e9 93 00 00 00       	jmp    86b1 <vsnprintf+0x125>
    861e:	8b 45 10             	mov    0x10(%ebp),%eax
    8621:	83 c0 01             	add    $0x1,%eax
    8624:	89 45 10             	mov    %eax,0x10(%ebp)
    8627:	8b 45 10             	mov    0x10(%ebp),%eax
    862a:	0f b6 00             	movzbl (%eax),%eax
    862d:	0f be c0             	movsbl %al,%eax
    8630:	83 e8 20             	sub    $0x20,%eax
    8633:	89 45 ac             	mov    %eax,-0x54(%ebp)
    8636:	83 7d ac 10          	cmpl   $0x10,-0x54(%ebp)
    863a:	77 6e                	ja     86aa <vsnprintf+0x11e>
    863c:	8b 55 ac             	mov    -0x54(%ebp),%edx
    863f:	8b 04 95 48 86 00 70 	mov    0x70008648(,%edx,4),%eax
    8646:	ff e0                	jmp    *%eax
    8648:	98                   	cwtl   
    8649:	86 00                	xchg   %al,(%eax)
    864b:	70 aa                	jo     85f7 <vsnprintf+0x6b>
    864d:	86 00                	xchg   %al,(%eax)
    864f:	70 aa                	jo     85fb <vsnprintf+0x6f>
    8651:	86 00                	xchg   %al,(%eax)
    8653:	70 9e                	jo     85f3 <vsnprintf+0x67>
    8655:	86 00                	xchg   %al,(%eax)
    8657:	70 aa                	jo     8603 <vsnprintf+0x77>
    8659:	86 00                	xchg   %al,(%eax)
    865b:	70 aa                	jo     8607 <vsnprintf+0x7b>
    865d:	86 00                	xchg   %al,(%eax)
    865f:	70 aa                	jo     860b <vsnprintf+0x7f>
    8661:	86 00                	xchg   %al,(%eax)
    8663:	70 aa                	jo     860f <vsnprintf+0x83>
    8665:	86 00                	xchg   %al,(%eax)
    8667:	70 aa                	jo     8613 <vsnprintf+0x87>
    8669:	86 00                	xchg   %al,(%eax)
    866b:	70 aa                	jo     8617 <vsnprintf+0x8b>
    866d:	86 00                	xchg   %al,(%eax)
    866f:	70 aa                	jo     861b <vsnprintf+0x8f>
    8671:	86 00                	xchg   %al,(%eax)
    8673:	70 92                	jo     8607 <vsnprintf+0x7b>
    8675:	86 00                	xchg   %al,(%eax)
    8677:	70 aa                	jo     8623 <vsnprintf+0x97>
    8679:	86 00                	xchg   %al,(%eax)
    867b:	70 8c                	jo     8609 <vsnprintf+0x7d>
    867d:	86 00                	xchg   %al,(%eax)
    867f:	70 aa                	jo     862b <vsnprintf+0x9f>
    8681:	86 00                	xchg   %al,(%eax)
    8683:	70 aa                	jo     862f <vsnprintf+0xa3>
    8685:	86 00                	xchg   %al,(%eax)
    8687:	70 a4                	jo     862d <vsnprintf+0xa1>
    8689:	86 00                	xchg   %al,(%eax)
    868b:	70 83                	jo     8610 <vsnprintf+0x84>
    868d:	4d                   	dec    %ebp
    868e:	e0 10                	loopne 86a0 <vsnprintf+0x114>
    8690:	eb 1f                	jmp    86b1 <vsnprintf+0x125>
    8692:	83 4d e0 04          	orl    $0x4,-0x20(%ebp)
    8696:	eb 19                	jmp    86b1 <vsnprintf+0x125>
    8698:	83 4d e0 08          	orl    $0x8,-0x20(%ebp)
    869c:	eb 13                	jmp    86b1 <vsnprintf+0x125>
    869e:	83 4d e0 20          	orl    $0x20,-0x20(%ebp)
    86a2:	eb 0d                	jmp    86b1 <vsnprintf+0x125>
    86a4:	83 4d e0 01          	orl    $0x1,-0x20(%ebp)
    86a8:	eb 07                	jmp    86b1 <vsnprintf+0x125>
    86aa:	c7 45 f0 00 00 00 00 	movl   $0x0,-0x10(%ebp)
    86b1:	83 7d f0 00          	cmpl   $0x0,-0x10(%ebp)
    86b5:	0f 85 63 ff ff ff    	jne    861e <vsnprintf+0x92>
    86bb:	c7 45 e4 ff ff ff ff 	movl   $0xffffffff,-0x1c(%ebp)
    86c2:	8b 45 10             	mov    0x10(%ebp),%eax
    86c5:	0f b6 00             	movzbl (%eax),%eax
    86c8:	0f b6 c0             	movzbl %al,%eax
    86cb:	0f b6 80 40 a0 00 70 	movzbl 0x7000a040(%eax),%eax
    86d2:	0f b6 c0             	movzbl %al,%eax
    86d5:	83 e0 04             	and    $0x4,%eax
    86d8:	85 c0                	test   %eax,%eax
    86da:	74 10                	je     86ec <vsnprintf+0x160>
    86dc:	8d 45 10             	lea    0x10(%ebp),%eax
    86df:	89 04 24             	mov    %eax,(%esp)
    86e2:	e8 29 fa ff ff       	call   8110 <skip_atoi>
    86e7:	89 45 e4             	mov    %eax,-0x1c(%ebp)
    86ea:	eb 2f                	jmp    871b <vsnprintf+0x18f>
    86ec:	8b 45 10             	mov    0x10(%ebp),%eax
    86ef:	0f b6 00             	movzbl (%eax),%eax
    86f2:	3c 2a                	cmp    $0x2a,%al
    86f4:	75 25                	jne    871b <vsnprintf+0x18f>
    86f6:	8b 45 10             	mov    0x10(%ebp),%eax
    86f9:	83 c0 01             	add    $0x1,%eax
    86fc:	89 45 10             	mov    %eax,0x10(%ebp)
    86ff:	83 45 14 04          	addl   $0x4,0x14(%ebp)
    8703:	8b 45 14             	mov    0x14(%ebp),%eax
    8706:	83 e8 04             	sub    $0x4,%eax
    8709:	8b 00                	mov    (%eax),%eax
    870b:	89 45 e4             	mov    %eax,-0x1c(%ebp)
    870e:	83 7d e4 00          	cmpl   $0x0,-0x1c(%ebp)
    8712:	79 07                	jns    871b <vsnprintf+0x18f>
    8714:	f7 5d e4             	negl   -0x1c(%ebp)
    8717:	83 4d e0 10          	orl    $0x10,-0x20(%ebp)
    871b:	c7 45 e8 ff ff ff ff 	movl   $0xffffffff,-0x18(%ebp)
    8722:	8b 45 10             	mov    0x10(%ebp),%eax
    8725:	0f b6 00             	movzbl (%eax),%eax
    8728:	3c 2e                	cmp    $0x2e,%al
    872a:	75 62                	jne    878e <vsnprintf+0x202>
    872c:	8b 45 10             	mov    0x10(%ebp),%eax
    872f:	83 c0 01             	add    $0x1,%eax
    8732:	89 45 10             	mov    %eax,0x10(%ebp)
    8735:	8b 45 10             	mov    0x10(%ebp),%eax
    8738:	0f b6 00             	movzbl (%eax),%eax
    873b:	0f b6 c0             	movzbl %al,%eax
    873e:	0f b6 80 40 a0 00 70 	movzbl 0x7000a040(%eax),%eax
    8745:	0f b6 c0             	movzbl %al,%eax
    8748:	83 e0 04             	and    $0x4,%eax
    874b:	85 c0                	test   %eax,%eax
    874d:	74 10                	je     875f <vsnprintf+0x1d3>
    874f:	8d 45 10             	lea    0x10(%ebp),%eax
    8752:	89 04 24             	mov    %eax,(%esp)
    8755:	e8 b6 f9 ff ff       	call   8110 <skip_atoi>
    875a:	89 45 e8             	mov    %eax,-0x18(%ebp)
    875d:	eb 22                	jmp    8781 <vsnprintf+0x1f5>
    875f:	8b 45 10             	mov    0x10(%ebp),%eax
    8762:	0f b6 00             	movzbl (%eax),%eax
    8765:	3c 2a                	cmp    $0x2a,%al
    8767:	75 18                	jne    8781 <vsnprintf+0x1f5>
    8769:	8b 45 10             	mov    0x10(%ebp),%eax
    876c:	83 c0 01             	add    $0x1,%eax
    876f:	89 45 10             	mov    %eax,0x10(%ebp)
    8772:	83 45 14 04          	addl   $0x4,0x14(%ebp)
    8776:	8b 45 14             	mov    0x14(%ebp),%eax
    8779:	83 e8 04             	sub    $0x4,%eax
    877c:	8b 00                	mov    (%eax),%eax
    877e:	89 45 e8             	mov    %eax,-0x18(%ebp)
    8781:	83 7d e8 00          	cmpl   $0x0,-0x18(%ebp)
    8785:	79 07                	jns    878e <vsnprintf+0x202>
    8787:	c7 45 e8 00 00 00 00 	movl   $0x0,-0x18(%ebp)
    878e:	c7 45 ec ff ff ff ff 	movl   $0xffffffff,-0x14(%ebp)
    8795:	8b 45 10             	mov    0x10(%ebp),%eax
    8798:	0f b6 00             	movzbl (%eax),%eax
    879b:	3c 68                	cmp    $0x68,%al
    879d:	74 28                	je     87c7 <vsnprintf+0x23b>
    879f:	8b 45 10             	mov    0x10(%ebp),%eax
    87a2:	0f b6 00             	movzbl (%eax),%eax
    87a5:	3c 6c                	cmp    $0x6c,%al
    87a7:	74 1e                	je     87c7 <vsnprintf+0x23b>
    87a9:	8b 45 10             	mov    0x10(%ebp),%eax
    87ac:	0f b6 00             	movzbl (%eax),%eax
    87af:	3c 4c                	cmp    $0x4c,%al
    87b1:	74 14                	je     87c7 <vsnprintf+0x23b>
    87b3:	8b 45 10             	mov    0x10(%ebp),%eax
    87b6:	0f b6 00             	movzbl (%eax),%eax
    87b9:	3c 5a                	cmp    $0x5a,%al
    87bb:	74 0a                	je     87c7 <vsnprintf+0x23b>
    87bd:	8b 45 10             	mov    0x10(%ebp),%eax
    87c0:	0f b6 00             	movzbl (%eax),%eax
    87c3:	3c 7a                	cmp    $0x7a,%al
    87c5:	75 35                	jne    87fc <vsnprintf+0x270>
    87c7:	8b 45 10             	mov    0x10(%ebp),%eax
    87ca:	0f b6 00             	movzbl (%eax),%eax
    87cd:	0f be c0             	movsbl %al,%eax
    87d0:	89 45 ec             	mov    %eax,-0x14(%ebp)
    87d3:	8b 45 10             	mov    0x10(%ebp),%eax
    87d6:	83 c0 01             	add    $0x1,%eax
    87d9:	89 45 10             	mov    %eax,0x10(%ebp)
    87dc:	83 7d ec 6c          	cmpl   $0x6c,-0x14(%ebp)
    87e0:	75 1a                	jne    87fc <vsnprintf+0x270>
    87e2:	8b 45 10             	mov    0x10(%ebp),%eax
    87e5:	0f b6 00             	movzbl (%eax),%eax
    87e8:	3c 6c                	cmp    $0x6c,%al
    87ea:	75 10                	jne    87fc <vsnprintf+0x270>
    87ec:	c7 45 ec 4c 00 00 00 	movl   $0x4c,-0x14(%ebp)
    87f3:	8b 45 10             	mov    0x10(%ebp),%eax
    87f6:	83 c0 01             	add    $0x1,%eax
    87f9:	89 45 10             	mov    %eax,0x10(%ebp)
    87fc:	c7 45 cc 0a 00 00 00 	movl   $0xa,-0x34(%ebp)
    8803:	8b 45 10             	mov    0x10(%ebp),%eax
    8806:	0f b6 00             	movzbl (%eax),%eax
    8809:	0f be c0             	movsbl %al,%eax
    880c:	83 e8 25             	sub    $0x25,%eax
    880f:	89 45 a8             	mov    %eax,-0x58(%ebp)
    8812:	83 7d a8 53          	cmpl   $0x53,-0x58(%ebp)
    8816:	0f 87 9d 03 00 00    	ja     8bb9 <vsnprintf+0x62d>
    881c:	8b 4d a8             	mov    -0x58(%ebp),%ecx
    881f:	8b 04 8d 28 88 00 70 	mov    0x70008828(,%ecx,4),%eax
    8826:	ff e0                	jmp    *%eax
    8828:	86 8b 00 70 b9 8b    	xchg   %cl,-0x74469000(%ebx)
    882e:	00 70 b9             	add    %dh,-0x47(%eax)
    8831:	8b 00                	mov    (%eax),%eax
    8833:	70 b9                	jo     87ee <vsnprintf+0x262>
    8835:	8b 00                	mov    (%eax),%eax
    8837:	70 b9                	jo     87f2 <vsnprintf+0x266>
    8839:	8b 00                	mov    (%eax),%eax
    883b:	70 b9                	jo     87f6 <vsnprintf+0x26a>
    883d:	8b 00                	mov    (%eax),%eax
    883f:	70 b9                	jo     87fa <vsnprintf+0x26e>
    8841:	8b 00                	mov    (%eax),%eax
    8843:	70 b9                	jo     87fe <vsnprintf+0x272>
    8845:	8b 00                	mov    (%eax),%eax
    8847:	70 b9                	jo     8802 <vsnprintf+0x276>
    8849:	8b 00                	mov    (%eax),%eax
    884b:	70 b9                	jo     8806 <vsnprintf+0x27a>
    884d:	8b 00                	mov    (%eax),%eax
    884f:	70 b9                	jo     880a <vsnprintf+0x27e>
    8851:	8b 00                	mov    (%eax),%eax
    8853:	70 b9                	jo     880e <vsnprintf+0x282>
    8855:	8b 00                	mov    (%eax),%eax
    8857:	70 b9                	jo     8812 <vsnprintf+0x286>
    8859:	8b 00                	mov    (%eax),%eax
    885b:	70 b9                	jo     8816 <vsnprintf+0x28a>
    885d:	8b 00                	mov    (%eax),%eax
    885f:	70 b9                	jo     881a <vsnprintf+0x28e>
    8861:	8b 00                	mov    (%eax),%eax
    8863:	70 b9                	jo     881e <vsnprintf+0x292>
    8865:	8b 00                	mov    (%eax),%eax
    8867:	70 b9                	jo     8822 <vsnprintf+0x296>
    8869:	8b 00                	mov    (%eax),%eax
    886b:	70 b9                	jo     8826 <vsnprintf+0x29a>
    886d:	8b 00                	mov    (%eax),%eax
    886f:	70 b9                	jo     882a <vsnprintf+0x29e>
    8871:	8b 00                	mov    (%eax),%eax
    8873:	70 b9                	jo     882e <vsnprintf+0x2a2>
    8875:	8b 00                	mov    (%eax),%eax
    8877:	70 b9                	jo     8832 <vsnprintf+0x2a6>
    8879:	8b 00                	mov    (%eax),%eax
    887b:	70 b9                	jo     8836 <vsnprintf+0x2aa>
    887d:	8b 00                	mov    (%eax),%eax
    887f:	70 b9                	jo     883a <vsnprintf+0x2ae>
    8881:	8b 00                	mov    (%eax),%eax
    8883:	70 b9                	jo     883e <vsnprintf+0x2b2>
    8885:	8b 00                	mov    (%eax),%eax
    8887:	70 b9                	jo     8842 <vsnprintf+0x2b6>
    8889:	8b 00                	mov    (%eax),%eax
    888b:	70 b9                	jo     8846 <vsnprintf+0x2ba>
    888d:	8b 00                	mov    (%eax),%eax
    888f:	70 b9                	jo     884a <vsnprintf+0x2be>
    8891:	8b 00                	mov    (%eax),%eax
    8893:	70 b9                	jo     884e <vsnprintf+0x2c2>
    8895:	8b 00                	mov    (%eax),%eax
    8897:	70 b9                	jo     8852 <vsnprintf+0x2c6>
    8899:	8b 00                	mov    (%eax),%eax
    889b:	70 b9                	jo     8856 <vsnprintf+0x2ca>
    889d:	8b 00                	mov    (%eax),%eax
    889f:	70 b9                	jo     885a <vsnprintf+0x2ce>
    88a1:	8b 00                	mov    (%eax),%eax
    88a3:	70 b9                	jo     885e <vsnprintf+0x2d2>
    88a5:	8b 00                	mov    (%eax),%eax
    88a7:	70 b9                	jo     8862 <vsnprintf+0x2d6>
    88a9:	8b 00                	mov    (%eax),%eax
    88ab:	70 b9                	jo     8866 <vsnprintf+0x2da>
    88ad:	8b 00                	mov    (%eax),%eax
    88af:	70 b9                	jo     886a <vsnprintf+0x2de>
    88b1:	8b 00                	mov    (%eax),%eax
    88b3:	70 b9                	jo     886e <vsnprintf+0x2e2>
    88b5:	8b 00                	mov    (%eax),%eax
    88b7:	70 b9                	jo     8872 <vsnprintf+0x2e6>
    88b9:	8b 00                	mov    (%eax),%eax
    88bb:	70 b9                	jo     8876 <vsnprintf+0x2ea>
    88bd:	8b 00                	mov    (%eax),%eax
    88bf:	70 b9                	jo     887a <vsnprintf+0x2ee>
    88c1:	8b 00                	mov    (%eax),%eax
    88c3:	70 b9                	jo     887e <vsnprintf+0x2f2>
    88c5:	8b 00                	mov    (%eax),%eax
    88c7:	70 b9                	jo     8882 <vsnprintf+0x2f6>
    88c9:	8b 00                	mov    (%eax),%eax
    88cb:	70 b9                	jo     8886 <vsnprintf+0x2fa>
    88cd:	8b 00                	mov    (%eax),%eax
    88cf:	70 b9                	jo     888a <vsnprintf+0x2fe>
    88d1:	8b 00                	mov    (%eax),%eax
    88d3:	70 b9                	jo     888e <vsnprintf+0x302>
    88d5:	8b 00                	mov    (%eax),%eax
    88d7:	70 b9                	jo     8892 <vsnprintf+0x306>
    88d9:	8b 00                	mov    (%eax),%eax
    88db:	70 b9                	jo     8896 <vsnprintf+0x30a>
    88dd:	8b 00                	mov    (%eax),%eax
    88df:	70 b9                	jo     889a <vsnprintf+0x30e>
    88e1:	8b 00                	mov    (%eax),%eax
    88e3:	70 b9                	jo     889e <vsnprintf+0x312>
    88e5:	8b 00                	mov    (%eax),%eax
    88e7:	70 b9                	jo     88a2 <vsnprintf+0x316>
    88e9:	8b 00                	mov    (%eax),%eax
    88eb:	70 b9                	jo     88a6 <vsnprintf+0x31a>
    88ed:	8b 00                	mov    (%eax),%eax
    88ef:	70 b9                	jo     88aa <vsnprintf+0x31e>
    88f1:	8b 00                	mov    (%eax),%eax
    88f3:	70 a6                	jo     889b <vsnprintf+0x30f>
    88f5:	8b 00                	mov    (%eax),%eax
    88f7:	70 b9                	jo     88b2 <vsnprintf+0x326>
    88f9:	8b 00                	mov    (%eax),%eax
    88fb:	70 b9                	jo     88b6 <vsnprintf+0x32a>
    88fd:	8b 00                	mov    (%eax),%eax
    88ff:	70 b9                	jo     88ba <vsnprintf+0x32e>
    8901:	8b 00                	mov    (%eax),%eax
    8903:	70 b9                	jo     88be <vsnprintf+0x332>
    8905:	8b 00                	mov    (%eax),%eax
    8907:	70 b9                	jo     88c2 <vsnprintf+0x336>
    8909:	8b 00                	mov    (%eax),%eax
    890b:	70 b9                	jo     88c6 <vsnprintf+0x33a>
    890d:	8b 00                	mov    (%eax),%eax
    890f:	70 b9                	jo     88ca <vsnprintf+0x33e>
    8911:	8b 00                	mov    (%eax),%eax
    8913:	70 b9                	jo     88ce <vsnprintf+0x342>
    8915:	8b 00                	mov    (%eax),%eax
    8917:	70 b9                	jo     88d2 <vsnprintf+0x346>
    8919:	8b 00                	mov    (%eax),%eax
    891b:	70 b9                	jo     88d6 <vsnprintf+0x34a>
    891d:	8b 00                	mov    (%eax),%eax
    891f:	70 78                	jo     8999 <vsnprintf+0x40d>
    8921:	89 00                	mov    %eax,(%eax)
    8923:	70 b3                	jo     88d8 <vsnprintf+0x34c>
    8925:	8b 00                	mov    (%eax),%eax
    8927:	70 b9                	jo     88e2 <vsnprintf+0x356>
    8929:	8b 00                	mov    (%eax),%eax
    892b:	70 b9                	jo     88e6 <vsnprintf+0x35a>
    892d:	8b 00                	mov    (%eax),%eax
    892f:	70 b9                	jo     88ea <vsnprintf+0x35e>
    8931:	8b 00                	mov    (%eax),%eax
    8933:	70 b9                	jo     88ee <vsnprintf+0x362>
    8935:	8b 00                	mov    (%eax),%eax
    8937:	70 b3                	jo     88ec <vsnprintf+0x360>
    8939:	8b 00                	mov    (%eax),%eax
    893b:	70 b9                	jo     88f6 <vsnprintf+0x36a>
    893d:	8b 00                	mov    (%eax),%eax
    893f:	70 b9                	jo     88fa <vsnprintf+0x36e>
    8941:	8b 00                	mov    (%eax),%eax
    8943:	70 b9                	jo     88fe <vsnprintf+0x372>
    8945:	8b 00                	mov    (%eax),%eax
    8947:	70 b9                	jo     8902 <vsnprintf+0x376>
    8949:	8b 00                	mov    (%eax),%eax
    894b:	70 0b                	jo     8958 <vsnprintf+0x3cc>
    894d:	8b 00                	mov    (%eax),%eax
    894f:	70 9d                	jo     88ee <vsnprintf+0x362>
    8951:	8b 00                	mov    (%eax),%eax
    8953:	70 a4                	jo     88f9 <vsnprintf+0x36d>
    8955:	8a 00                	mov    (%eax),%al
    8957:	70 b9                	jo     8912 <vsnprintf+0x386>
    8959:	8b 00                	mov    (%eax),%eax
    895b:	70 b9                	jo     8916 <vsnprintf+0x38a>
    895d:	8b 00                	mov    (%eax),%eax
    895f:	70 e7                	jo     8948 <vsnprintf+0x3bc>
    8961:	89 00                	mov    %eax,(%eax)
    8963:	70 b9                	jo     891e <vsnprintf+0x392>
    8965:	8b 00                	mov    (%eax),%eax
    8967:	70 ff                	jo     8968 <vsnprintf+0x3dc>
    8969:	8b 00                	mov    (%eax),%eax
    896b:	70 b9                	jo     8926 <vsnprintf+0x39a>
    896d:	8b 00                	mov    (%eax),%eax
    896f:	70 b9                	jo     892a <vsnprintf+0x39e>
    8971:	8b 00                	mov    (%eax),%eax
    8973:	70 aa                	jo     891f <vsnprintf+0x393>
    8975:	8b 00                	mov    (%eax),%eax
    8977:	70 8b                	jo     8904 <vsnprintf+0x378>
    8979:	45                   	inc    %ebp
    897a:	e0 83                	loopne 88ff <vsnprintf+0x373>
    897c:	e0 10                	loopne 898e <vsnprintf+0x402>
    897e:	85 c0                	test   %eax,%eax
    8980:	75 1e                	jne    89a0 <vsnprintf+0x414>
    8982:	eb 12                	jmp    8996 <vsnprintf+0x40a>
    8984:	8b 45 d0             	mov    -0x30(%ebp),%eax
    8987:	3b 45 d4             	cmp    -0x2c(%ebp),%eax
    898a:	77 06                	ja     8992 <vsnprintf+0x406>
    898c:	8b 45 d0             	mov    -0x30(%ebp),%eax
    898f:	c6 00 20             	movb   $0x20,(%eax)
    8992:	83 45 d0 01          	addl   $0x1,-0x30(%ebp)
    8996:	83 6d e4 01          	subl   $0x1,-0x1c(%ebp)
    899a:	83 7d e4 00          	cmpl   $0x0,-0x1c(%ebp)
    899e:	7f e4                	jg     8984 <vsnprintf+0x3f8>
    89a0:	83 45 14 04          	addl   $0x4,0x14(%ebp)
    89a4:	8b 45 14             	mov    0x14(%ebp),%eax
    89a7:	83 e8 04             	sub    $0x4,%eax
    89aa:	8b 00                	mov    (%eax),%eax
    89ac:	88 45 db             	mov    %al,-0x25(%ebp)
    89af:	8b 45 d0             	mov    -0x30(%ebp),%eax
    89b2:	3b 45 d4             	cmp    -0x2c(%ebp),%eax
    89b5:	77 09                	ja     89c0 <vsnprintf+0x434>
    89b7:	8b 55 d0             	mov    -0x30(%ebp),%edx
    89ba:	0f b6 45 db          	movzbl -0x25(%ebp),%eax
    89be:	88 02                	mov    %al,(%edx)
    89c0:	83 45 d0 01          	addl   $0x1,-0x30(%ebp)
    89c4:	eb 12                	jmp    89d8 <vsnprintf+0x44c>
    89c6:	8b 45 d0             	mov    -0x30(%ebp),%eax
    89c9:	3b 45 d4             	cmp    -0x2c(%ebp),%eax
    89cc:	77 06                	ja     89d4 <vsnprintf+0x448>
    89ce:	8b 45 d0             	mov    -0x30(%ebp),%eax
    89d1:	c6 00 20             	movb   $0x20,(%eax)
    89d4:	83 45 d0 01          	addl   $0x1,-0x30(%ebp)
    89d8:	83 6d e4 01          	subl   $0x1,-0x1c(%ebp)
    89dc:	83 7d e4 00          	cmpl   $0x0,-0x1c(%ebp)
    89e0:	7f e4                	jg     89c6 <vsnprintf+0x43a>
    89e2:	e9 50 03 00 00       	jmp    8d37 <vsnprintf+0x7ab>
    89e7:	83 45 14 04          	addl   $0x4,0x14(%ebp)
    89eb:	8b 45 14             	mov    0x14(%ebp),%eax
    89ee:	83 e8 04             	sub    $0x4,%eax
    89f1:	8b 00                	mov    (%eax),%eax
    89f3:	89 45 dc             	mov    %eax,-0x24(%ebp)
    89f6:	81 7d dc ff 0f 00 00 	cmpl   $0xfff,-0x24(%ebp)
    89fd:	77 07                	ja     8a06 <vsnprintf+0x47a>
    89ff:	c7 45 dc 85 85 00 70 	movl   $0x70008585,-0x24(%ebp)
    8a06:	8b 45 e8             	mov    -0x18(%ebp),%eax
    8a09:	89 44 24 04          	mov    %eax,0x4(%esp)
    8a0d:	8b 45 dc             	mov    -0x24(%ebp),%eax
    8a10:	89 04 24             	mov    %eax,(%esp)
    8a13:	e8 15 f6 ff ff       	call   802d <strnlen>
    8a18:	89 45 b4             	mov    %eax,-0x4c(%ebp)
    8a1b:	8b 45 e0             	mov    -0x20(%ebp),%eax
    8a1e:	83 e0 10             	and    $0x10,%eax
    8a21:	85 c0                	test   %eax,%eax
    8a23:	75 25                	jne    8a4a <vsnprintf+0x4be>
    8a25:	eb 12                	jmp    8a39 <vsnprintf+0x4ad>
    8a27:	8b 45 d0             	mov    -0x30(%ebp),%eax
    8a2a:	3b 45 d4             	cmp    -0x2c(%ebp),%eax
    8a2d:	77 06                	ja     8a35 <vsnprintf+0x4a9>
    8a2f:	8b 45 d0             	mov    -0x30(%ebp),%eax
    8a32:	c6 00 20             	movb   $0x20,(%eax)
    8a35:	83 45 d0 01          	addl   $0x1,-0x30(%ebp)
    8a39:	8b 45 e4             	mov    -0x1c(%ebp),%eax
    8a3c:	3b 45 b4             	cmp    -0x4c(%ebp),%eax
    8a3f:	0f 9f c0             	setg   %al
    8a42:	83 6d e4 01          	subl   $0x1,-0x1c(%ebp)
    8a46:	84 c0                	test   %al,%al
    8a48:	75 dd                	jne    8a27 <vsnprintf+0x49b>
    8a4a:	c7 45 c8 00 00 00 00 	movl   $0x0,-0x38(%ebp)
    8a51:	eb 1f                	jmp    8a72 <vsnprintf+0x4e6>
    8a53:	8b 45 d0             	mov    -0x30(%ebp),%eax
    8a56:	3b 45 d4             	cmp    -0x2c(%ebp),%eax
    8a59:	77 0b                	ja     8a66 <vsnprintf+0x4da>
    8a5b:	8b 45 dc             	mov    -0x24(%ebp),%eax
    8a5e:	0f b6 10             	movzbl (%eax),%edx
    8a61:	8b 45 d0             	mov    -0x30(%ebp),%eax
    8a64:	88 10                	mov    %dl,(%eax)
    8a66:	83 45 d0 01          	addl   $0x1,-0x30(%ebp)
    8a6a:	83 45 dc 01          	addl   $0x1,-0x24(%ebp)
    8a6e:	83 45 c8 01          	addl   $0x1,-0x38(%ebp)
    8a72:	8b 45 c8             	mov    -0x38(%ebp),%eax
    8a75:	3b 45 b4             	cmp    -0x4c(%ebp),%eax
    8a78:	7c d9                	jl     8a53 <vsnprintf+0x4c7>
    8a7a:	eb 12                	jmp    8a8e <vsnprintf+0x502>
    8a7c:	8b 45 d0             	mov    -0x30(%ebp),%eax
    8a7f:	3b 45 d4             	cmp    -0x2c(%ebp),%eax
    8a82:	77 06                	ja     8a8a <vsnprintf+0x4fe>
    8a84:	8b 45 d0             	mov    -0x30(%ebp),%eax
    8a87:	c6 00 20             	movb   $0x20,(%eax)
    8a8a:	83 45 d0 01          	addl   $0x1,-0x30(%ebp)
    8a8e:	8b 45 e4             	mov    -0x1c(%ebp),%eax
    8a91:	3b 45 b4             	cmp    -0x4c(%ebp),%eax
    8a94:	0f 9f c0             	setg   %al
    8a97:	83 6d e4 01          	subl   $0x1,-0x1c(%ebp)
    8a9b:	84 c0                	test   %al,%al
    8a9d:	75 dd                	jne    8a7c <vsnprintf+0x4f0>
    8a9f:	e9 93 02 00 00       	jmp    8d37 <vsnprintf+0x7ab>
    8aa4:	83 7d e4 ff          	cmpl   $0xffffffff,-0x1c(%ebp)
    8aa8:	75 0b                	jne    8ab5 <vsnprintf+0x529>
    8aaa:	c7 45 e4 08 00 00 00 	movl   $0x8,-0x1c(%ebp)
    8ab1:	83 4d e0 01          	orl    $0x1,-0x20(%ebp)
    8ab5:	83 45 14 04          	addl   $0x4,0x14(%ebp)
    8ab9:	8b 45 14             	mov    0x14(%ebp),%eax
    8abc:	83 e8 04             	sub    $0x4,%eax
    8abf:	8b 00                	mov    (%eax),%eax
    8ac1:	89 45 c4             	mov    %eax,-0x3c(%ebp)
    8ac4:	8b 55 c4             	mov    -0x3c(%ebp),%edx
    8ac7:	b9 00 00 00 00       	mov    $0x0,%ecx
    8acc:	8b 45 e0             	mov    -0x20(%ebp),%eax
    8acf:	89 44 24 1c          	mov    %eax,0x1c(%esp)
    8ad3:	8b 45 e8             	mov    -0x18(%ebp),%eax
    8ad6:	89 44 24 18          	mov    %eax,0x18(%esp)
    8ada:	8b 45 e4             	mov    -0x1c(%ebp),%eax
    8add:	89 44 24 14          	mov    %eax,0x14(%esp)
    8ae1:	c7 44 24 10 10 00 00 	movl   $0x10,0x10(%esp)
    8ae8:	00 
    8ae9:	89 54 24 08          	mov    %edx,0x8(%esp)
    8aed:	89 4c 24 0c          	mov    %ecx,0xc(%esp)
    8af1:	8b 45 d4             	mov    -0x2c(%ebp),%eax
    8af4:	89 44 24 04          	mov    %eax,0x4(%esp)
    8af8:	8b 45 d0             	mov    -0x30(%ebp),%eax
    8afb:	89 04 24             	mov    %eax,(%esp)
    8afe:	e8 67 f6 ff ff       	call   816a <number>
    8b03:	89 45 d0             	mov    %eax,-0x30(%ebp)
    8b06:	e9 2c 02 00 00       	jmp    8d37 <vsnprintf+0x7ab>
    8b0b:	83 7d ec 6c          	cmpl   $0x6c,-0x14(%ebp)
    8b0f:	75 21                	jne    8b32 <vsnprintf+0x5a6>
    8b11:	83 45 14 04          	addl   $0x4,0x14(%ebp)
    8b15:	8b 45 14             	mov    0x14(%ebp),%eax
    8b18:	83 e8 04             	sub    $0x4,%eax
    8b1b:	8b 00                	mov    (%eax),%eax
    8b1d:	89 45 f4             	mov    %eax,-0xc(%ebp)
    8b20:	8b 55 d0             	mov    -0x30(%ebp),%edx
    8b23:	8b 45 08             	mov    0x8(%ebp),%eax
    8b26:	29 c2                	sub    %eax,%edx
    8b28:	8b 45 f4             	mov    -0xc(%ebp),%eax
    8b2b:	89 10                	mov    %edx,(%eax)
    8b2d:	e9 05 02 00 00       	jmp    8d37 <vsnprintf+0x7ab>
    8b32:	83 7d ec 5a          	cmpl   $0x5a,-0x14(%ebp)
    8b36:	74 06                	je     8b3e <vsnprintf+0x5b2>
    8b38:	83 7d ec 7a          	cmpl   $0x7a,-0x14(%ebp)
    8b3c:	75 27                	jne    8b65 <vsnprintf+0x5d9>
    8b3e:	83 45 14 04          	addl   $0x4,0x14(%ebp)
    8b42:	8b 45 14             	mov    0x14(%ebp),%eax
    8b45:	83 e8 04             	sub    $0x4,%eax
    8b48:	8b 00                	mov    (%eax),%eax
    8b4a:	89 45 f8             	mov    %eax,-0x8(%ebp)
    8b4d:	8b 55 d0             	mov    -0x30(%ebp),%edx
    8b50:	8b 45 08             	mov    0x8(%ebp),%eax
    8b53:	89 d1                	mov    %edx,%ecx
    8b55:	29 c1                	sub    %eax,%ecx
    8b57:	89 c8                	mov    %ecx,%eax
    8b59:	89 c2                	mov    %eax,%edx
    8b5b:	8b 45 f8             	mov    -0x8(%ebp),%eax
    8b5e:	89 10                	mov    %edx,(%eax)
    8b60:	e9 d2 01 00 00       	jmp    8d37 <vsnprintf+0x7ab>
    8b65:	83 45 14 04          	addl   $0x4,0x14(%ebp)
    8b69:	8b 45 14             	mov    0x14(%ebp),%eax
    8b6c:	83 e8 04             	sub    $0x4,%eax
    8b6f:	8b 00                	mov    (%eax),%eax
    8b71:	89 45 fc             	mov    %eax,-0x4(%ebp)
    8b74:	8b 55 d0             	mov    -0x30(%ebp),%edx
    8b77:	8b 45 08             	mov    0x8(%ebp),%eax
    8b7a:	29 c2                	sub    %eax,%edx
    8b7c:	8b 45 fc             	mov    -0x4(%ebp),%eax
    8b7f:	89 10                	mov    %edx,(%eax)
    8b81:	e9 b1 01 00 00       	jmp    8d37 <vsnprintf+0x7ab>
    8b86:	8b 45 d0             	mov    -0x30(%ebp),%eax
    8b89:	3b 45 d4             	cmp    -0x2c(%ebp),%eax
    8b8c:	77 06                	ja     8b94 <vsnprintf+0x608>
    8b8e:	8b 45 d0             	mov    -0x30(%ebp),%eax
    8b91:	c6 00 25             	movb   $0x25,(%eax)
    8b94:	83 45 d0 01          	addl   $0x1,-0x30(%ebp)
    8b98:	e9 9a 01 00 00       	jmp    8d37 <vsnprintf+0x7ab>
    8b9d:	c7 45 cc 08 00 00 00 	movl   $0x8,-0x34(%ebp)
    8ba4:	eb 59                	jmp    8bff <vsnprintf+0x673>
    8ba6:	83 4d e0 40          	orl    $0x40,-0x20(%ebp)
    8baa:	c7 45 cc 10 00 00 00 	movl   $0x10,-0x34(%ebp)
    8bb1:	eb 4c                	jmp    8bff <vsnprintf+0x673>
    8bb3:	83 4d e0 02          	orl    $0x2,-0x20(%ebp)
    8bb7:	eb 46                	jmp    8bff <vsnprintf+0x673>
    8bb9:	8b 45 d0             	mov    -0x30(%ebp),%eax
    8bbc:	3b 45 d4             	cmp    -0x2c(%ebp),%eax
    8bbf:	77 06                	ja     8bc7 <vsnprintf+0x63b>
    8bc1:	8b 45 d0             	mov    -0x30(%ebp),%eax
    8bc4:	c6 00 25             	movb   $0x25,(%eax)
    8bc7:	83 45 d0 01          	addl   $0x1,-0x30(%ebp)
    8bcb:	8b 45 10             	mov    0x10(%ebp),%eax
    8bce:	0f b6 00             	movzbl (%eax),%eax
    8bd1:	84 c0                	test   %al,%al
    8bd3:	74 1c                	je     8bf1 <vsnprintf+0x665>
    8bd5:	8b 45 d0             	mov    -0x30(%ebp),%eax
    8bd8:	3b 45 d4             	cmp    -0x2c(%ebp),%eax
    8bdb:	77 0b                	ja     8be8 <vsnprintf+0x65c>
    8bdd:	8b 45 10             	mov    0x10(%ebp),%eax
    8be0:	0f b6 10             	movzbl (%eax),%edx
    8be3:	8b 45 d0             	mov    -0x30(%ebp),%eax
    8be6:	88 10                	mov    %dl,(%eax)
    8be8:	83 45 d0 01          	addl   $0x1,-0x30(%ebp)
    8bec:	e9 46 01 00 00       	jmp    8d37 <vsnprintf+0x7ab>
    8bf1:	8b 45 10             	mov    0x10(%ebp),%eax
    8bf4:	83 e8 01             	sub    $0x1,%eax
    8bf7:	89 45 10             	mov    %eax,0x10(%ebp)
    8bfa:	e9 38 01 00 00       	jmp    8d37 <vsnprintf+0x7ab>
    8bff:	83 7d ec 4c          	cmpl   $0x4c,-0x14(%ebp)
    8c03:	75 1a                	jne    8c1f <vsnprintf+0x693>
    8c05:	83 45 14 08          	addl   $0x8,0x14(%ebp)
    8c09:	8b 45 14             	mov    0x14(%ebp),%eax
    8c0c:	83 e8 08             	sub    $0x8,%eax
    8c0f:	8b 50 04             	mov    0x4(%eax),%edx
    8c12:	8b 00                	mov    (%eax),%eax
    8c14:	89 45 b8             	mov    %eax,-0x48(%ebp)
    8c17:	89 55 bc             	mov    %edx,-0x44(%ebp)
    8c1a:	e9 d9 00 00 00       	jmp    8cf8 <vsnprintf+0x76c>
    8c1f:	83 7d ec 6c          	cmpl   $0x6c,-0x14(%ebp)
    8c23:	75 38                	jne    8c5d <vsnprintf+0x6d1>
    8c25:	83 45 14 04          	addl   $0x4,0x14(%ebp)
    8c29:	8b 45 14             	mov    0x14(%ebp),%eax
    8c2c:	83 e8 04             	sub    $0x4,%eax
    8c2f:	8b 00                	mov    (%eax),%eax
    8c31:	ba 00 00 00 00       	mov    $0x0,%edx
    8c36:	89 45 b8             	mov    %eax,-0x48(%ebp)
    8c39:	89 55 bc             	mov    %edx,-0x44(%ebp)
    8c3c:	8b 45 e0             	mov    -0x20(%ebp),%eax
    8c3f:	83 e0 02             	and    $0x2,%eax
    8c42:	85 c0                	test   %eax,%eax
    8c44:	0f 84 ae 00 00 00    	je     8cf8 <vsnprintf+0x76c>
    8c4a:	8b 45 b8             	mov    -0x48(%ebp),%eax
    8c4d:	89 c2                	mov    %eax,%edx
    8c4f:	c1 fa 1f             	sar    $0x1f,%edx
    8c52:	89 45 b8             	mov    %eax,-0x48(%ebp)
    8c55:	89 55 bc             	mov    %edx,-0x44(%ebp)
    8c58:	e9 9b 00 00 00       	jmp    8cf8 <vsnprintf+0x76c>
    8c5d:	83 7d ec 5a          	cmpl   $0x5a,-0x14(%ebp)
    8c61:	74 06                	je     8c69 <vsnprintf+0x6dd>
    8c63:	83 7d ec 7a          	cmpl   $0x7a,-0x14(%ebp)
    8c67:	75 19                	jne    8c82 <vsnprintf+0x6f6>
    8c69:	83 45 14 04          	addl   $0x4,0x14(%ebp)
    8c6d:	8b 45 14             	mov    0x14(%ebp),%eax
    8c70:	83 e8 04             	sub    $0x4,%eax
    8c73:	8b 00                	mov    (%eax),%eax
    8c75:	ba 00 00 00 00       	mov    $0x0,%edx
    8c7a:	89 45 b8             	mov    %eax,-0x48(%ebp)
    8c7d:	89 55 bc             	mov    %edx,-0x44(%ebp)
    8c80:	eb 76                	jmp    8cf8 <vsnprintf+0x76c>
    8c82:	83 7d ec 68          	cmpl   $0x68,-0x14(%ebp)
    8c86:	75 41                	jne    8cc9 <vsnprintf+0x73d>
    8c88:	83 45 14 04          	addl   $0x4,0x14(%ebp)
    8c8c:	8b 45 14             	mov    0x14(%ebp),%eax
    8c8f:	83 e8 04             	sub    $0x4,%eax
    8c92:	8b 00                	mov    (%eax),%eax
    8c94:	0f b7 c0             	movzwl %ax,%eax
    8c97:	89 45 b8             	mov    %eax,-0x48(%ebp)
    8c9a:	8b 45 b8             	mov    -0x48(%ebp),%eax
    8c9d:	ba 00 00 00 00       	mov    $0x0,%edx
    8ca2:	89 45 b8             	mov    %eax,-0x48(%ebp)
    8ca5:	89 55 bc             	mov    %edx,-0x44(%ebp)
    8ca8:	8b 45 e0             	mov    -0x20(%ebp),%eax
    8cab:	83 e0 02             	and    $0x2,%eax
    8cae:	85 c0                	test   %eax,%eax
    8cb0:	74 46                	je     8cf8 <vsnprintf+0x76c>
    8cb2:	8b 45 b8             	mov    -0x48(%ebp),%eax
    8cb5:	98                   	cwtl   
    8cb6:	89 45 b8             	mov    %eax,-0x48(%ebp)
    8cb9:	8b 45 b8             	mov    -0x48(%ebp),%eax
    8cbc:	89 c2                	mov    %eax,%edx
    8cbe:	c1 fa 1f             	sar    $0x1f,%edx
    8cc1:	89 45 b8             	mov    %eax,-0x48(%ebp)
    8cc4:	89 55 bc             	mov    %edx,-0x44(%ebp)
    8cc7:	eb 2f                	jmp    8cf8 <vsnprintf+0x76c>
    8cc9:	83 45 14 04          	addl   $0x4,0x14(%ebp)
    8ccd:	8b 45 14             	mov    0x14(%ebp),%eax
    8cd0:	83 e8 04             	sub    $0x4,%eax
    8cd3:	8b 00                	mov    (%eax),%eax
    8cd5:	ba 00 00 00 00       	mov    $0x0,%edx
    8cda:	89 45 b8             	mov    %eax,-0x48(%ebp)
    8cdd:	89 55 bc             	mov    %edx,-0x44(%ebp)
    8ce0:	8b 45 e0             	mov    -0x20(%ebp),%eax
    8ce3:	83 e0 02             	and    $0x2,%eax
    8ce6:	85 c0                	test   %eax,%eax
    8ce8:	74 0e                	je     8cf8 <vsnprintf+0x76c>
    8cea:	8b 45 b8             	mov    -0x48(%ebp),%eax
    8ced:	89 c2                	mov    %eax,%edx
    8cef:	c1 fa 1f             	sar    $0x1f,%edx
    8cf2:	89 45 b8             	mov    %eax,-0x48(%ebp)
    8cf5:	89 55 bc             	mov    %edx,-0x44(%ebp)
    8cf8:	8b 45 e0             	mov    -0x20(%ebp),%eax
    8cfb:	89 44 24 1c          	mov    %eax,0x1c(%esp)
    8cff:	8b 45 e8             	mov    -0x18(%ebp),%eax
    8d02:	89 44 24 18          	mov    %eax,0x18(%esp)
    8d06:	8b 45 e4             	mov    -0x1c(%ebp),%eax
    8d09:	89 44 24 14          	mov    %eax,0x14(%esp)
    8d0d:	8b 45 cc             	mov    -0x34(%ebp),%eax
    8d10:	89 44 24 10          	mov    %eax,0x10(%esp)
    8d14:	8b 45 b8             	mov    -0x48(%ebp),%eax
    8d17:	8b 55 bc             	mov    -0x44(%ebp),%edx
    8d1a:	89 44 24 08          	mov    %eax,0x8(%esp)
    8d1e:	89 54 24 0c          	mov    %edx,0xc(%esp)
    8d22:	8b 45 d4             	mov    -0x2c(%ebp),%eax
    8d25:	89 44 24 04          	mov    %eax,0x4(%esp)
    8d29:	8b 45 d0             	mov    -0x30(%ebp),%eax
    8d2c:	89 04 24             	mov    %eax,(%esp)
    8d2f:	e8 36 f4 ff ff       	call   816a <number>
    8d34:	89 45 d0             	mov    %eax,-0x30(%ebp)
    8d37:	8b 45 10             	mov    0x10(%ebp),%eax
    8d3a:	83 c0 01             	add    $0x1,%eax
    8d3d:	89 45 10             	mov    %eax,0x10(%ebp)
    8d40:	8b 45 10             	mov    0x10(%ebp),%eax
    8d43:	0f b6 00             	movzbl (%eax),%eax
    8d46:	84 c0                	test   %al,%al
    8d48:	0f 85 97 f8 ff ff    	jne    85e5 <vsnprintf+0x59>
    8d4e:	8b 45 d0             	mov    -0x30(%ebp),%eax
    8d51:	3b 45 d4             	cmp    -0x2c(%ebp),%eax
    8d54:	77 08                	ja     8d5e <vsnprintf+0x7d2>
    8d56:	8b 45 d0             	mov    -0x30(%ebp),%eax
    8d59:	c6 00 00             	movb   $0x0,(%eax)
    8d5c:	eb 0c                	jmp    8d6a <vsnprintf+0x7de>
    8d5e:	83 7d 0c 00          	cmpl   $0x0,0xc(%ebp)
    8d62:	74 06                	je     8d6a <vsnprintf+0x7de>
    8d64:	8b 45 d4             	mov    -0x2c(%ebp),%eax
    8d67:	c6 00 00             	movb   $0x0,(%eax)
    8d6a:	8b 55 d0             	mov    -0x30(%ebp),%edx
    8d6d:	8b 45 08             	mov    0x8(%ebp),%eax
    8d70:	89 d1                	mov    %edx,%ecx
    8d72:	29 c1                	sub    %eax,%ecx
    8d74:	89 c8                	mov    %ecx,%eax
    8d76:	c9                   	leave  
    8d77:	c3                   	ret    

0000000000008d78 <printf>:
    8d78:	55                   	push   %ebp
    8d79:	89 e5                	mov    %esp,%ebp
    8d7b:	83 ec 28             	sub    $0x28,%esp
    8d7e:	8d 45 0c             	lea    0xc(%ebp),%eax
    8d81:	89 45 fc             	mov    %eax,-0x4(%ebp)
    8d84:	8b 55 08             	mov    0x8(%ebp),%edx
    8d87:	8b 45 fc             	mov    -0x4(%ebp),%eax
    8d8a:	89 44 24 0c          	mov    %eax,0xc(%esp)
    8d8e:	89 54 24 08          	mov    %edx,0x8(%esp)
    8d92:	c7 44 24 04 00 40 00 	movl   $0x4000,0x4(%esp)
    8d99:	00 
    8d9a:	c7 04 24 50 a1 00 70 	movl   $0x7000a150,(%esp)
    8da1:	e8 e6 f7 ff ff       	call   858c <vsnprintf>
    8da6:	c7 04 24 50 a1 00 70 	movl   $0x7000a150,(%esp)
    8dad:	e8 7a 00 00 00       	call   8e2c <putstr>
    8db2:	c9                   	leave  
    8db3:	c3                   	ret    
    8db4:	90                   	nop    
    8db5:	90                   	nop    
    8db6:	90                   	nop    
    8db7:	90                   	nop    
    8db8:	90                   	nop    
    8db9:	90                   	nop    
    8dba:	90                   	nop    
    8dbb:	90                   	nop    
    8dbc:	90                   	nop    
    8dbd:	90                   	nop    
    8dbe:	90                   	nop    
    8dbf:	90                   	nop    

0000000000008dc0 <serial_putc>:
    8dc0:	55                   	push   %ebp
    8dc1:	89 e5                	mov    %esp,%ebp
    8dc3:	83 ec 08             	sub    $0x8,%esp
    8dc6:	e8 1c 00 00 00       	call   8de7 <uart_tx_empty>
    8dcb:	85 c0                	test   %eax,%eax
    8dcd:	74 f7                	je     8dc6 <serial_putc+0x6>
    8dcf:	8b 45 08             	mov    0x8(%ebp),%eax
    8dd2:	0f b6 c0             	movzbl %al,%eax
    8dd5:	c7 44 24 04 f8 03 00 	movl   $0x3f8,0x4(%esp)
    8ddc:	00 
    8ddd:	89 04 24             	mov    %eax,(%esp)
    8de0:	e8 35 00 00 00       	call   8e1a <outb>
    8de5:	c9                   	leave  
    8de6:	c3                   	ret    

0000000000008de7 <uart_tx_empty>:
    8de7:	55                   	push   %ebp
    8de8:	89 e5                	mov    %esp,%ebp
    8dea:	83 ec 18             	sub    $0x18,%esp
    8ded:	c7 04 24 fd 03 00 00 	movl   $0x3fd,(%esp)
    8df4:	e8 0c 00 00 00       	call   8e05 <inb>
    8df9:	88 45 ff             	mov    %al,-0x1(%ebp)
    8dfc:	0f b6 45 ff          	movzbl -0x1(%ebp),%eax
    8e00:	83 e0 20             	and    $0x20,%eax
    8e03:	c9                   	leave  
    8e04:	c3                   	ret    

0000000000008e05 <inb>:
    8e05:	55                   	push   %ebp
    8e06:	89 e5                	mov    %esp,%ebp
    8e08:	83 ec 10             	sub    $0x10,%esp
    8e0b:	8b 45 08             	mov    0x8(%ebp),%eax
    8e0e:	89 c2                	mov    %eax,%edx
    8e10:	ec                   	in     (%dx),%al
    8e11:	88 45 ff             	mov    %al,-0x1(%ebp)
    8e14:	0f b6 45 ff          	movzbl -0x1(%ebp),%eax
    8e18:	c9                   	leave  
    8e19:	c3                   	ret    

0000000000008e1a <outb>:
    8e1a:	55                   	push   %ebp
    8e1b:	89 e5                	mov    %esp,%ebp
    8e1d:	8b 45 08             	mov    0x8(%ebp),%eax
    8e20:	89 c1                	mov    %eax,%ecx
    8e22:	8b 45 0c             	mov    0xc(%ebp),%eax
    8e25:	89 c2                	mov    %eax,%edx
    8e27:	89 c8                	mov    %ecx,%eax
    8e29:	ee                   	out    %al,(%dx)
    8e2a:	5d                   	pop    %ebp
    8e2b:	c3                   	ret    

0000000000008e2c <putstr>:
    8e2c:	55                   	push   %ebp
    8e2d:	89 e5                	mov    %esp,%ebp
    8e2f:	83 ec 18             	sub    $0x18,%esp
    8e32:	eb 16                	jmp    8e4a <putstr+0x1e>
    8e34:	80 7d ff 0a          	cmpb   $0xa,-0x1(%ebp)
    8e38:	75 04                	jne    8e3e <putstr+0x12>
    8e3a:	c6 45 ff 0d          	movb   $0xd,-0x1(%ebp)
    8e3e:	0f b6 45 ff          	movzbl -0x1(%ebp),%eax
    8e42:	89 04 24             	mov    %eax,(%esp)
    8e45:	e8 76 ff ff ff       	call   8dc0 <serial_putc>
    8e4a:	8b 45 08             	mov    0x8(%ebp),%eax
    8e4d:	0f b6 00             	movzbl (%eax),%eax
    8e50:	88 45 ff             	mov    %al,-0x1(%ebp)
    8e53:	80 7d ff 00          	cmpb   $0x0,-0x1(%ebp)
    8e57:	0f 95 c0             	setne  %al
    8e5a:	83 45 08 01          	addl   $0x1,0x8(%ebp)
    8e5e:	84 c0                	test   %al,%al
    8e60:	75 d2                	jne    8e34 <putstr+0x8>
    8e62:	c9                   	leave  
    8e63:	c3                   	ret    

0000000000008e64 <init_uart>:
    8e64:	55                   	push   %ebp
    8e65:	89 e5                	mov    %esp,%ebp
    8e67:	83 ec 20             	sub    $0x20,%esp
    8e6a:	a1 50 e1 00 70       	mov    0x7000e150,%eax
    8e6f:	89 c2                	mov    %eax,%edx
    8e71:	c1 e2 04             	shl    $0x4,%edx
    8e74:	89 55 e8             	mov    %edx,-0x18(%ebp)
    8e77:	b8 00 20 1c 00       	mov    $0x1c2000,%eax
    8e7c:	ba 00 00 00 00       	mov    $0x0,%edx
    8e81:	f7 75 e8             	divl   -0x18(%ebp)
    8e84:	66 89 45 fc          	mov    %ax,-0x4(%ebp)
    8e88:	c7 44 24 04 fb 03 00 	movl   $0x3fb,0x4(%esp)
    8e8f:	00 
    8e90:	c7 04 24 80 00 00 00 	movl   $0x80,(%esp)
    8e97:	e8 7e ff ff ff       	call   8e1a <outb>
    8e9c:	0f b7 45 fc          	movzwl -0x4(%ebp),%eax
    8ea0:	0f b6 c0             	movzbl %al,%eax
    8ea3:	c7 44 24 04 f8 03 00 	movl   $0x3f8,0x4(%esp)
    8eaa:	00 
    8eab:	89 04 24             	mov    %eax,(%esp)
    8eae:	e8 67 ff ff ff       	call   8e1a <outb>
    8eb3:	0f b7 45 fc          	movzwl -0x4(%ebp),%eax
    8eb7:	66 c1 e8 08          	shr    $0x8,%ax
    8ebb:	0f b6 c0             	movzbl %al,%eax
    8ebe:	c7 44 24 04 f9 03 00 	movl   $0x3f9,0x4(%esp)
    8ec5:	00 
    8ec6:	89 04 24             	mov    %eax,(%esp)
    8ec9:	e8 4c ff ff ff       	call   8e1a <outb>
    8ece:	c7 44 24 04 f9 03 00 	movl   $0x3f9,0x4(%esp)
    8ed5:	00 
    8ed6:	c7 04 24 00 00 00 00 	movl   $0x0,(%esp)
    8edd:	e8 38 ff ff ff       	call   8e1a <outb>
    8ee2:	c7 44 24 04 fa 03 00 	movl   $0x3fa,0x4(%esp)
    8ee9:	00 
    8eea:	c7 04 24 07 00 00 00 	movl   $0x7,(%esp)
    8ef1:	e8 24 ff ff ff       	call   8e1a <outb>
    8ef6:	c7 04 24 fa 03 00 00 	movl   $0x3fa,(%esp)
    8efd:	e8 03 ff ff ff       	call   8e05 <inb>
    8f02:	88 45 ff             	mov    %al,-0x1(%ebp)
    8f05:	80 7d ff 0c          	cmpb   $0xc,-0x1(%ebp)
    8f09:	75 07                	jne    8f12 <init_uart+0xae>
    8f0b:	c6 05 57 e1 00 70 01 	movb   $0x1,0x7000e157
    8f12:	0f b6 05 54 e1 00 70 	movzbl 0x7000e154,%eax
    8f19:	83 e8 05             	sub    $0x5,%eax
    8f1c:	89 c2                	mov    %eax,%edx
    8f1e:	0f b6 05 56 e1 00 70 	movzbl 0x7000e156,%eax
    8f25:	0f b6 c0             	movzbl %al,%eax
    8f28:	83 e8 01             	sub    $0x1,%eax
    8f2b:	c1 e0 02             	shl    $0x2,%eax
    8f2e:	09 c2                	or     %eax,%edx
    8f30:	0f b6 05 55 e1 00 70 	movzbl 0x7000e155,%eax
    8f37:	09 d0                	or     %edx,%eax
    8f39:	0f b6 c0             	movzbl %al,%eax
    8f3c:	c7 44 24 04 fb 03 00 	movl   $0x3fb,0x4(%esp)
    8f43:	00 
    8f44:	89 04 24             	mov    %eax,(%esp)
    8f47:	e8 ce fe ff ff       	call   8e1a <outb>
    8f4c:	c7 44 24 04 fc 03 00 	movl   $0x3fc,0x4(%esp)
    8f53:	00 
    8f54:	c7 04 24 03 00 00 00 	movl   $0x3,(%esp)
    8f5b:	e8 ba fe ff ff       	call   8e1a <outb>
    8f60:	c9                   	leave  
    8f61:	c3                   	ret    
    8f62:	90                   	nop    
    8f63:	90                   	nop    
    8f64:	90                   	nop    
    8f65:	90                   	nop    
    8f66:	90                   	nop    
    8f67:	90                   	nop    
    8f68:	90                   	nop    
    8f69:	90                   	nop    
    8f6a:	90                   	nop    
    8f6b:	90                   	nop    
    8f6c:	90                   	nop    
    8f6d:	90                   	nop    
    8f6e:	90                   	nop    
    8f6f:	90                   	nop    
    8f70:	90                   	nop    
    8f71:	90                   	nop    
    8f72:	90                   	nop    
    8f73:	90                   	nop    
    8f74:	90                   	nop    
    8f75:	90                   	nop    
    8f76:	90                   	nop    
    8f77:	90                   	nop    
    8f78:	90                   	nop    
    8f79:	90                   	nop    
    8f7a:	90                   	nop    
    8f7b:	90                   	nop    
    8f7c:	90                   	nop    
    8f7d:	90                   	nop    
    8f7e:	90                   	nop    
    8f7f:	90                   	nop    
    8f80:	90                   	nop    
    8f81:	90                   	nop    
    8f82:	90                   	nop    
    8f83:	90                   	nop    
    8f84:	90                   	nop    
    8f85:	90                   	nop    
    8f86:	90                   	nop    
    8f87:	90                   	nop    
    8f88:	90                   	nop    
    8f89:	90                   	nop    
    8f8a:	90                   	nop    
    8f8b:	90                   	nop    
    8f8c:	90                   	nop    
    8f8d:	90                   	nop    
    8f8e:	90                   	nop    
    8f8f:	90                   	nop    
    8f90:	90                   	nop    
    8f91:	90                   	nop    
    8f92:	90                   	nop    
    8f93:	90                   	nop    
    8f94:	90                   	nop    
    8f95:	90                   	nop    
    8f96:	90                   	nop    
    8f97:	90                   	nop    
    8f98:	90                   	nop    
    8f99:	90                   	nop    
    8f9a:	90                   	nop    
    8f9b:	90                   	nop    
    8f9c:	90                   	nop    
    8f9d:	90                   	nop    
    8f9e:	90                   	nop    
    8f9f:	90                   	nop    
    8fa0:	90                   	nop    
    8fa1:	90                   	nop    
    8fa2:	90                   	nop    
    8fa3:	90                   	nop    
    8fa4:	90                   	nop    
    8fa5:	90                   	nop    
    8fa6:	90                   	nop    
    8fa7:	90                   	nop    
    8fa8:	90                   	nop    
    8fa9:	90                   	nop    
    8faa:	90                   	nop    
    8fab:	90                   	nop    
    8fac:	90                   	nop    
    8fad:	90                   	nop    
    8fae:	90                   	nop    
    8faf:	90                   	nop    
    8fb0:	90                   	nop    
    8fb1:	90                   	nop    
    8fb2:	90                   	nop    
    8fb3:	90                   	nop    
    8fb4:	90                   	nop    
    8fb5:	90                   	nop    
    8fb6:	90                   	nop    
    8fb7:	90                   	nop    
    8fb8:	90                   	nop    
    8fb9:	90                   	nop    
    8fba:	90                   	nop    
    8fbb:	90                   	nop    
    8fbc:	90                   	nop    
    8fbd:	90                   	nop    
    8fbe:	90                   	nop    
    8fbf:	90                   	nop    
    8fc0:	90                   	nop    
    8fc1:	90                   	nop    
    8fc2:	90                   	nop    
    8fc3:	90                   	nop    
    8fc4:	90                   	nop    
    8fc5:	90                   	nop    
    8fc6:	90                   	nop    
    8fc7:	90                   	nop    
    8fc8:	90                   	nop    
    8fc9:	90                   	nop    
    8fca:	90                   	nop    
    8fcb:	90                   	nop    
    8fcc:	90                   	nop    
    8fcd:	90                   	nop    
    8fce:	90                   	nop    
    8fcf:	90                   	nop    
    8fd0:	90                   	nop    
    8fd1:	90                   	nop    
    8fd2:	90                   	nop    
    8fd3:	90                   	nop    
    8fd4:	90                   	nop    
    8fd5:	90                   	nop    
    8fd6:	90                   	nop    
    8fd7:	90                   	nop    
    8fd8:	90                   	nop    
    8fd9:	90                   	nop    
    8fda:	90                   	nop    
    8fdb:	90                   	nop    
    8fdc:	90                   	nop    
    8fdd:	90                   	nop    
    8fde:	90                   	nop    
    8fdf:	90                   	nop    
    8fe0:	90                   	nop    
    8fe1:	90                   	nop    
    8fe2:	90                   	nop    
    8fe3:	90                   	nop    
    8fe4:	90                   	nop    
    8fe5:	90                   	nop    
    8fe6:	90                   	nop    
    8fe7:	90                   	nop    
    8fe8:	90                   	nop    
    8fe9:	90                   	nop    
    8fea:	90                   	nop    
    8feb:	90                   	nop    
    8fec:	90                   	nop    
    8fed:	90                   	nop    
    8fee:	90                   	nop    
    8fef:	90                   	nop    
    8ff0:	90                   	nop    
    8ff1:	90                   	nop    
    8ff2:	90                   	nop    
    8ff3:	90                   	nop    
    8ff4:	90                   	nop    
    8ff5:	90                   	nop    
    8ff6:	90                   	nop    
    8ff7:	90                   	nop    
    8ff8:	90                   	nop    
    8ff9:	90                   	nop    
    8ffa:	90                   	nop    
    8ffb:	90                   	nop    
    8ffc:	90                   	nop    
    8ffd:	90                   	nop    
    8ffe:	90                   	nop    
    8fff:	90                   	nop    
Disassembly of section .data:

0000000000009000 <__runtimegdt>:
    9000:	1f                   	pop    %ds
    9001:	00 10                	add    %dl,(%eax)
    9003:	90                   	nop    
    9004:	00 70 00             	add    %dh,0x0(%eax)
	...

0000000000009010 <__runtimegdt_start>:
	...
    9018:	ff                   	(bad)  
    9019:	ff 00                	incl   (%eax)
    901b:	00 00                	add    %al,(%eax)
    901d:	9a cf 00 ff ff 00 00 	lcall  $0x0,$0xffff00cf
    9024:	00 92 cf 00 00 00    	add    %dl,0xcf(%edx)
    902a:	00 00                	add    %al,(%eax)
    902c:	00 00                	add    %al,(%eax)
	...

0000000000009030 <__runtimeidt>:
    9030:	ff 00                	incl   (%eax)
    9032:	40                   	inc    %eax
    9033:	90                   	nop    
    9034:	00 70 00             	add    %dh,0x0(%eax)
	...

0000000000009040 <__runtimeidt_start>:
	...

0000000000009140 <__runtimeidt_functionpointers>:
    9140:	30 00                	xor    %al,(%eax)
    9142:	00 70 46             	add    %dh,0x46(%eax)
    9145:	00 00                	add    %al,(%eax)
    9147:	70 5c                	jo     91a5 <__runtimeidt_functionpointers+0x65>
    9149:	00 00                	add    %al,(%eax)
    914b:	70 72                	jo     91bf <__runtimeidt_functionpointers+0x7f>
    914d:	00 00                	add    %al,(%eax)
    914f:	70 88                	jo     90d9 <__runtimeidt_start+0x99>
    9151:	00 00                	add    %al,(%eax)
    9153:	70 9e                	jo     90f3 <__runtimeidt_start+0xb3>
    9155:	00 00                	add    %al,(%eax)
    9157:	70 b4                	jo     910d <__runtimeidt_start+0xcd>
    9159:	00 00                	add    %al,(%eax)
    915b:	70 ca                	jo     9127 <__runtimeidt_start+0xe7>
    915d:	00 00                	add    %al,(%eax)
    915f:	70 e0                	jo     9141 <__runtimeidt_functionpointers+0x1>
    9161:	00 00                	add    %al,(%eax)
    9163:	70 f6                	jo     915b <__runtimeidt_functionpointers+0x1b>
    9165:	00 00                	add    %al,(%eax)
    9167:	70 0c                	jo     9175 <__runtimeidt_functionpointers+0x35>
    9169:	01 00                	add    %eax,(%eax)
    916b:	70 22                	jo     918f <__runtimeidt_functionpointers+0x4f>
    916d:	01 00                	add    %eax,(%eax)
    916f:	70 38                	jo     91a9 <__runtimeidt_functionpointers+0x69>
    9171:	01 00                	add    %eax,(%eax)
    9173:	70 4e                	jo     91c3 <__runtime_v86_idtfunctionptrs+0x3>
    9175:	01 00                	add    %eax,(%eax)
    9177:	70 64                	jo     91dd <__runtime_v86_idtfunctionptrs+0x1d>
    9179:	01 00                	add    %eax,(%eax)
    917b:	70 7a                	jo     91f7 <__runtime_v86_idtfunctionptrs+0x37>
    917d:	01 00                	add    %eax,(%eax)
    917f:	70 90                	jo     9111 <__runtimeidt_start+0xd1>
    9181:	01 00                	add    %eax,(%eax)
    9183:	70 a6                	jo     912b <__runtimeidt_start+0xeb>
    9185:	01 00                	add    %eax,(%eax)
    9187:	70 bc                	jo     9145 <__runtimeidt_functionpointers+0x5>
    9189:	01 00                	add    %eax,(%eax)
    918b:	70 d2                	jo     915f <__runtimeidt_functionpointers+0x1f>
    918d:	01 00                	add    %eax,(%eax)
    918f:	70 e8                	jo     9179 <__runtimeidt_functionpointers+0x39>
    9191:	01 00                	add    %eax,(%eax)
    9193:	70 fe                	jo     9193 <__runtimeidt_functionpointers+0x53>
    9195:	01 00                	add    %eax,(%eax)
    9197:	70 14                	jo     91ad <__runtimeidt_functionpointers+0x6d>
    9199:	02 00                	add    (%eax),%al
    919b:	70 2a                	jo     91c7 <__runtime_v86_idtfunctionptrs+0x7>
    919d:	02 00                	add    (%eax),%al
    919f:	70 40                	jo     91e1 <__runtime_v86_idtfunctionptrs+0x21>
    91a1:	02 00                	add    (%eax),%al
    91a3:	70 56                	jo     91fb <__runtime_v86_idtfunctionptrs+0x3b>
    91a5:	02 00                	add    (%eax),%al
    91a7:	70 6c                	jo     9215 <__runtime_v86_idtfunctionptrs+0x55>
    91a9:	02 00                	add    (%eax),%al
    91ab:	70 82                	jo     912f <__runtimeidt_start+0xef>
    91ad:	02 00                	add    (%eax),%al
    91af:	70 98                	jo     9149 <__runtimeidt_functionpointers+0x9>
    91b1:	02 00                	add    (%eax),%al
    91b3:	70 ae                	jo     9163 <__runtimeidt_functionpointers+0x23>
    91b5:	02 00                	add    (%eax),%al
    91b7:	70 c4                	jo     917d <__runtimeidt_functionpointers+0x3d>
    91b9:	02 00                	add    (%eax),%al
    91bb:	70 da                	jo     9197 <__runtimeidt_functionpointers+0x57>
    91bd:	02 00                	add    (%eax),%al
    91bf:	70 f0                	jo     91b1 <__runtimeidt_functionpointers+0x71>

00000000000091c0 <__runtime_v86_idtfunctionptrs>:
    91c0:	f0 02 00             	lock add (%eax),%al
    91c3:	70 14                	jo     91d9 <__runtime_v86_idtfunctionptrs+0x19>
    91c5:	03 00                	add    (%eax),%eax
    91c7:	70 38                	jo     9201 <__runtime_v86_idtfunctionptrs+0x41>
    91c9:	03 00                	add    (%eax),%eax
    91cb:	70 5c                	jo     9229 <__runtime_v86_idtfunctionptrs+0x69>
    91cd:	03 00                	add    (%eax),%eax
    91cf:	70 80                	jo     9151 <__runtimeidt_functionpointers+0x11>
    91d1:	03 00                	add    (%eax),%eax
    91d3:	70 a4                	jo     9179 <__runtimeidt_functionpointers+0x39>
    91d5:	03 00                	add    (%eax),%eax
    91d7:	70 c8                	jo     91a1 <__runtimeidt_functionpointers+0x61>
    91d9:	03 00                	add    (%eax),%eax
    91db:	70 ec                	jo     91c9 <__runtime_v86_idtfunctionptrs+0x9>
    91dd:	03 00                	add    (%eax),%eax
    91df:	70 10                	jo     91f1 <__runtime_v86_idtfunctionptrs+0x31>
    91e1:	04 00                	add    $0x0,%al
    91e3:	70 34                	jo     9219 <__runtime_v86_idtfunctionptrs+0x59>
    91e5:	04 00                	add    $0x0,%al
    91e7:	70 58                	jo     9241 <__runtime_v86_idtfunctionptrs+0x81>
    91e9:	04 00                	add    $0x0,%al
    91eb:	70 7c                	jo     9269 <__runtime_v86_idtfunctionptrs+0xa9>
    91ed:	04 00                	add    $0x0,%al
    91ef:	70 a0                	jo     9191 <__runtimeidt_functionpointers+0x51>
    91f1:	04 00                	add    $0x0,%al
    91f3:	70 c4                	jo     91b9 <__runtimeidt_functionpointers+0x79>
    91f5:	04 00                	add    $0x0,%al
    91f7:	70 e8                	jo     91e1 <__runtime_v86_idtfunctionptrs+0x21>
    91f9:	04 00                	add    $0x0,%al
    91fb:	70 0c                	jo     9209 <__runtime_v86_idtfunctionptrs+0x49>
    91fd:	05 00 70 30 05       	add    $0x5307000,%eax
    9202:	00 70 54             	add    %dh,0x54(%eax)
    9205:	05 00 70 78 05       	add    $0x5787000,%eax
    920a:	00 70 9c             	add    %dh,-0x64(%eax)
    920d:	05 00 70 c0 05       	add    $0x5c07000,%eax
    9212:	00 70 e4             	add    %dh,-0x1c(%eax)
    9215:	05 00 70 08 06       	add    $0x6087000,%eax
    921a:	00 70 2c             	add    %dh,0x2c(%eax)
    921d:	06                   	push   %es
    921e:	00 70 50             	add    %dh,0x50(%eax)
    9221:	06                   	push   %es
    9222:	00 70 74             	add    %dh,0x74(%eax)
    9225:	06                   	push   %es
    9226:	00 70 98             	add    %dh,-0x68(%eax)
    9229:	06                   	push   %es
    922a:	00 70 bc             	add    %dh,-0x44(%eax)
    922d:	06                   	push   %es
    922e:	00 70 e0             	add    %dh,-0x20(%eax)
    9231:	06                   	push   %es
    9232:	00 70 04             	add    %dh,0x4(%eax)
    9235:	07                   	pop    %es
    9236:	00 70 28             	add    %dh,0x28(%eax)
    9239:	07                   	pop    %es
    923a:	00 70 4c             	add    %dh,0x4c(%eax)
    923d:	07                   	pop    %es
    923e:	00 70 70             	add    %dh,0x70(%eax)
    9241:	07                   	pop    %es
    9242:	00 70 94             	add    %dh,-0x6c(%eax)
    9245:	07                   	pop    %es
    9246:	00 70 b8             	add    %dh,-0x48(%eax)
    9249:	07                   	pop    %es
    924a:	00 70 dc             	add    %dh,-0x24(%eax)
    924d:	07                   	pop    %es
    924e:	00 70 00             	add    %dh,0x0(%eax)
    9251:	08 00                	or     %al,(%eax)
    9253:	70 24                	jo     9279 <__runtime_v86_idtfunctionptrs+0xb9>
    9255:	08 00                	or     %al,(%eax)
    9257:	70 48                	jo     92a1 <__runtime_v86_idtfunctionptrs+0xe1>
    9259:	08 00                	or     %al,(%eax)
    925b:	70 6c                	jo     92c9 <__runtime_v86_idtfunctionptrs+0x109>
    925d:	08 00                	or     %al,(%eax)
    925f:	70 90                	jo     91f1 <__runtime_v86_idtfunctionptrs+0x31>
    9261:	08 00                	or     %al,(%eax)
    9263:	70 b4                	jo     9219 <__runtime_v86_idtfunctionptrs+0x59>
    9265:	08 00                	or     %al,(%eax)
    9267:	70 d8                	jo     9241 <__runtime_v86_idtfunctionptrs+0x81>
    9269:	08 00                	or     %al,(%eax)
    926b:	70 fc                	jo     9269 <__runtime_v86_idtfunctionptrs+0xa9>
    926d:	08 00                	or     %al,(%eax)
    926f:	70 20                	jo     9291 <__runtime_v86_idtfunctionptrs+0xd1>
    9271:	09 00                	or     %eax,(%eax)
    9273:	70 44                	jo     92b9 <__runtime_v86_idtfunctionptrs+0xf9>
    9275:	09 00                	or     %eax,(%eax)
    9277:	70 68                	jo     92e1 <__runtime_v86_idtfunctionptrs+0x121>
    9279:	09 00                	or     %eax,(%eax)
    927b:	70 8c                	jo     9209 <__runtime_v86_idtfunctionptrs+0x49>
    927d:	09 00                	or     %eax,(%eax)
    927f:	70 b0                	jo     9231 <__runtime_v86_idtfunctionptrs+0x71>
    9281:	09 00                	or     %eax,(%eax)
    9283:	70 d4                	jo     9259 <__runtime_v86_idtfunctionptrs+0x99>
    9285:	09 00                	or     %eax,(%eax)
    9287:	70 f8                	jo     9281 <__runtime_v86_idtfunctionptrs+0xc1>
    9289:	09 00                	or     %eax,(%eax)
    928b:	70 1c                	jo     92a9 <__runtime_v86_idtfunctionptrs+0xe9>
    928d:	0a 00                	or     (%eax),%al
    928f:	70 40                	jo     92d1 <__runtime_v86_idtfunctionptrs+0x111>
    9291:	0a 00                	or     (%eax),%al
    9293:	70 64                	jo     92f9 <__runtime_v86_idtfunctionptrs+0x139>
    9295:	0a 00                	or     (%eax),%al
    9297:	70 88                	jo     9221 <__runtime_v86_idtfunctionptrs+0x61>
    9299:	0a 00                	or     (%eax),%al
    929b:	70 ac                	jo     9249 <__runtime_v86_idtfunctionptrs+0x89>
    929d:	0a 00                	or     (%eax),%al
    929f:	70 d0                	jo     9271 <__runtime_v86_idtfunctionptrs+0xb1>
    92a1:	0a 00                	or     (%eax),%al
    92a3:	70 f4                	jo     9299 <__runtime_v86_idtfunctionptrs+0xd9>
    92a5:	0a 00                	or     (%eax),%al
    92a7:	70 18                	jo     92c1 <__runtime_v86_idtfunctionptrs+0x101>
    92a9:	0b 00                	or     (%eax),%eax
    92ab:	70 3c                	jo     92e9 <__runtime_v86_idtfunctionptrs+0x129>
    92ad:	0b 00                	or     (%eax),%eax
    92af:	70 60                	jo     9311 <__runtime_v86_idtfunctionptrs+0x151>
    92b1:	0b 00                	or     (%eax),%eax
    92b3:	70 84                	jo     9239 <__runtime_v86_idtfunctionptrs+0x79>
    92b5:	0b 00                	or     (%eax),%eax
    92b7:	70 a8                	jo     9261 <__runtime_v86_idtfunctionptrs+0xa1>
    92b9:	0b 00                	or     (%eax),%eax
    92bb:	70 cc                	jo     9289 <__runtime_v86_idtfunctionptrs+0xc9>
    92bd:	0b 00                	or     (%eax),%eax
    92bf:	70 f0                	jo     92b1 <__runtime_v86_idtfunctionptrs+0xf1>
    92c1:	0b 00                	or     (%eax),%eax
    92c3:	70 14                	jo     92d9 <__runtime_v86_idtfunctionptrs+0x119>
    92c5:	0c 00                	or     $0x0,%al
    92c7:	70 38                	jo     9301 <__runtime_v86_idtfunctionptrs+0x141>
    92c9:	0c 00                	or     $0x0,%al
    92cb:	70 5c                	jo     9329 <__runtime_v86_idtfunctionptrs+0x169>
    92cd:	0c 00                	or     $0x0,%al
    92cf:	70 80                	jo     9251 <__runtime_v86_idtfunctionptrs+0x91>
    92d1:	0c 00                	or     $0x0,%al
    92d3:	70 a4                	jo     9279 <__runtime_v86_idtfunctionptrs+0xb9>
    92d5:	0c 00                	or     $0x0,%al
    92d7:	70 c8                	jo     92a1 <__runtime_v86_idtfunctionptrs+0xe1>
    92d9:	0c 00                	or     $0x0,%al
    92db:	70 ec                	jo     92c9 <__runtime_v86_idtfunctionptrs+0x109>
    92dd:	0c 00                	or     $0x0,%al
    92df:	70 10                	jo     92f1 <__runtime_v86_idtfunctionptrs+0x131>
    92e1:	0d 00 70 34 0d       	or     $0xd347000,%eax
    92e6:	00 70 58             	add    %dh,0x58(%eax)
    92e9:	0d 00 70 7c 0d       	or     $0xd7c7000,%eax
    92ee:	00 70 a0             	add    %dh,-0x60(%eax)
    92f1:	0d 00 70 c4 0d       	or     $0xdc47000,%eax
    92f6:	00 70 e8             	add    %dh,-0x18(%eax)
    92f9:	0d 00 70 0c 0e       	or     $0xe0c7000,%eax
    92fe:	00 70 30             	add    %dh,0x30(%eax)
    9301:	0e                   	push   %cs
    9302:	00 70 54             	add    %dh,0x54(%eax)
    9305:	0e                   	push   %cs
    9306:	00 70 78             	add    %dh,0x78(%eax)
    9309:	0e                   	push   %cs
    930a:	00 70 9c             	add    %dh,-0x64(%eax)
    930d:	0e                   	push   %cs
    930e:	00 70 c0             	add    %dh,-0x40(%eax)
    9311:	0e                   	push   %cs
    9312:	00 70 e4             	add    %dh,-0x1c(%eax)
    9315:	0e                   	push   %cs
    9316:	00 70 08             	add    %dh,0x8(%eax)
    9319:	0f 00                	(bad)  
    931b:	70 2c                	jo     9349 <__runtime_v86_idtfunctionptrs+0x189>
    931d:	0f 00                	(bad)  
    931f:	70 50                	jo     9371 <__runtime_v86_idtfunctionptrs+0x1b1>
    9321:	0f 00                	(bad)  
    9323:	70 74                	jo     9399 <__runtime_v86_idtfunctionptrs+0x1d9>
    9325:	0f 00                	(bad)  
    9327:	70 98                	jo     92c1 <__runtime_v86_idtfunctionptrs+0x101>
    9329:	0f 00                	(bad)  
    932b:	70 bc                	jo     92e9 <__runtime_v86_idtfunctionptrs+0x129>
    932d:	0f 00                	(bad)  
    932f:	70 e0                	jo     9311 <__runtime_v86_idtfunctionptrs+0x151>
    9331:	0f 00                	(bad)  
    9333:	70 04                	jo     9339 <__runtime_v86_idtfunctionptrs+0x179>
    9335:	10 00                	adc    %al,(%eax)
    9337:	70 28                	jo     9361 <__runtime_v86_idtfunctionptrs+0x1a1>
    9339:	10 00                	adc    %al,(%eax)
    933b:	70 4c                	jo     9389 <__runtime_v86_idtfunctionptrs+0x1c9>
    933d:	10 00                	adc    %al,(%eax)
    933f:	70 70                	jo     93b1 <__runtime_v86_idtfunctionptrs+0x1f1>
    9341:	10 00                	adc    %al,(%eax)
    9343:	70 94                	jo     92d9 <__runtime_v86_idtfunctionptrs+0x119>
    9345:	10 00                	adc    %al,(%eax)
    9347:	70 b8                	jo     9301 <__runtime_v86_idtfunctionptrs+0x141>
    9349:	10 00                	adc    %al,(%eax)
    934b:	70 dc                	jo     9329 <__runtime_v86_idtfunctionptrs+0x169>
    934d:	10 00                	adc    %al,(%eax)
    934f:	70 00                	jo     9351 <__runtime_v86_idtfunctionptrs+0x191>
    9351:	11 00                	adc    %eax,(%eax)
    9353:	70 24                	jo     9379 <__runtime_v86_idtfunctionptrs+0x1b9>
    9355:	11 00                	adc    %eax,(%eax)
    9357:	70 48                	jo     93a1 <__runtime_v86_idtfunctionptrs+0x1e1>
    9359:	11 00                	adc    %eax,(%eax)
    935b:	70 6c                	jo     93c9 <__runtime_v86_idtfunctionptrs+0x209>
    935d:	11 00                	adc    %eax,(%eax)
    935f:	70 90                	jo     92f1 <__runtime_v86_idtfunctionptrs+0x131>
    9361:	11 00                	adc    %eax,(%eax)
    9363:	70 b4                	jo     9319 <__runtime_v86_idtfunctionptrs+0x159>
    9365:	11 00                	adc    %eax,(%eax)
    9367:	70 d8                	jo     9341 <__runtime_v86_idtfunctionptrs+0x181>
    9369:	11 00                	adc    %eax,(%eax)
    936b:	70 fc                	jo     9369 <__runtime_v86_idtfunctionptrs+0x1a9>
    936d:	11 00                	adc    %eax,(%eax)
    936f:	70 20                	jo     9391 <__runtime_v86_idtfunctionptrs+0x1d1>
    9371:	12 00                	adc    (%eax),%al
    9373:	70 44                	jo     93b9 <__runtime_v86_idtfunctionptrs+0x1f9>
    9375:	12 00                	adc    (%eax),%al
    9377:	70 68                	jo     93e1 <__runtime_v86_idtfunctionptrs+0x221>
    9379:	12 00                	adc    (%eax),%al
    937b:	70 8c                	jo     9309 <__runtime_v86_idtfunctionptrs+0x149>
    937d:	12 00                	adc    (%eax),%al
    937f:	70 b0                	jo     9331 <__runtime_v86_idtfunctionptrs+0x171>
    9381:	12 00                	adc    (%eax),%al
    9383:	70 d4                	jo     9359 <__runtime_v86_idtfunctionptrs+0x199>
    9385:	12 00                	adc    (%eax),%al
    9387:	70 f8                	jo     9381 <__runtime_v86_idtfunctionptrs+0x1c1>
    9389:	12 00                	adc    (%eax),%al
    938b:	70 1c                	jo     93a9 <__runtime_v86_idtfunctionptrs+0x1e9>
    938d:	13 00                	adc    (%eax),%eax
    938f:	70 40                	jo     93d1 <__runtime_v86_idtfunctionptrs+0x211>
    9391:	13 00                	adc    (%eax),%eax
    9393:	70 64                	jo     93f9 <__runtime_v86_idtfunctionptrs+0x239>
    9395:	13 00                	adc    (%eax),%eax
    9397:	70 88                	jo     9321 <__runtime_v86_idtfunctionptrs+0x161>
    9399:	13 00                	adc    (%eax),%eax
    939b:	70 ac                	jo     9349 <__runtime_v86_idtfunctionptrs+0x189>
    939d:	13 00                	adc    (%eax),%eax
    939f:	70 d0                	jo     9371 <__runtime_v86_idtfunctionptrs+0x1b1>
    93a1:	13 00                	adc    (%eax),%eax
    93a3:	70 f4                	jo     9399 <__runtime_v86_idtfunctionptrs+0x1d9>
    93a5:	13 00                	adc    (%eax),%eax
    93a7:	70 18                	jo     93c1 <__runtime_v86_idtfunctionptrs+0x201>
    93a9:	14 00                	adc    $0x0,%al
    93ab:	70 3c                	jo     93e9 <__runtime_v86_idtfunctionptrs+0x229>
    93ad:	14 00                	adc    $0x0,%al
    93af:	70 60                	jo     9411 <__runtime_v86_idtfunctionptrs+0x251>
    93b1:	14 00                	adc    $0x0,%al
    93b3:	70 84                	jo     9339 <__runtime_v86_idtfunctionptrs+0x179>
    93b5:	14 00                	adc    $0x0,%al
    93b7:	70 a8                	jo     9361 <__runtime_v86_idtfunctionptrs+0x1a1>
    93b9:	14 00                	adc    $0x0,%al
    93bb:	70 cc                	jo     9389 <__runtime_v86_idtfunctionptrs+0x1c9>
    93bd:	14 00                	adc    $0x0,%al
    93bf:	70 f0                	jo     93b1 <__runtime_v86_idtfunctionptrs+0x1f1>
    93c1:	14 00                	adc    $0x0,%al
    93c3:	70 17                	jo     93dc <__runtime_v86_idtfunctionptrs+0x21c>
    93c5:	15 00 70 3e 15       	adc    $0x153e7000,%eax
    93ca:	00 70 65             	add    %dh,0x65(%eax)
    93cd:	15 00 70 8c 15       	adc    $0x158c7000,%eax
    93d2:	00 70 b3             	add    %dh,-0x4d(%eax)
    93d5:	15 00 70 da 15       	adc    $0x15da7000,%eax
    93da:	00 70 01             	add    %dh,0x1(%eax)
    93dd:	16                   	push   %ss
    93de:	00 70 28             	add    %dh,0x28(%eax)
    93e1:	16                   	push   %ss
    93e2:	00 70 4f             	add    %dh,0x4f(%eax)
    93e5:	16                   	push   %ss
    93e6:	00 70 76             	add    %dh,0x76(%eax)
    93e9:	16                   	push   %ss
    93ea:	00 70 9d             	add    %dh,-0x63(%eax)
    93ed:	16                   	push   %ss
    93ee:	00 70 c4             	add    %dh,-0x3c(%eax)
    93f1:	16                   	push   %ss
    93f2:	00 70 eb             	add    %dh,-0x15(%eax)
    93f5:	16                   	push   %ss
    93f6:	00 70 12             	add    %dh,0x12(%eax)
    93f9:	17                   	pop    %ss
    93fa:	00 70 39             	add    %dh,0x39(%eax)
    93fd:	17                   	pop    %ss
    93fe:	00 70 60             	add    %dh,0x60(%eax)
    9401:	17                   	pop    %ss
    9402:	00 70 87             	add    %dh,-0x79(%eax)
    9405:	17                   	pop    %ss
    9406:	00 70 ae             	add    %dh,-0x52(%eax)
    9409:	17                   	pop    %ss
    940a:	00 70 d5             	add    %dh,-0x2b(%eax)
    940d:	17                   	pop    %ss
    940e:	00 70 fc             	add    %dh,-0x4(%eax)
    9411:	17                   	pop    %ss
    9412:	00 70 23             	add    %dh,0x23(%eax)
    9415:	18 00                	sbb    %al,(%eax)
    9417:	70 4a                	jo     9463 <__runtime_v86_idtfunctionptrs+0x2a3>
    9419:	18 00                	sbb    %al,(%eax)
    941b:	70 71                	jo     948e <__runtime_v86_idtfunctionptrs+0x2ce>
    941d:	18 00                	sbb    %al,(%eax)
    941f:	70 98                	jo     93b9 <__runtime_v86_idtfunctionptrs+0x1f9>
    9421:	18 00                	sbb    %al,(%eax)
    9423:	70 bf                	jo     93e4 <__runtime_v86_idtfunctionptrs+0x224>
    9425:	18 00                	sbb    %al,(%eax)
    9427:	70 e6                	jo     940f <__runtime_v86_idtfunctionptrs+0x24f>
    9429:	18 00                	sbb    %al,(%eax)
    942b:	70 0d                	jo     943a <__runtime_v86_idtfunctionptrs+0x27a>
    942d:	19 00                	sbb    %eax,(%eax)
    942f:	70 34                	jo     9465 <__runtime_v86_idtfunctionptrs+0x2a5>
    9431:	19 00                	sbb    %eax,(%eax)
    9433:	70 5b                	jo     9490 <__runtime_v86_idtfunctionptrs+0x2d0>
    9435:	19 00                	sbb    %eax,(%eax)
    9437:	70 82                	jo     93bb <__runtime_v86_idtfunctionptrs+0x1fb>
    9439:	19 00                	sbb    %eax,(%eax)
    943b:	70 a9                	jo     93e6 <__runtime_v86_idtfunctionptrs+0x226>
    943d:	19 00                	sbb    %eax,(%eax)
    943f:	70 d0                	jo     9411 <__runtime_v86_idtfunctionptrs+0x251>
    9441:	19 00                	sbb    %eax,(%eax)
    9443:	70 f7                	jo     943c <__runtime_v86_idtfunctionptrs+0x27c>
    9445:	19 00                	sbb    %eax,(%eax)
    9447:	70 1e                	jo     9467 <__runtime_v86_idtfunctionptrs+0x2a7>
    9449:	1a 00                	sbb    (%eax),%al
    944b:	70 45                	jo     9492 <__runtime_v86_idtfunctionptrs+0x2d2>
    944d:	1a 00                	sbb    (%eax),%al
    944f:	70 6c                	jo     94bd <__runtime_v86_idtfunctionptrs+0x2fd>
    9451:	1a 00                	sbb    (%eax),%al
    9453:	70 93                	jo     93e8 <__runtime_v86_idtfunctionptrs+0x228>
    9455:	1a 00                	sbb    (%eax),%al
    9457:	70 ba                	jo     9413 <__runtime_v86_idtfunctionptrs+0x253>
    9459:	1a 00                	sbb    (%eax),%al
    945b:	70 e1                	jo     943e <__runtime_v86_idtfunctionptrs+0x27e>
    945d:	1a 00                	sbb    (%eax),%al
    945f:	70 08                	jo     9469 <__runtime_v86_idtfunctionptrs+0x2a9>
    9461:	1b 00                	sbb    (%eax),%eax
    9463:	70 2f                	jo     9494 <__runtime_v86_idtfunctionptrs+0x2d4>
    9465:	1b 00                	sbb    (%eax),%eax
    9467:	70 56                	jo     94bf <__runtime_v86_idtfunctionptrs+0x2ff>
    9469:	1b 00                	sbb    (%eax),%eax
    946b:	70 7d                	jo     94ea <__runtime_v86_idtfunctionptrs+0x32a>
    946d:	1b 00                	sbb    (%eax),%eax
    946f:	70 a4                	jo     9415 <__runtime_v86_idtfunctionptrs+0x255>
    9471:	1b 00                	sbb    (%eax),%eax
    9473:	70 cb                	jo     9440 <__runtime_v86_idtfunctionptrs+0x280>
    9475:	1b 00                	sbb    (%eax),%eax
    9477:	70 f2                	jo     946b <__runtime_v86_idtfunctionptrs+0x2ab>
    9479:	1b 00                	sbb    (%eax),%eax
    947b:	70 19                	jo     9496 <__runtime_v86_idtfunctionptrs+0x2d6>
    947d:	1c 00                	sbb    $0x0,%al
    947f:	70 40                	jo     94c1 <__runtime_v86_idtfunctionptrs+0x301>
    9481:	1c 00                	sbb    $0x0,%al
    9483:	70 67                	jo     94ec <__runtime_v86_idtfunctionptrs+0x32c>
    9485:	1c 00                	sbb    $0x0,%al
    9487:	70 8e                	jo     9417 <__runtime_v86_idtfunctionptrs+0x257>
    9489:	1c 00                	sbb    $0x0,%al
    948b:	70 b5                	jo     9442 <__runtime_v86_idtfunctionptrs+0x282>
    948d:	1c 00                	sbb    $0x0,%al
    948f:	70 dc                	jo     946d <__runtime_v86_idtfunctionptrs+0x2ad>
    9491:	1c 00                	sbb    $0x0,%al
    9493:	70 03                	jo     9498 <__runtime_v86_idtfunctionptrs+0x2d8>
    9495:	1d 00 70 2a 1d       	sbb    $0x1d2a7000,%eax
    949a:	00 70 51             	add    %dh,0x51(%eax)
    949d:	1d 00 70 78 1d       	sbb    $0x1d787000,%eax
    94a2:	00 70 9f             	add    %dh,-0x61(%eax)
    94a5:	1d 00 70 c6 1d       	sbb    $0x1dc67000,%eax
    94aa:	00 70 ed             	add    %dh,-0x13(%eax)
    94ad:	1d 00 70 14 1e       	sbb    $0x1e147000,%eax
    94b2:	00 70 3b             	add    %dh,0x3b(%eax)
    94b5:	1e                   	push   %ds
    94b6:	00 70 62             	add    %dh,0x62(%eax)
    94b9:	1e                   	push   %ds
    94ba:	00 70 89             	add    %dh,-0x77(%eax)
    94bd:	1e                   	push   %ds
    94be:	00 70 b0             	add    %dh,-0x50(%eax)
    94c1:	1e                   	push   %ds
    94c2:	00 70 d7             	add    %dh,-0x29(%eax)
    94c5:	1e                   	push   %ds
    94c6:	00 70 fe             	add    %dh,-0x2(%eax)
    94c9:	1e                   	push   %ds
    94ca:	00 70 25             	add    %dh,0x25(%eax)
    94cd:	1f                   	pop    %ds
    94ce:	00 70 4c             	add    %dh,0x4c(%eax)
    94d1:	1f                   	pop    %ds
    94d2:	00 70 73             	add    %dh,0x73(%eax)
    94d5:	1f                   	pop    %ds
    94d6:	00 70 9a             	add    %dh,-0x66(%eax)
    94d9:	1f                   	pop    %ds
    94da:	00 70 c1             	add    %dh,-0x3f(%eax)
    94dd:	1f                   	pop    %ds
    94de:	00 70 e8             	add    %dh,-0x18(%eax)
    94e1:	1f                   	pop    %ds
    94e2:	00 70 0f             	add    %dh,0xf(%eax)
    94e5:	20 00                	and    %al,(%eax)
    94e7:	70 36                	jo     951f <__runtime_v86_idtfunctionptrs+0x35f>
    94e9:	20 00                	and    %al,(%eax)
    94eb:	70 5d                	jo     954a <__runtime_v86_idtfunctionptrs+0x38a>
    94ed:	20 00                	and    %al,(%eax)
    94ef:	70 84                	jo     9475 <__runtime_v86_idtfunctionptrs+0x2b5>
    94f1:	20 00                	and    %al,(%eax)
    94f3:	70 ab                	jo     94a0 <__runtime_v86_idtfunctionptrs+0x2e0>
    94f5:	20 00                	and    %al,(%eax)
    94f7:	70 d2                	jo     94cb <__runtime_v86_idtfunctionptrs+0x30b>
    94f9:	20 00                	and    %al,(%eax)
    94fb:	70 f9                	jo     94f6 <__runtime_v86_idtfunctionptrs+0x336>
    94fd:	20 00                	and    %al,(%eax)
    94ff:	70 20                	jo     9521 <__runtime_v86_idtfunctionptrs+0x361>
    9501:	21 00                	and    %eax,(%eax)
    9503:	70 47                	jo     954c <__runtime_v86_idtfunctionptrs+0x38c>
    9505:	21 00                	and    %eax,(%eax)
    9507:	70 6e                	jo     9577 <__runtime_v86_idtfunctionptrs+0x3b7>
    9509:	21 00                	and    %eax,(%eax)
    950b:	70 95                	jo     94a2 <__runtime_v86_idtfunctionptrs+0x2e2>
    950d:	21 00                	and    %eax,(%eax)
    950f:	70 bc                	jo     94cd <__runtime_v86_idtfunctionptrs+0x30d>
    9511:	21 00                	and    %eax,(%eax)
    9513:	70 e3                	jo     94f8 <__runtime_v86_idtfunctionptrs+0x338>
    9515:	21 00                	and    %eax,(%eax)
    9517:	70 0a                	jo     9523 <__runtime_v86_idtfunctionptrs+0x363>
    9519:	22 00                	and    (%eax),%al
    951b:	70 31                	jo     954e <__runtime_v86_idtfunctionptrs+0x38e>
    951d:	22 00                	and    (%eax),%al
    951f:	70 58                	jo     9579 <__runtime_v86_idtfunctionptrs+0x3b9>
    9521:	22 00                	and    (%eax),%al
    9523:	70 7f                	jo     95a4 <__runtime_v86_idtfunctionptrs+0x3e4>
    9525:	22 00                	and    (%eax),%al
    9527:	70 a6                	jo     94cf <__runtime_v86_idtfunctionptrs+0x30f>
    9529:	22 00                	and    (%eax),%al
    952b:	70 cd                	jo     94fa <__runtime_v86_idtfunctionptrs+0x33a>
    952d:	22 00                	and    (%eax),%al
    952f:	70 f4                	jo     9525 <__runtime_v86_idtfunctionptrs+0x365>
    9531:	22 00                	and    (%eax),%al
    9533:	70 1b                	jo     9550 <__runtime_v86_idtfunctionptrs+0x390>
    9535:	23 00                	and    (%eax),%eax
    9537:	70 42                	jo     957b <__runtime_v86_idtfunctionptrs+0x3bb>
    9539:	23 00                	and    (%eax),%eax
    953b:	70 69                	jo     95a6 <__runtime_v86_idtfunctionptrs+0x3e6>
    953d:	23 00                	and    (%eax),%eax
    953f:	70 90                	jo     94d1 <__runtime_v86_idtfunctionptrs+0x311>
    9541:	23 00                	and    (%eax),%eax
    9543:	70 b7                	jo     94fc <__runtime_v86_idtfunctionptrs+0x33c>
    9545:	23 00                	and    (%eax),%eax
    9547:	70 de                	jo     9527 <__runtime_v86_idtfunctionptrs+0x367>
    9549:	23 00                	and    (%eax),%eax
    954b:	70 05                	jo     9552 <__runtime_v86_idtfunctionptrs+0x392>
    954d:	24 00                	and    $0x0,%al
    954f:	70 2c                	jo     957d <__runtime_v86_idtfunctionptrs+0x3bd>
    9551:	24 00                	and    $0x0,%al
    9553:	70 53                	jo     95a8 <__runtime_v86_idtfunctionptrs+0x3e8>
    9555:	24 00                	and    $0x0,%al
    9557:	70 7a                	jo     95d3 <vmx_invalidate_descriptor+0x13>
    9559:	24 00                	and    $0x0,%al
    955b:	70 a1                	jo     94fe <__runtime_v86_idtfunctionptrs+0x33e>
    955d:	24 00                	and    $0x0,%al
    955f:	70 c8                	jo     9529 <__runtime_v86_idtfunctionptrs+0x369>
    9561:	24 00                	and    $0x0,%al
    9563:	70 ef                	jo     9554 <__runtime_v86_idtfunctionptrs+0x394>
    9565:	24 00                	and    $0x0,%al
    9567:	70 16                	jo     957f <__runtime_v86_idtfunctionptrs+0x3bf>
    9569:	25 00 70 3d 25       	and    $0x253d7000,%eax
    956e:	00 70 64             	add    %dh,0x64(%eax)
    9571:	25 00 70 8b 25       	and    $0x258b7000,%eax
    9576:	00 70 b2             	add    %dh,-0x4e(%eax)
    9579:	25 00 70 d9 25       	and    $0x25d97000,%eax
    957e:	00 70 00             	add    %dh,0x0(%eax)
    9581:	26 00 70 27          	add    %dh,%es:0x27(%eax)
    9585:	26 00 70 4e          	add    %dh,%es:0x4e(%eax)
    9589:	26 00 70 75          	add    %dh,%es:0x75(%eax)
    958d:	26 00 70 9c          	add    %dh,%es:-0x64(%eax)
    9591:	26 00 70 c3          	add    %dh,%es:-0x3d(%eax)
    9595:	26 00 70 ea          	add    %dh,%es:-0x16(%eax)
    9599:	26 00 70 11          	add    %dh,%es:0x11(%eax)
    959d:	27                   	daa    
    959e:	00 70 38             	add    %dh,0x38(%eax)
    95a1:	27                   	daa    
    95a2:	00 70 5f             	add    %dh,0x5f(%eax)
    95a5:	27                   	daa    
    95a6:	00 70 86             	add    %dh,-0x7a(%eax)
    95a9:	27                   	daa    
    95aa:	00 70 ad             	add    %dh,-0x53(%eax)
    95ad:	27                   	daa    
    95ae:	00 70 d4             	add    %dh,-0x2c(%eax)
    95b1:	27                   	daa    
    95b2:	00 70 fb             	add    %dh,-0x5(%eax)
    95b5:	27                   	daa    
    95b6:	00 70 22             	add    %dh,0x22(%eax)
    95b9:	28 00                	sub    %al,(%eax)
    95bb:	70 49                	jo     9606 <vmx_invalidate_descriptor+0x46>
    95bd:	28 00                	sub    %al,(%eax)
    95bf:	70 00                	jo     95c1 <vmx_invalidate_descriptor+0x1>

00000000000095c0 <vmx_invalidate_descriptor>:
	...

0000000000009640 <v86monitor_guest_gdt_base>:
    9640:	00 00                	add    %al,(%eax)
	...

0000000000009644 <v86monitor_guest_gdt_limit>:
    9644:	00 00                	add    %al,(%eax)
	...

0000000000009648 <v86monitor_guest_idt_base>:
    9648:	00 00                	add    %al,(%eax)
	...

000000000000964c <v86monitor_guest_idt_limit>:
    964c:	00 00                	add    %al,(%eax)
	...

0000000000009650 <v86monitor_guest_reg_cr0>:
    9650:	20 00                	and    %al,(%eax)
	...

0000000000009654 <v86monitor_guest_reg_eax>:
    9654:	00 00                	add    %al,(%eax)
	...

0000000000009658 <v86monitor_guest_reg_ebx>:
    9658:	00 00                	add    %al,(%eax)
	...

000000000000965c <v86monitor_guest_reg_ecx>:
    965c:	00 00                	add    %al,(%eax)
	...

0000000000009660 <v86monitor_guest_reg_edx>:
    9660:	00 00                	add    %al,(%eax)
	...

0000000000009664 <v86monitor_guest_reg_esi>:
    9664:	00 00                	add    %al,(%eax)
	...

0000000000009668 <v86monitor_guest_reg_edi>:
    9668:	00 00                	add    %al,(%eax)
	...

000000000000966c <v86monitor_guest_reg_ebp>:
    966c:	00 00                	add    %al,(%eax)
	...

0000000000009670 <v86monitor_guest_reg_esp>:
    9670:	00 00                	add    %al,(%eax)
	...

0000000000009674 <v86monitor_guest_reg_eip>:
    9674:	00 00                	add    %al,(%eax)
	...

0000000000009678 <v86monitor_guest_reg_cs>:
    9678:	00 00                	add    %al,(%eax)
	...

000000000000967c <v86monitor_guest_reg_ss>:
    967c:	00 00                	add    %al,(%eax)
	...

0000000000009680 <v86monitor_guest_reg_eflags>:
    9680:	00 00                	add    %al,(%eax)
	...

0000000000009684 <v86monitor_guest_reg_cr4>:
    9684:	00 00                	add    %al,(%eax)
	...

0000000000009688 <v86monitor_guest_reg_cr3>:
	...

0000000000009690 <e820map>:
	...
    9698:	00 fc                	add    %bh,%ah
    969a:	09 00                	or     %eax,(%eax)
    969c:	00 00                	add    %al,(%eax)
    969e:	00 00                	add    %al,(%eax)
    96a0:	01 00                	add    %eax,(%eax)
    96a2:	00 00                	add    %al,(%eax)
    96a4:	00 fc                	add    %bh,%ah
    96a6:	09 00                	or     %eax,(%eax)
    96a8:	00 00                	add    %al,(%eax)
    96aa:	00 00                	add    %al,(%eax)
    96ac:	00 04 00             	add    %al,(%eax,%eax,1)
    96af:	00 00                	add    %al,(%eax)
    96b1:	00 00                	add    %al,(%eax)
    96b3:	00 02                	add    %al,(%edx)
    96b5:	00 00                	add    %al,(%eax)
    96b7:	00 00                	add    %al,(%eax)
    96b9:	00 0e                	add    %cl,(%esi)
    96bb:	00 00                	add    %al,(%eax)
    96bd:	00 00                	add    %al,(%eax)
    96bf:	00 00                	add    %al,(%eax)
    96c1:	00 02                	add    %al,(%edx)
    96c3:	00 00                	add    %al,(%eax)
    96c5:	00 00                	add    %al,(%eax)
    96c7:	00 02                	add    %al,(%edx)
    96c9:	00 00                	add    %al,(%eax)
    96cb:	00 00                	add    %al,(%eax)
    96cd:	00 10                	add    %dl,(%eax)
    96cf:	00 00                	add    %al,(%eax)
    96d1:	00 00                	add    %al,(%eax)
    96d3:	00 00                	add    %al,(%eax)
    96d5:	00 68 bf             	add    %ch,-0x41(%eax)
    96d8:	00 00                	add    %al,(%eax)
    96da:	00 00                	add    %al,(%eax)
    96dc:	01 00                	add    %eax,(%eax)
    96de:	00 00                	add    %al,(%eax)
    96e0:	00 e0                	add    %ah,%al
    96e2:	78 bf                	js     96a3 <e820map+0x13>
    96e4:	00 00                	add    %al,(%eax)
    96e6:	00 00                	add    %al,(%eax)
    96e8:	00 20                	add    %ah,(%eax)
    96ea:	00 00                	add    %al,(%eax)
    96ec:	00 00                	add    %al,(%eax)
    96ee:	00 00                	add    %al,(%eax)
    96f0:	09 00                	or     %eax,(%eax)
    96f2:	00 00                	add    %al,(%eax)
    96f4:	00 00                	add    %al,(%eax)
    96f6:	79 bf                	jns    96b7 <e820map+0x27>
    96f8:	00 00                	add    %al,(%eax)
    96fa:	00 00                	add    %al,(%eax)
    96fc:	00 e0                	add    %ah,%al
    96fe:	00 00                	add    %al,(%eax)
    9700:	00 00                	add    %al,(%eax)
    9702:	00 00                	add    %al,(%eax)
    9704:	03 00                	add    (%eax),%eax
    9706:	00 00                	add    %al,(%eax)
    9708:	00 e0                	add    %ah,%al
    970a:	79 bf                	jns    96cb <e820map+0x3b>
    970c:	00 00                	add    %al,(%eax)
    970e:	00 00                	add    %al,(%eax)
    9710:	00 20                	add    %ah,(%eax)
    9712:	03 00                	add    (%eax),%eax
    9714:	00 00                	add    %al,(%eax)
    9716:	00 00                	add    %al,(%eax)
    9718:	04 00                	add    $0x0,%al
    971a:	00 00                	add    %al,(%eax)
    971c:	00 00                	add    %al,(%eax)
    971e:	7d bf                	jge    96df <e820map+0x4f>
    9720:	00 00                	add    %al,(%eax)
    9722:	00 00                	add    %al,(%eax)
    9724:	00 00                	add    %al,(%eax)
    9726:	01 00                	add    %eax,(%eax)
    9728:	00 00                	add    %al,(%eax)
    972a:	00 00                	add    %al,(%eax)
    972c:	02 00                	add    (%eax),%al
    972e:	00 00                	add    %al,(%eax)
    9730:	00 c0                	add    %al,%al
    9732:	7e bf                	jle    96f3 <e820map+0x63>
    9734:	00 00                	add    %al,(%eax)
    9736:	00 00                	add    %al,(%eax)
    9738:	00 40 81             	add    %al,-0x7f(%eax)
    973b:	00 00                	add    %al,(%eax)
    973d:	00 00                	add    %al,(%eax)
    973f:	00 02                	add    %al,(%edx)
    9741:	00 00                	add    %al,(%eax)
    9743:	00 00                	add    %al,(%eax)
    9745:	00 e0                	add    %ah,%al
    9747:	fe 00                	incb   (%eax)
    9749:	00 00                	add    %al,(%eax)
    974b:	00 00                	add    %al,(%eax)
    974d:	00 40 00             	add    %al,0x0(%eax)
    9750:	00 00                	add    %al,(%eax)
    9752:	00 00                	add    %al,(%eax)
    9754:	02 00                	add    (%eax),%al
    9756:	00 00                	add    %al,(%eax)
    9758:	00 00                	add    %al,(%eax)
    975a:	00 00                	add    %al,(%eax)
    975c:	01 00                	add    %eax,(%eax)
    975e:	00 00                	add    %al,(%eax)
    9760:	00 00                	add    %al,(%eax)
    9762:	00 40 00             	add    %al,0x0(%eax)
    9765:	00 00                	add    %al,(%eax)
    9767:	00 01                	add    %al,(%ecx)
    9769:	00 00                	add    %al,(%eax)
	...

000000000000976c <max_e820map_index>:
    976c:	0b 00                	or     (%eax),%eax
	...

0000000000009770 <ine820handler>:
	...

0000000000009780 <isl_guesthastr>:
    9780:	00 00                	add    %al,(%eax)
	...

0000000000009784 <isl_guest_TR_base>:
    9784:	00 00                	add    %al,(%eax)
	...

0000000000009788 <isl_guest_TR_access_rights>:
    9788:	00 00                	add    %al,(%eax)
	...

000000000000978c <isl_guest_TR_limit>:
    978c:	00 00                	add    %al,(%eax)
	...

0000000000009790 <isl_guest_TR_selector>:
    9790:	00 00                	add    %al,(%eax)
	...

0000000000009794 <isl_guest_LDTR_base>:
    9794:	00 00                	add    %al,(%eax)
	...

0000000000009798 <isl_guest_LDTR_access_rights>:
    9798:	00 00                	add    %al,(%eax)
	...

000000000000979c <isl_guest_LDTR_limit>:
    979c:	00 00                	add    %al,(%eax)
	...

00000000000097a0 <isl_guest_LDTR_selector>:
    97a0:	00 00                	add    %al,(%eax)
	...

00000000000097a4 <limbo_rsp>:
	...

00000000000097b0 <legend>:
    97b0:	50                   	push   %eax
    97b1:	37                   	aaa    
    97b2:	00 70 63             	add    %dh,0x63(%eax)
    97b5:	37                   	aaa    
    97b6:	00 70 7e             	add    %dh,0x7e(%eax)
    97b9:	37                   	aaa    
    97ba:	00 70 9a             	add    %dh,-0x66(%eax)
    97bd:	37                   	aaa    
    97be:	00 70 b1             	add    %dh,-0x4f(%eax)
    97c1:	37                   	aaa    
    97c2:	00 70 c9             	add    %dh,-0x37(%eax)
    97c5:	37                   	aaa    
    97c6:	00 70 db             	add    %dh,-0x25(%eax)
    97c9:	37                   	aaa    
    97ca:	00 70 f3             	add    %dh,-0xd(%eax)
    97cd:	37                   	aaa    
    97ce:	00 70 0b             	add    %dh,0xb(%eax)
    97d1:	38 00                	cmp    %al,(%eax)
    97d3:	70 23                	jo     97f8 <islgprtable+0x8>
    97d5:	38 00                	cmp    %al,(%eax)
    97d7:	70 3b                	jo     9814 <guest_currentstate>
    97d9:	38 00                	cmp    %al,(%eax)
    97db:	70 52                	jo     982f <machine+0xf>
    97dd:	38 00                	cmp    %al,(%eax)
    97df:	70 00                	jo     97e1 <guest_limbo_cs+0x1>

00000000000097e0 <guest_limbo_cs>:
	...

00000000000097e2 <guest_limbo_ip>:
	...

00000000000097f0 <islgprtable>:
    97f0:	10 a0 00 70 18 a0    	adc    %ah,-0x5fe79000(%eax)
    97f6:	00 70 1c             	add    %dh,0x1c(%eax)
    97f9:	a0 00 70 14 a0       	mov    0xa0147000,%al
    97fe:	00 70 18             	add    %dh,0x18(%eax)
    9801:	9e                   	sahf   
    9802:	00 70 20             	add    %dh,0x20(%eax)
    9805:	a0 00 70 24 a0       	mov    0xa0247000,%al
    980a:	00 70 28             	add    %dh,0x28(%eax)
    980d:	a0 00 70 00 00       	mov    0x7000,%al

0000000000009810 <guestcr3val_when_cr0_pg_off>:
    9810:	00 00                	add    %al,(%eax)
	...

0000000000009814 <guest_currentstate>:
    9814:	00 00                	add    %al,(%eax)
	...

0000000000009818 <guest_nextstate>:
    9818:	01 00                	add    %eax,(%eax)
    981a:	00 00                	add    %al,(%eax)
    981c:	00 00                	add    %al,(%eax)
	...

0000000000009820 <machine>:
    9820:	00 40 00             	add    %al,0x0(%eax)
    9823:	00 68 9c             	add    %ch,-0x64(%eax)
    9826:	00 70 02             	add    %dh,0x2(%eax)
    9829:	40                   	inc    %eax
    982a:	00 00                	add    %al,(%eax)
    982c:	6c                   	insb   (%dx),%es:(%edi)
    982d:	9c                   	pushf  
    982e:	00 70 04             	add    %dh,0x4(%eax)
    9831:	40                   	inc    %eax
    9832:	00 00                	add    %al,(%eax)
    9834:	70 9c                	jo     97d2 <legend+0x22>
    9836:	00 70 06             	add    %dh,0x6(%eax)
    9839:	40                   	inc    %eax
    983a:	00 00                	add    %al,(%eax)
    983c:	74 9c                	je     97da <legend+0x2a>
    983e:	00 70 08             	add    %dh,0x8(%eax)
    9841:	40                   	inc    %eax
    9842:	00 00                	add    %al,(%eax)
    9844:	78 9c                	js     97e2 <guest_limbo_ip>
    9846:	00 70 0a             	add    %dh,0xa(%eax)
    9849:	40                   	inc    %eax
    984a:	00 00                	add    %al,(%eax)
    984c:	7c 9c                	jl     97ea <guest_limbo_ip+0x8>
    984e:	00 70 0c             	add    %dh,0xc(%eax)
    9851:	40                   	inc    %eax
    9852:	00 00                	add    %al,(%eax)
    9854:	80 9c 00 70 0e 40 00 	sbbb   $0x0,0x400e70(%eax,%eax,1)
    985b:	00 
    985c:	84 9c 00 70 10 40 00 	test   %bl,0x401070(%eax,%eax,1)
    9863:	00 88 9c 00 70 12    	add    %cl,0x1270009c(%eax)
    9869:	40                   	inc    %eax
    986a:	00 00                	add    %al,(%eax)
    986c:	8c 9c 00 70 14 40 00 	mov    %ds,0x401470(%eax,%eax,1)
    9873:	00 90 9c 00 70 16    	add    %dl,0x1670009c(%eax)
    9879:	40                   	inc    %eax
    987a:	00 00                	add    %al,(%eax)
    987c:	94                   	xchg   %eax,%esp
    987d:	9c                   	pushf  
    987e:	00 70 18             	add    %dh,0x18(%eax)
    9881:	40                   	inc    %eax
    9882:	00 00                	add    %al,(%eax)
    9884:	98                   	cwtl   
    9885:	9c                   	pushf  
    9886:	00 70 1a             	add    %dh,0x1a(%eax)
    9889:	40                   	inc    %eax
    988a:	00 00                	add    %al,(%eax)
    988c:	9c                   	pushf  
    988d:	9c                   	pushf  
    988e:	00 70 1c             	add    %dh,0x1c(%eax)
    9891:	40                   	inc    %eax
    9892:	00 00                	add    %al,(%eax)
    9894:	a0 9c 00 70 00       	mov    0x70009c,%al
    9899:	60                   	pusha  
    989a:	00 00                	add    %al,(%eax)
    989c:	a8 9c                	test   $0x9c,%al
    989e:	00 70 02             	add    %dh,0x2(%eax)
    98a1:	60                   	pusha  
    98a2:	00 00                	add    %al,(%eax)
    98a4:	b0 9c                	mov    $0x9c,%al
    98a6:	00 70 04             	add    %dh,0x4(%eax)
    98a9:	60                   	pusha  
    98aa:	00 00                	add    %al,(%eax)
    98ac:	b8 9c 00 70 06       	mov    $0x670009c,%eax
    98b1:	60                   	pusha  
    98b2:	00 00                	add    %al,(%eax)
    98b4:	c0 9c 00 70 08 60 00 	rcrb   $0x0,0x600870(%eax,%eax,1)
    98bb:	00 
    98bc:	c8 9c 00 70          	enter  $0x9c,$0x70
    98c0:	0a 60 00             	or     0x0(%eax),%ah
    98c3:	00 d0                	add    %dl,%al
    98c5:	9c                   	pushf  
    98c6:	00 70 0c             	add    %dh,0xc(%eax)
    98c9:	60                   	pusha  
    98ca:	00 00                	add    %al,(%eax)
    98cc:	d8 9c 00 70 0e 60 00 	fcomps 0x600e70(%eax,%eax,1)
    98d3:	00 e0                	add    %ah,%al
    98d5:	9c                   	pushf  
    98d6:	00 70 00             	add    %dh,0x0(%eax)
    98d9:	20 00                	and    %al,(%eax)
    98db:	00 e8                	add    %ch,%al
    98dd:	9c                   	pushf  
    98de:	00 70 01             	add    %dh,0x1(%eax)
    98e1:	20 00                	and    %al,(%eax)
    98e3:	00 ec                	add    %ch,%ah
    98e5:	9c                   	pushf  
    98e6:	00 70 02             	add    %dh,0x2(%eax)
    98e9:	20 00                	and    %al,(%eax)
    98eb:	00 f0                	add    %dh,%al
    98ed:	9c                   	pushf  
    98ee:	00 70 03             	add    %dh,0x3(%eax)
    98f1:	20 00                	and    %al,(%eax)
    98f3:	00 f4                	add    %dh,%ah
    98f5:	9c                   	pushf  
    98f6:	00 70 06             	add    %dh,0x6(%eax)
    98f9:	20 00                	and    %al,(%eax)
    98fb:	00 00                	add    %al,(%eax)
    98fd:	9d                   	popf   
    98fe:	00 70 07             	add    %dh,0x7(%eax)
    9901:	20 00                	and    %al,(%eax)
    9903:	00 04 9d 00 70 08 20 	add    %al,0x20087000(,%ebx,4)
    990a:	00 00                	add    %al,(%eax)
    990c:	08 9d 00 70 09 20    	or     %bl,0x20097000(%ebp)
    9912:	00 00                	add    %al,(%eax)
    9914:	0c 9d                	or     $0x9d,%al
    9916:	00 70 0a             	add    %dh,0xa(%eax)
    9919:	20 00                	and    %al,(%eax)
    991b:	00 10                	add    %dl,(%eax)
    991d:	9d                   	popf   
    991e:	00 70 0b             	add    %dh,0xb(%eax)
    9921:	20 00                	and    %al,(%eax)
    9923:	00 14 9d 00 70 0c 20 	add    %dl,0x200c7000(,%ebx,4)
    992a:	00 00                	add    %al,(%eax)
    992c:	18 9d 00 70 0d 20    	sbb    %bl,0x200d7000(%ebp)
    9932:	00 00                	add    %al,(%eax)
    9934:	1c 9d                	sbb    $0x9d,%al
    9936:	00 70 10             	add    %dh,0x10(%eax)
    9939:	20 00                	and    %al,(%eax)
    993b:	00 20                	add    %ah,(%eax)
    993d:	9d                   	popf   
    993e:	00 70 11             	add    %dh,0x11(%eax)
    9941:	20 00                	and    %al,(%eax)
    9943:	00 24 9d 00 70 00 6c 	add    %ah,0x6c007000(,%ebx,4)
    994a:	00 00                	add    %al,(%eax)
    994c:	30 9d 00 70 02 6c    	xor    %bl,0x6c027000(%ebp)
    9952:	00 00                	add    %al,(%eax)
    9954:	38 9d 00 70 04 6c    	cmp    %bl,0x6c047000(%ebp)
    995a:	00 00                	add    %al,(%eax)
    995c:	40                   	inc    %eax
    995d:	9d                   	popf   
    995e:	00 70 06             	add    %dh,0x6(%eax)
    9961:	6c                   	insb   (%dx),%es:(%edi)
    9962:	00 00                	add    %al,(%eax)
    9964:	48                   	dec    %eax
    9965:	9d                   	popf   
    9966:	00 70 08             	add    %dh,0x8(%eax)
    9969:	6c                   	insb   (%dx),%es:(%edi)
    996a:	00 00                	add    %al,(%eax)
    996c:	50                   	push   %eax
    996d:	9d                   	popf   
    996e:	00 70 0a             	add    %dh,0xa(%eax)
    9971:	6c                   	insb   (%dx),%es:(%edi)
    9972:	00 00                	add    %al,(%eax)
    9974:	58                   	pop    %eax
    9975:	9d                   	popf   
    9976:	00 70 0c             	add    %dh,0xc(%eax)
    9979:	6c                   	insb   (%dx),%es:(%edi)
    997a:	00 00                	add    %al,(%eax)
    997c:	60                   	pusha  
    997d:	9d                   	popf   
    997e:	00 70 0e             	add    %dh,0xe(%eax)
    9981:	6c                   	insb   (%dx),%es:(%edi)
    9982:	00 00                	add    %al,(%eax)
    9984:	68 9d 00 70 10       	push   $0x1070009d
    9989:	6c                   	insb   (%dx),%es:(%edi)
    998a:	00 00                	add    %al,(%eax)
    998c:	70 9d                	jo     992b <machine+0x10b>
    998e:	00 70 12             	add    %dh,0x12(%eax)
    9991:	6c                   	insb   (%dx),%es:(%edi)
    9992:	00 00                	add    %al,(%eax)
    9994:	78 9d                	js     9933 <machine+0x113>
    9996:	00 70 14             	add    %dh,0x14(%eax)
    9999:	6c                   	insb   (%dx),%es:(%edi)
    999a:	00 00                	add    %al,(%eax)
    999c:	80 9d 00 70 16 6c 00 	sbbb   $0x0,0x6c167000(%ebp)
    99a3:	00 88 9d 00 70 00    	add    %cl,0x70009d(%eax)
    99a9:	4c                   	dec    %esp
    99aa:	00 00                	add    %al,(%eax)
    99ac:	90                   	nop    
    99ad:	9d                   	popf   
    99ae:	00 70 00             	add    %dh,0x0(%eax)
    99b1:	0c 00                	or     $0x0,%al
    99b3:	00 94 9d 00 70 02 0c 	add    %dl,0xc027000(%ebp,%ebx,4)
    99ba:	00 00                	add    %al,(%eax)
    99bc:	96                   	xchg   %eax,%esi
    99bd:	9d                   	popf   
    99be:	00 70 04             	add    %dh,0x4(%eax)
    99c1:	0c 00                	or     $0x0,%al
    99c3:	00 98 9d 00 70 06    	add    %bl,0x670009d(%eax)
    99c9:	0c 00                	or     $0x0,%al
    99cb:	00 9a 9d 00 70 08    	add    %bl,0x870009d(%edx)
    99d1:	0c 00                	or     $0x0,%al
    99d3:	00 9c 9d 00 70 0a 0c 	add    %bl,0xc0a7000(%ebp,%ebx,4)
    99da:	00 00                	add    %al,(%eax)
    99dc:	9e                   	sahf   
    99dd:	9d                   	popf   
    99de:	00 70 0c             	add    %dh,0xc(%eax)
    99e1:	0c 00                	or     $0x0,%al
    99e3:	00 a0 9d 00 70 00    	add    %ah,0x70009d(%eax)
    99e9:	68 00 00 a8 9d       	push   $0x9da80000
    99ee:	00 70 02             	add    %dh,0x2(%eax)
    99f1:	68 00 00 b0 9d       	push   $0x9db00000
    99f6:	00 70 04             	add    %dh,0x4(%eax)
    99f9:	68 00 00 b8 9d       	push   $0x9db80000
    99fe:	00 70 06             	add    %dh,0x6(%eax)
    9a01:	68 00 00 c0 9d       	push   $0x9dc00000
    9a06:	00 70 08             	add    %dh,0x8(%eax)
    9a09:	68 00 00 c8 9d       	push   $0x9dc80000
    9a0e:	00 70 0a             	add    %dh,0xa(%eax)
    9a11:	68 00 00 d0 9d       	push   $0x9dd00000
    9a16:	00 70 0c             	add    %dh,0xc(%eax)
    9a19:	68 00 00 d8 9d       	push   $0x9dd80000
    9a1e:	00 70 0e             	add    %dh,0xe(%eax)
    9a21:	68 00 00 e0 9d       	push   $0x9de00000
    9a26:	00 70 10             	add    %dh,0x10(%eax)
    9a29:	68 00 00 e8 9d       	push   $0x9de80000
    9a2e:	00 70 12             	add    %dh,0x12(%eax)
    9a31:	68 00 00 f0 9d       	push   $0x9df00000
    9a36:	00 70 14             	add    %dh,0x14(%eax)
    9a39:	68 00 00 f8 9d       	push   $0x9df80000
    9a3e:	00 70 16             	add    %dh,0x16(%eax)
    9a41:	68 00 00 00 9e       	push   $0x9e000000
    9a46:	00 70 18             	add    %dh,0x18(%eax)
    9a49:	68 00 00 08 9e       	push   $0x9e080000
    9a4e:	00 70 1a             	add    %dh,0x1a(%eax)
    9a51:	68 00 00 10 9e       	push   $0x9e100000
    9a56:	00 70 1c             	add    %dh,0x1c(%eax)
    9a59:	68 00 00 18 9e       	push   $0x9e180000
    9a5e:	00 70 1e             	add    %dh,0x1e(%eax)
    9a61:	68 00 00 20 9e       	push   $0x9e200000
    9a66:	00 70 20             	add    %dh,0x20(%eax)
    9a69:	68 00 00 28 9e       	push   $0x9e280000
    9a6e:	00 70 22             	add    %dh,0x22(%eax)
    9a71:	68 00 00 30 9e       	push   $0x9e300000
    9a76:	00 70 24             	add    %dh,0x24(%eax)
    9a79:	68 00 00 38 9e       	push   $0x9e380000
    9a7e:	00 70 26             	add    %dh,0x26(%eax)
    9a81:	68 00 00 40 9e       	push   $0x9e400000
    9a86:	00 70 00             	add    %dh,0x0(%eax)
    9a89:	48                   	dec    %eax
    9a8a:	00 00                	add    %al,(%eax)
    9a8c:	48                   	dec    %eax
    9a8d:	9e                   	sahf   
    9a8e:	00 70 02             	add    %dh,0x2(%eax)
    9a91:	48                   	dec    %eax
    9a92:	00 00                	add    %al,(%eax)
    9a94:	4c                   	dec    %esp
    9a95:	9e                   	sahf   
    9a96:	00 70 04             	add    %dh,0x4(%eax)
    9a99:	48                   	dec    %eax
    9a9a:	00 00                	add    %al,(%eax)
    9a9c:	50                   	push   %eax
    9a9d:	9e                   	sahf   
    9a9e:	00 70 06             	add    %dh,0x6(%eax)
    9aa1:	48                   	dec    %eax
    9aa2:	00 00                	add    %al,(%eax)
    9aa4:	54                   	push   %esp
    9aa5:	9e                   	sahf   
    9aa6:	00 70 08             	add    %dh,0x8(%eax)
    9aa9:	48                   	dec    %eax
    9aaa:	00 00                	add    %al,(%eax)
    9aac:	58                   	pop    %eax
    9aad:	9e                   	sahf   
    9aae:	00 70 0a             	add    %dh,0xa(%eax)
    9ab1:	48                   	dec    %eax
    9ab2:	00 00                	add    %al,(%eax)
    9ab4:	5c                   	pop    %esp
    9ab5:	9e                   	sahf   
    9ab6:	00 70 0c             	add    %dh,0xc(%eax)
    9ab9:	48                   	dec    %eax
    9aba:	00 00                	add    %al,(%eax)
    9abc:	60                   	pusha  
    9abd:	9e                   	sahf   
    9abe:	00 70 0e             	add    %dh,0xe(%eax)
    9ac1:	48                   	dec    %eax
    9ac2:	00 00                	add    %al,(%eax)
    9ac4:	64                   	fs
    9ac5:	9e                   	sahf   
    9ac6:	00 70 10             	add    %dh,0x10(%eax)
    9ac9:	48                   	dec    %eax
    9aca:	00 00                	add    %al,(%eax)
    9acc:	68 9e 00 70 12       	push   $0x1270009e
    9ad1:	48                   	dec    %eax
    9ad2:	00 00                	add    %al,(%eax)
    9ad4:	6c                   	insb   (%dx),%es:(%edi)
    9ad5:	9e                   	sahf   
    9ad6:	00 70 14             	add    %dh,0x14(%eax)
    9ad9:	48                   	dec    %eax
    9ada:	00 00                	add    %al,(%eax)
    9adc:	70 9e                	jo     9a7c <machine+0x25c>
    9ade:	00 70 16             	add    %dh,0x16(%eax)
    9ae1:	48                   	dec    %eax
    9ae2:	00 00                	add    %al,(%eax)
    9ae4:	74 9e                	je     9a84 <machine+0x264>
    9ae6:	00 70 18             	add    %dh,0x18(%eax)
    9ae9:	48                   	dec    %eax
    9aea:	00 00                	add    %al,(%eax)
    9aec:	78 9e                	js     9a8c <machine+0x26c>
    9aee:	00 70 1a             	add    %dh,0x1a(%eax)
    9af1:	48                   	dec    %eax
    9af2:	00 00                	add    %al,(%eax)
    9af4:	7c 9e                	jl     9a94 <machine+0x274>
    9af6:	00 70 1c             	add    %dh,0x1c(%eax)
    9af9:	48                   	dec    %eax
    9afa:	00 00                	add    %al,(%eax)
    9afc:	80 9e 00 70 1e 48 00 	sbbb   $0x0,0x481e7000(%esi)
    9b03:	00 84 9e 00 70 20 48 	add    %al,0x48207000(%esi,%ebx,4)
    9b0a:	00 00                	add    %al,(%eax)
    9b0c:	88 9e 00 70 22 48    	mov    %bl,0x48227000(%esi)
    9b12:	00 00                	add    %al,(%eax)
    9b14:	8c 9e 00 70 24 48    	mov    %ds,0x48247000(%esi)
    9b1a:	00 00                	add    %al,(%eax)
    9b1c:	90                   	nop    
    9b1d:	9e                   	sahf   
    9b1e:	00 70 26             	add    %dh,0x26(%eax)
    9b21:	48                   	dec    %eax
    9b22:	00 00                	add    %al,(%eax)
    9b24:	94                   	xchg   %eax,%esp
    9b25:	9e                   	sahf   
    9b26:	00 70 28             	add    %dh,0x28(%eax)
    9b29:	48                   	dec    %eax
    9b2a:	00 00                	add    %al,(%eax)
    9b2c:	98                   	cwtl   
    9b2d:	9e                   	sahf   
    9b2e:	00 70 2a             	add    %dh,0x2a(%eax)
    9b31:	48                   	dec    %eax
    9b32:	00 00                	add    %al,(%eax)
    9b34:	9c                   	pushf  
    9b35:	9e                   	sahf   
    9b36:	00 70 00             	add    %dh,0x0(%eax)
    9b39:	08 00                	or     %al,(%eax)
    9b3b:	00 a0 9e 00 70 02    	add    %ah,0x270009e(%eax)
    9b41:	08 00                	or     %al,(%eax)
    9b43:	00 a2 9e 00 70 04    	add    %ah,0x470009e(%edx)
    9b49:	08 00                	or     %al,(%eax)
    9b4b:	00 a4 9e 00 70 06 08 	add    %ah,0x8067000(%esi,%ebx,4)
    9b52:	00 00                	add    %al,(%eax)
    9b54:	a6                   	cmpsb  %es:(%edi),%ds:(%esi)
    9b55:	9e                   	sahf   
    9b56:	00 70 08             	add    %dh,0x8(%eax)
    9b59:	08 00                	or     %al,(%eax)
    9b5b:	00 a8 9e 00 70 0a    	add    %ch,0xa70009e(%eax)
    9b61:	08 00                	or     %al,(%eax)
    9b63:	00 aa 9e 00 70 0c    	add    %ch,0xc70009e(%edx)
    9b69:	08 00                	or     %al,(%eax)
    9b6b:	00 ac 9e 00 70 0e 08 	add    %ch,0x80e7000(%esi,%ebx,4)
    9b72:	00 00                	add    %al,(%eax)
    9b74:	ae                   	scas   %es:(%edi),%al
    9b75:	9e                   	sahf   
    9b76:	00 70 00             	add    %dh,0x0(%eax)
    9b79:	28 00                	sub    %al,(%eax)
    9b7b:	00 b0 9e 00 70 01    	add    %dh,0x170009e(%eax)
    9b81:	28 00                	sub    %al,(%eax)
    9b83:	00 b4 9e 00 70 02 28 	add    %dh,0x28027000(%esi,%ebx,4)
    9b8a:	00 00                	add    %al,(%eax)
    9b8c:	b8 9e 00 70 03       	mov    $0x370009e,%eax
    9b91:	28 00                	sub    %al,(%eax)
    9b93:	00 bc 9e 00 70 00 00 	add    %bh,0x7000(%esi,%ebx,4)
    9b9a:	00 00                	add    %al,(%eax)
    9b9c:	00 00                	add    %al,(%eax)
	...

0000000000009ba0 <results>:
    9ba0:	1c 68                	sbb    $0x68,%al
    9ba2:	00 00                	add    %al,(%eax)
    9ba4:	18 9e 00 70 1e 68    	sbb    %bl,0x681e7000(%esi)
    9baa:	00 00                	add    %al,(%eax)
    9bac:	20 9e 00 70 20 68    	and    %bl,0x68207000(%esi)
    9bb2:	00 00                	add    %al,(%eax)
    9bb4:	28 9e 00 70 00 08    	sub    %bl,0x8007000(%esi)
    9bba:	00 00                	add    %al,(%eax)
    9bbc:	a0 9e 00 70 02       	mov    0x270009e,%al
    9bc1:	08 00                	or     %al,(%eax)
    9bc3:	00 a2 9e 00 70 04    	add    %ah,0x470009e(%edx)
    9bc9:	08 00                	or     %al,(%eax)
    9bcb:	00 a4 9e 00 70 06 08 	add    %ah,0x8067000(%esi,%ebx,4)
    9bd2:	00 00                	add    %al,(%eax)
    9bd4:	a6                   	cmpsb  %es:(%edi),%ds:(%esi)
    9bd5:	9e                   	sahf   
    9bd6:	00 70 08             	add    %dh,0x8(%eax)
    9bd9:	08 00                	or     %al,(%eax)
    9bdb:	00 a8 9e 00 70 0a    	add    %ch,0xa70009e(%eax)
    9be1:	08 00                	or     %al,(%eax)
    9be3:	00 aa 9e 00 70 0c    	add    %ch,0xc70009e(%edx)
    9be9:	08 00                	or     %al,(%eax)
    9beb:	00 ac 9e 00 70 0e 08 	add    %ch,0x80e7000(%esi,%ebx,4)
    9bf2:	00 00                	add    %al,(%eax)
    9bf4:	ae                   	scas   %es:(%edi),%al
    9bf5:	9e                   	sahf   
    9bf6:	00 70 00             	add    %dh,0x0(%eax)
    9bf9:	44                   	inc    %esp
    9bfa:	00 00                	add    %al,(%eax)
    9bfc:	c4 9e 00 70 02 44    	les    0x44027000(%esi),%ebx
    9c02:	00 00                	add    %al,(%eax)
    9c04:	c8 9e 00 70          	enter  $0x9e,$0x70
    9c08:	04 44                	add    $0x44,%al
    9c0a:	00 00                	add    %al,(%eax)
    9c0c:	cc                   	int3   
    9c0d:	9e                   	sahf   
    9c0e:	00 70 06             	add    %dh,0x6(%eax)
    9c11:	44                   	inc    %esp
    9c12:	00 00                	add    %al,(%eax)
    9c14:	d0 9e 00 70 08 44    	rcrb   0x44087000(%esi)
    9c1a:	00 00                	add    %al,(%eax)
    9c1c:	d4 9e                	aam    $0xffffff9e
    9c1e:	00 70 0a             	add    %dh,0xa(%eax)
    9c21:	44                   	inc    %esp
    9c22:	00 00                	add    %al,(%eax)
    9c24:	d8 9e 00 70 0c 44    	fcomps 0x440c7000(%esi)
    9c2a:	00 00                	add    %al,(%eax)
    9c2c:	dc 9e 00 70 0e 44    	fcompl 0x440e7000(%esi)
    9c32:	00 00                	add    %al,(%eax)
    9c34:	e0 9e                	loopne 9bd4 <results+0x34>
    9c36:	00 70 00             	add    %dh,0x0(%eax)
    9c39:	64 00 00             	add    %al,%fs:(%eax)
    9c3c:	e8 9e 00 70 02       	call   2709cdf <runtime_stack+0xdc5cdf>
    9c41:	64 00 00             	add    %al,%fs:(%eax)
    9c44:	f0 9e                	lock sahf 
    9c46:	00 70 04             	add    %dh,0x4(%eax)
    9c49:	64 00 00             	add    %al,%fs:(%eax)
    9c4c:	f8                   	clc    
    9c4d:	9e                   	sahf   
    9c4e:	00 70 06             	add    %dh,0x6(%eax)
    9c51:	64 00 00             	add    %al,%fs:(%eax)
    9c54:	00 9f 00 70 08 64    	add    %bl,0x64087000(%edi)
    9c5a:	00 00                	add    %al,(%eax)
    9c5c:	08 9f 00 70 0a 64    	or     %bl,0x640a7000(%edi)
    9c62:	00 00                	add    %al,(%eax)
    9c64:	10 9f 00 70 00 00    	adc    %bl,0x7000(%edi)

0000000000009c68 <control_VMX_pin_based>:
    9c68:	00 00                	add    %al,(%eax)
	...

0000000000009c6c <control_VMX_cpu_based>:
    9c6c:	00 00                	add    %al,(%eax)
	...

0000000000009c70 <control_exception_bitmap>:
    9c70:	00 00                	add    %al,(%eax)
	...

0000000000009c74 <control_pagefault_errorcode_mask>:
    9c74:	00 00                	add    %al,(%eax)
	...

0000000000009c78 <control_pagefault_errorcode_match>:
    9c78:	00 00                	add    %al,(%eax)
	...

0000000000009c7c <control_CR3_target_count>:
    9c7c:	00 00                	add    %al,(%eax)
	...

0000000000009c80 <control_VM_exit_controls>:
    9c80:	00 00                	add    %al,(%eax)
	...

0000000000009c84 <control_VM_exit_MSR_store_count>:
    9c84:	00 00                	add    %al,(%eax)
	...

0000000000009c88 <control_VM_exit_MSR_load_count>:
    9c88:	00 00                	add    %al,(%eax)
	...

0000000000009c8c <control_VM_entry_controls>:
    9c8c:	00 00                	add    %al,(%eax)
	...

0000000000009c90 <control_VM_entry_MSR_load_count>:
    9c90:	00 00                	add    %al,(%eax)
	...

0000000000009c94 <control_VM_entry_interruption_information>:
    9c94:	00 00                	add    %al,(%eax)
	...

0000000000009c98 <control_VM_entry_exception_errorcode>:
    9c98:	00 00                	add    %al,(%eax)
	...

0000000000009c9c <control_VM_entry_instruction_length>:
    9c9c:	00 00                	add    %al,(%eax)
	...

0000000000009ca0 <control_Task_PRivilege_Threshold>:
	...

0000000000009ca8 <control_CR0_mask>:
	...

0000000000009cb0 <control_CR4_mask>:
	...

0000000000009cb8 <control_CR0_shadow>:
	...

0000000000009cc0 <control_CR4_shadow>:
	...

0000000000009cc8 <control_CR3_target0>:
	...

0000000000009cd0 <control_CR3_target1>:
	...

0000000000009cd8 <control_CR3_target2>:
	...

0000000000009ce0 <control_CR3_target3>:
	...

0000000000009ce8 <control_IO_BitmapA_address_full>:
    9ce8:	00 00                	add    %al,(%eax)
	...

0000000000009cec <control_IO_BitmapA_address_high>:
    9cec:	00 00                	add    %al,(%eax)
	...

0000000000009cf0 <control_IO_BitmapB_address_full>:
    9cf0:	00 00                	add    %al,(%eax)
	...

0000000000009cf4 <control_IO_BitmapB_address_high>:
    9cf4:	00 00                	add    %al,(%eax)
	...

0000000000009cf8 <control_MSR_Bitmaps_address_full>:
    9cf8:	00 00                	add    %al,(%eax)
	...

0000000000009cfc <control_MSR_Bitmaps_address_high>:
    9cfc:	00 00                	add    %al,(%eax)
	...

0000000000009d00 <control_VM_exit_MSR_store_address_full>:
    9d00:	00 00                	add    %al,(%eax)
	...

0000000000009d04 <control_VM_exit_MSR_store_address_high>:
    9d04:	00 00                	add    %al,(%eax)
	...

0000000000009d08 <control_VM_exit_MSR_load_address_full>:
    9d08:	00 00                	add    %al,(%eax)
	...

0000000000009d0c <control_VM_exit_MSR_load_address_high>:
    9d0c:	00 00                	add    %al,(%eax)
	...

0000000000009d10 <control_VM_entry_MSR_load_address_full>:
    9d10:	00 00                	add    %al,(%eax)
	...

0000000000009d14 <control_VM_entry_MSR_load_address_high>:
    9d14:	00 00                	add    %al,(%eax)
	...

0000000000009d18 <control_Executive_VMCS_pointer_full>:
    9d18:	00 00                	add    %al,(%eax)
	...

0000000000009d1c <control_Executive_VMCS_pointer_high>:
    9d1c:	00 00                	add    %al,(%eax)
	...

0000000000009d20 <control_TSC_offset_full>:
    9d20:	00 00                	add    %al,(%eax)
	...

0000000000009d24 <control_TSC_offset_high>:
    9d24:	00 00                	add    %al,(%eax)
	...

0000000000009d28 <control_virtual_APIC_page_address_full>:
    9d28:	00 00                	add    %al,(%eax)
	...

0000000000009d2c <control_virtual_APIC_page_address_high>:
    9d2c:	00 00                	add    %al,(%eax)
	...

0000000000009d30 <host_CR0>:
	...

0000000000009d38 <host_CR3>:
	...

0000000000009d40 <host_CR4>:
	...

0000000000009d48 <host_FS_base>:
	...

0000000000009d50 <host_GS_base>:
	...

0000000000009d58 <host_TR_base>:
	...

0000000000009d60 <host_GDTR_base>:
	...

0000000000009d68 <host_IDTR_base>:
	...

0000000000009d70 <host_SYSENTER_ESP>:
	...

0000000000009d78 <host_SYSENTER_EIP>:
	...

0000000000009d80 <host_RSP>:
	...

0000000000009d88 <host_RIP>:
	...

0000000000009d90 <host_SYSENTER_CS>:
    9d90:	00 00                	add    %al,(%eax)
	...

0000000000009d94 <host_ES_selector>:
	...

0000000000009d96 <host_CS_selector>:
	...

0000000000009d98 <host_SS_selector>:
	...

0000000000009d9a <host_DS_selector>:
	...

0000000000009d9c <host_FS_selector>:
	...

0000000000009d9e <host_GS_selector>:
	...

0000000000009da0 <host_TR_selector>:
	...

0000000000009da8 <guest_CR0>:
	...

0000000000009db0 <guest_CR3>:
	...

0000000000009db8 <guest_CR4>:
	...

0000000000009dc0 <guest_ES_base>:
	...

0000000000009dc8 <guest_CS_base>:
	...

0000000000009dd0 <guest_SS_base>:
	...

0000000000009dd8 <guest_DS_base>:
	...

0000000000009de0 <guest_FS_base>:
	...

0000000000009de8 <guest_GS_base>:
	...

0000000000009df0 <guest_LDTR_base>:
	...

0000000000009df8 <guest_TR_base>:
	...

0000000000009e00 <guest_GDTR_base>:
	...

0000000000009e08 <guest_IDTR_base>:
	...

0000000000009e10 <guest_DR7>:
	...

0000000000009e18 <guest_RSP>:
	...

0000000000009e20 <guest_RIP>:
	...

0000000000009e28 <guest_RFLAGS>:
	...

0000000000009e30 <guest_pending_debug_x>:
	...

0000000000009e38 <guest_SYSENTER_ESP>:
	...

0000000000009e40 <guest_SYSENTER_EIP>:
	...

0000000000009e48 <guest_ES_limit>:
    9e48:	00 00                	add    %al,(%eax)
	...

0000000000009e4c <guest_CS_limit>:
    9e4c:	00 00                	add    %al,(%eax)
	...

0000000000009e50 <guest_SS_limit>:
    9e50:	00 00                	add    %al,(%eax)
	...

0000000000009e54 <guest_DS_limit>:
    9e54:	00 00                	add    %al,(%eax)
	...

0000000000009e58 <guest_FS_limit>:
    9e58:	00 00                	add    %al,(%eax)
	...

0000000000009e5c <guest_GS_limit>:
    9e5c:	00 00                	add    %al,(%eax)
	...

0000000000009e60 <guest_LDTR_limit>:
    9e60:	00 00                	add    %al,(%eax)
	...

0000000000009e64 <guest_TR_limit>:
    9e64:	00 00                	add    %al,(%eax)
	...

0000000000009e68 <guest_GDTR_limit>:
    9e68:	00 00                	add    %al,(%eax)
	...

0000000000009e6c <guest_IDTR_limit>:
    9e6c:	00 00                	add    %al,(%eax)
	...

0000000000009e70 <guest_ES_access_rights>:
    9e70:	00 00                	add    %al,(%eax)
	...

0000000000009e74 <guest_CS_access_rights>:
    9e74:	00 00                	add    %al,(%eax)
	...

0000000000009e78 <guest_SS_access_rights>:
    9e78:	00 00                	add    %al,(%eax)
	...

0000000000009e7c <guest_DS_access_rights>:
    9e7c:	00 00                	add    %al,(%eax)
	...

0000000000009e80 <guest_FS_access_rights>:
    9e80:	00 00                	add    %al,(%eax)
	...

0000000000009e84 <guest_GS_access_rights>:
    9e84:	00 00                	add    %al,(%eax)
	...

0000000000009e88 <guest_LDTR_access_rights>:
    9e88:	00 00                	add    %al,(%eax)
	...

0000000000009e8c <guest_TR_access_rights>:
    9e8c:	00 00                	add    %al,(%eax)
	...

0000000000009e90 <guest_interruptibility>:
    9e90:	00 00                	add    %al,(%eax)
	...

0000000000009e94 <guest_activity_state>:
    9e94:	00 00                	add    %al,(%eax)
	...

0000000000009e98 <guest_SMBASE>:
    9e98:	00 00                	add    %al,(%eax)
	...

0000000000009e9c <guest_SYSENTER_CS>:
    9e9c:	00 00                	add    %al,(%eax)
	...

0000000000009ea0 <guest_ES_selector>:
	...

0000000000009ea2 <guest_CS_selector>:
	...

0000000000009ea4 <guest_SS_selector>:
	...

0000000000009ea6 <guest_DS_selector>:
	...

0000000000009ea8 <guest_FS_selector>:
	...

0000000000009eaa <guest_GS_selector>:
	...

0000000000009eac <guest_LDTR_selector>:
	...

0000000000009eae <guest_TR_selector>:
	...

0000000000009eb0 <guest_VMCS_link_pointer_full>:
    9eb0:	00 00                	add    %al,(%eax)
	...

0000000000009eb4 <guest_VMCS_link_pointer_high>:
    9eb4:	00 00                	add    %al,(%eax)
	...

0000000000009eb8 <guest_IA32_DEBUGCTL_full>:
    9eb8:	00 00                	add    %al,(%eax)
	...

0000000000009ebc <guest_IA32_DEBUGCTL_high>:
    9ebc:	00 00                	add    %al,(%eax)
	...

0000000000009ec0 <guest_CR2>:
    9ec0:	00 00                	add    %al,(%eax)
	...

0000000000009ec4 <info_vminstr_error>:
    9ec4:	00 00                	add    %al,(%eax)
	...

0000000000009ec8 <info_vmexit_reason>:
    9ec8:	00 00                	add    %al,(%eax)
	...

0000000000009ecc <info_vmexit_interrupt_information>:
    9ecc:	00 00                	add    %al,(%eax)
	...

0000000000009ed0 <info_vmexit_interrupt_error_code>:
    9ed0:	00 00                	add    %al,(%eax)
	...

0000000000009ed4 <info_IDT_vectoring_information>:
    9ed4:	00 00                	add    %al,(%eax)
	...

0000000000009ed8 <info_IDT_vectoring_error_code>:
    9ed8:	00 00                	add    %al,(%eax)
	...

0000000000009edc <info_vmexit_instruction_length>:
    9edc:	00 00                	add    %al,(%eax)
	...

0000000000009ee0 <info_vmx_instruction_information>:
	...

0000000000009ee8 <info_exit_qualification>:
	...

0000000000009ef0 <info_IO_RCX>:
	...

0000000000009ef8 <info_IO_RSI>:
	...

0000000000009f00 <info_IO_RDI>:
	...

0000000000009f08 <info_IO_RIP>:
	...

0000000000009f10 <info_guest_linear_address>:
	...

0000000000009f18 <efcr>:
	...

0000000000009f20 <efer>:
	...

0000000000009f30 <cpu_oem>:
	...

0000000000009f40 <cpu_features>:
	...

0000000000009f50 <msr0x480>:
	...

0000000000009fb0 <vmxon_region>:
	...

0000000000009fb8 <guest_region>:
	...

0000000000009fc0 <pgdir_region>:
	...

0000000000009fc8 <pgtbl_region>:
	...

0000000000009fd0 <iomap_region>:
	...

0000000000009fd8 <g_IDT_region>:
	...

0000000000009fe0 <g_GDT_region>:
	...

0000000000009fe8 <g_LDT_region>:
	...

0000000000009ff0 <g_TSS_region>:
	...

0000000000009ff8 <g_SS0_region>:
	...

000000000000a000 <g_ISR_region>:
	...

000000000000a008 <h_MSR_region>:
	...

000000000000a010 <guest_RAX>:
    a010:	00 00                	add    %al,(%eax)
	...

000000000000a014 <guest_RBX>:
    a014:	00 00                	add    %al,(%eax)
	...

000000000000a018 <guest_RCX>:
    a018:	00 00                	add    %al,(%eax)
	...

000000000000a01c <guest_RDX>:
    a01c:	00 00                	add    %al,(%eax)
	...

000000000000a020 <guest_RBP>:
    a020:	00 00                	add    %al,(%eax)
	...

000000000000a024 <guest_RSI>:
    a024:	00 00                	add    %al,(%eax)
	...

000000000000a028 <guest_RDI>:
    a028:	00 00                	add    %al,(%eax)
	...

000000000000a02c <retval>:
    a02c:	00 00                	add    %al,(%eax)
	...

000000000000a030 <msr_index>:
    a030:	00 00                	add    %al,(%eax)
	...

000000000000a034 <msr_value>:
    a034:	00 00                	add    %al,(%eax)
	...

000000000000a038 <next_host_MSR_entry>:
	...

000000000000a040 <_ctype>:
    a040:	08 08                	or     %cl,(%eax)
    a042:	08 08                	or     %cl,(%eax)
    a044:	08 08                	or     %cl,(%eax)
    a046:	08 08                	or     %cl,(%eax)
    a048:	08 28                	or     %ch,(%eax)
    a04a:	28 28                	sub    %ch,(%eax)
    a04c:	28 28                	sub    %ch,(%eax)
    a04e:	08 08                	or     %cl,(%eax)
    a050:	08 08                	or     %cl,(%eax)
    a052:	08 08                	or     %cl,(%eax)
    a054:	08 08                	or     %cl,(%eax)
    a056:	08 08                	or     %cl,(%eax)
    a058:	08 08                	or     %cl,(%eax)
    a05a:	08 08                	or     %cl,(%eax)
    a05c:	08 08                	or     %cl,(%eax)
    a05e:	08 08                	or     %cl,(%eax)
    a060:	a0 10 10 10 10       	mov    0x10101010,%al
    a065:	10 10                	adc    %dl,(%eax)
    a067:	10 10                	adc    %dl,(%eax)
    a069:	10 10                	adc    %dl,(%eax)
    a06b:	10 10                	adc    %dl,(%eax)
    a06d:	10 10                	adc    %dl,(%eax)
    a06f:	10 04 04             	adc    %al,(%esp,%eax,1)
    a072:	04 04                	add    $0x4,%al
    a074:	04 04                	add    $0x4,%al
    a076:	04 04                	add    $0x4,%al
    a078:	04 04                	add    $0x4,%al
    a07a:	10 10                	adc    %dl,(%eax)
    a07c:	10 10                	adc    %dl,(%eax)
    a07e:	10 10                	adc    %dl,(%eax)
    a080:	10 41 41             	adc    %al,0x41(%ecx)
    a083:	41                   	inc    %ecx
    a084:	41                   	inc    %ecx
    a085:	41                   	inc    %ecx
    a086:	41                   	inc    %ecx
    a087:	01 01                	add    %eax,(%ecx)
    a089:	01 01                	add    %eax,(%ecx)
    a08b:	01 01                	add    %eax,(%ecx)
    a08d:	01 01                	add    %eax,(%ecx)
    a08f:	01 01                	add    %eax,(%ecx)
    a091:	01 01                	add    %eax,(%ecx)
    a093:	01 01                	add    %eax,(%ecx)
    a095:	01 01                	add    %eax,(%ecx)
    a097:	01 01                	add    %eax,(%ecx)
    a099:	01 01                	add    %eax,(%ecx)
    a09b:	10 10                	adc    %dl,(%eax)
    a09d:	10 10                	adc    %dl,(%eax)
    a09f:	10 10                	adc    %dl,(%eax)
    a0a1:	42                   	inc    %edx
    a0a2:	42                   	inc    %edx
    a0a3:	42                   	inc    %edx
    a0a4:	42                   	inc    %edx
    a0a5:	42                   	inc    %edx
    a0a6:	42                   	inc    %edx
    a0a7:	02 02                	add    (%edx),%al
    a0a9:	02 02                	add    (%edx),%al
    a0ab:	02 02                	add    (%edx),%al
    a0ad:	02 02                	add    (%edx),%al
    a0af:	02 02                	add    (%edx),%al
    a0b1:	02 02                	add    (%edx),%al
    a0b3:	02 02                	add    (%edx),%al
    a0b5:	02 02                	add    (%edx),%al
    a0b7:	02 02                	add    (%edx),%al
    a0b9:	02 02                	add    (%edx),%al
    a0bb:	10 10                	adc    %dl,(%eax)
    a0bd:	10 10                	adc    %dl,(%eax)
    a0bf:	08 00                	or     %al,(%eax)
	...
    a0dd:	00 00                	add    %al,(%eax)
    a0df:	00 a0 10 10 10 10    	add    %ah,0x10101010(%eax)
    a0e5:	10 10                	adc    %dl,(%eax)
    a0e7:	10 10                	adc    %dl,(%eax)
    a0e9:	10 10                	adc    %dl,(%eax)
    a0eb:	10 10                	adc    %dl,(%eax)
    a0ed:	10 10                	adc    %dl,(%eax)
    a0ef:	10 10                	adc    %dl,(%eax)
    a0f1:	10 10                	adc    %dl,(%eax)
    a0f3:	10 10                	adc    %dl,(%eax)
    a0f5:	10 10                	adc    %dl,(%eax)
    a0f7:	10 10                	adc    %dl,(%eax)
    a0f9:	10 10                	adc    %dl,(%eax)
    a0fb:	10 10                	adc    %dl,(%eax)
    a0fd:	10 10                	adc    %dl,(%eax)
    a0ff:	10 01                	adc    %al,(%ecx)
    a101:	01 01                	add    %eax,(%ecx)
    a103:	01 01                	add    %eax,(%ecx)
    a105:	01 01                	add    %eax,(%ecx)
    a107:	01 01                	add    %eax,(%ecx)
    a109:	01 01                	add    %eax,(%ecx)
    a10b:	01 01                	add    %eax,(%ecx)
    a10d:	01 01                	add    %eax,(%ecx)
    a10f:	01 01                	add    %eax,(%ecx)
    a111:	01 01                	add    %eax,(%ecx)
    a113:	01 01                	add    %eax,(%ecx)
    a115:	01 01                	add    %eax,(%ecx)
    a117:	10 01                	adc    %al,(%ecx)
    a119:	01 01                	add    %eax,(%ecx)
    a11b:	01 01                	add    %eax,(%ecx)
    a11d:	01 01                	add    %eax,(%ecx)
    a11f:	02 02                	add    (%edx),%al
    a121:	02 02                	add    (%edx),%al
    a123:	02 02                	add    (%edx),%al
    a125:	02 02                	add    (%edx),%al
    a127:	02 02                	add    (%edx),%al
    a129:	02 02                	add    (%edx),%al
    a12b:	02 02                	add    (%edx),%al
    a12d:	02 02                	add    (%edx),%al
    a12f:	02 02                	add    (%edx),%al
    a131:	02 02                	add    (%edx),%al
    a133:	02 02                	add    (%edx),%al
    a135:	02 02                	add    (%edx),%al
    a137:	10 02                	adc    %al,(%edx)
    a139:	02 02                	add    (%edx),%al
    a13b:	02 02                	add    (%edx),%al
    a13d:	02 02                	add    (%edx),%al
    a13f:	02 00                	add    (%eax),%al

000000000000a140 <printk_prefix>:
	...

000000000000a150 <_p_buf>:
	...

000000000000e150 <uart_config>:
    e150:	00 c2                	add    %al,%dl
    e152:	01 00                	add    %eax,(%eax)
    e154:	08 00                	or     %al,(%eax)
    e156:	01 00                	add    %eax,(%eax)
	...
    e160:	90                   	nop    
    e161:	90                   	nop    
    e162:	90                   	nop    
    e163:	90                   	nop    
    e164:	90                   	nop    
    e165:	90                   	nop    
    e166:	90                   	nop    
    e167:	90                   	nop    
    e168:	90                   	nop    
    e169:	90                   	nop    
    e16a:	90                   	nop    
    e16b:	90                   	nop    
    e16c:	90                   	nop    
    e16d:	90                   	nop    
    e16e:	90                   	nop    
    e16f:	90                   	nop    
    e170:	90                   	nop    
    e171:	90                   	nop    
    e172:	90                   	nop    
    e173:	90                   	nop    
    e174:	90                   	nop    
    e175:	90                   	nop    
    e176:	90                   	nop    
    e177:	90                   	nop    
    e178:	90                   	nop    
    e179:	90                   	nop    
    e17a:	90                   	nop    
    e17b:	90                   	nop    
    e17c:	90                   	nop    
    e17d:	90                   	nop    
    e17e:	90                   	nop    
    e17f:	90                   	nop    
    e180:	90                   	nop    
    e181:	90                   	nop    
    e182:	90                   	nop    
    e183:	90                   	nop    
    e184:	90                   	nop    
    e185:	90                   	nop    
    e186:	90                   	nop    
    e187:	90                   	nop    
    e188:	90                   	nop    
    e189:	90                   	nop    
    e18a:	90                   	nop    
    e18b:	90                   	nop    
    e18c:	90                   	nop    
    e18d:	90                   	nop    
    e18e:	90                   	nop    
    e18f:	90                   	nop    
    e190:	90                   	nop    
    e191:	90                   	nop    
    e192:	90                   	nop    
    e193:	90                   	nop    
    e194:	90                   	nop    
    e195:	90                   	nop    
    e196:	90                   	nop    
    e197:	90                   	nop    
    e198:	90                   	nop    
    e199:	90                   	nop    
    e19a:	90                   	nop    
    e19b:	90                   	nop    
    e19c:	90                   	nop    
    e19d:	90                   	nop    
    e19e:	90                   	nop    
    e19f:	90                   	nop    
    e1a0:	90                   	nop    
    e1a1:	90                   	nop    
    e1a2:	90                   	nop    
    e1a3:	90                   	nop    
    e1a4:	90                   	nop    
    e1a5:	90                   	nop    
    e1a6:	90                   	nop    
    e1a7:	90                   	nop    
    e1a8:	90                   	nop    
    e1a9:	90                   	nop    
    e1aa:	90                   	nop    
    e1ab:	90                   	nop    
    e1ac:	90                   	nop    
    e1ad:	90                   	nop    
    e1ae:	90                   	nop    
    e1af:	90                   	nop    
    e1b0:	90                   	nop    
    e1b1:	90                   	nop    
    e1b2:	90                   	nop    
    e1b3:	90                   	nop    
    e1b4:	90                   	nop    
    e1b5:	90                   	nop    
    e1b6:	90                   	nop    
    e1b7:	90                   	nop    
    e1b8:	90                   	nop    
    e1b9:	90                   	nop    
    e1ba:	90                   	nop    
    e1bb:	90                   	nop    
    e1bc:	90                   	nop    
    e1bd:	90                   	nop    
    e1be:	90                   	nop    
    e1bf:	90                   	nop    
    e1c0:	90                   	nop    
    e1c1:	90                   	nop    
    e1c2:	90                   	nop    
    e1c3:	90                   	nop    
    e1c4:	90                   	nop    
    e1c5:	90                   	nop    
    e1c6:	90                   	nop    
    e1c7:	90                   	nop    
    e1c8:	90                   	nop    
    e1c9:	90                   	nop    
    e1ca:	90                   	nop    
    e1cb:	90                   	nop    
    e1cc:	90                   	nop    
    e1cd:	90                   	nop    
    e1ce:	90                   	nop    
    e1cf:	90                   	nop    
    e1d0:	90                   	nop    
    e1d1:	90                   	nop    
    e1d2:	90                   	nop    
    e1d3:	90                   	nop    
    e1d4:	90                   	nop    
    e1d5:	90                   	nop    
    e1d6:	90                   	nop    
    e1d7:	90                   	nop    
    e1d8:	90                   	nop    
    e1d9:	90                   	nop    
    e1da:	90                   	nop    
    e1db:	90                   	nop    
    e1dc:	90                   	nop    
    e1dd:	90                   	nop    
    e1de:	90                   	nop    
    e1df:	90                   	nop    
    e1e0:	90                   	nop    
    e1e1:	90                   	nop    
    e1e2:	90                   	nop    
    e1e3:	90                   	nop    
    e1e4:	90                   	nop    
    e1e5:	90                   	nop    
    e1e6:	90                   	nop    
    e1e7:	90                   	nop    
    e1e8:	90                   	nop    
    e1e9:	90                   	nop    
    e1ea:	90                   	nop    
    e1eb:	90                   	nop    
    e1ec:	90                   	nop    
    e1ed:	90                   	nop    
    e1ee:	90                   	nop    
    e1ef:	90                   	nop    
    e1f0:	90                   	nop    
    e1f1:	90                   	nop    
    e1f2:	90                   	nop    
    e1f3:	90                   	nop    
    e1f4:	90                   	nop    
    e1f5:	90                   	nop    
    e1f6:	90                   	nop    
    e1f7:	90                   	nop    
    e1f8:	90                   	nop    
    e1f9:	90                   	nop    
    e1fa:	90                   	nop    
    e1fb:	90                   	nop    
    e1fc:	90                   	nop    
    e1fd:	90                   	nop    
    e1fe:	90                   	nop    
    e1ff:	90                   	nop    
    e200:	90                   	nop    
    e201:	90                   	nop    
    e202:	90                   	nop    
    e203:	90                   	nop    
    e204:	90                   	nop    
    e205:	90                   	nop    
    e206:	90                   	nop    
    e207:	90                   	nop    
    e208:	90                   	nop    
    e209:	90                   	nop    
    e20a:	90                   	nop    
    e20b:	90                   	nop    
    e20c:	90                   	nop    
    e20d:	90                   	nop    
    e20e:	90                   	nop    
    e20f:	90                   	nop    
    e210:	90                   	nop    
    e211:	90                   	nop    
    e212:	90                   	nop    
    e213:	90                   	nop    
    e214:	90                   	nop    
    e215:	90                   	nop    
    e216:	90                   	nop    
    e217:	90                   	nop    
    e218:	90                   	nop    
    e219:	90                   	nop    
    e21a:	90                   	nop    
    e21b:	90                   	nop    
    e21c:	90                   	nop    
    e21d:	90                   	nop    
    e21e:	90                   	nop    
    e21f:	90                   	nop    
    e220:	90                   	nop    
    e221:	90                   	nop    
    e222:	90                   	nop    
    e223:	90                   	nop    
    e224:	90                   	nop    
    e225:	90                   	nop    
    e226:	90                   	nop    
    e227:	90                   	nop    
    e228:	90                   	nop    
    e229:	90                   	nop    
    e22a:	90                   	nop    
    e22b:	90                   	nop    
    e22c:	90                   	nop    
    e22d:	90                   	nop    
    e22e:	90                   	nop    
    e22f:	90                   	nop    
    e230:	90                   	nop    
    e231:	90                   	nop    
    e232:	90                   	nop    
    e233:	90                   	nop    
    e234:	90                   	nop    
    e235:	90                   	nop    
    e236:	90                   	nop    
    e237:	90                   	nop    
    e238:	90                   	nop    
    e239:	90                   	nop    
    e23a:	90                   	nop    
    e23b:	90                   	nop    
    e23c:	90                   	nop    
    e23d:	90                   	nop    
    e23e:	90                   	nop    
    e23f:	90                   	nop    
    e240:	90                   	nop    
    e241:	90                   	nop    
    e242:	90                   	nop    
    e243:	90                   	nop    
    e244:	90                   	nop    
    e245:	90                   	nop    
    e246:	90                   	nop    
    e247:	90                   	nop    
    e248:	90                   	nop    
    e249:	90                   	nop    
    e24a:	90                   	nop    
    e24b:	90                   	nop    
    e24c:	90                   	nop    
    e24d:	90                   	nop    
    e24e:	90                   	nop    
    e24f:	90                   	nop    
    e250:	90                   	nop    
    e251:	90                   	nop    
    e252:	90                   	nop    
    e253:	90                   	nop    
    e254:	90                   	nop    
    e255:	90                   	nop    
    e256:	90                   	nop    
    e257:	90                   	nop    
    e258:	90                   	nop    
    e259:	90                   	nop    
    e25a:	90                   	nop    
    e25b:	90                   	nop    
    e25c:	90                   	nop    
    e25d:	90                   	nop    
    e25e:	90                   	nop    
    e25f:	90                   	nop    
    e260:	90                   	nop    
    e261:	90                   	nop    
    e262:	90                   	nop    
    e263:	90                   	nop    
    e264:	90                   	nop    
    e265:	90                   	nop    
    e266:	90                   	nop    
    e267:	90                   	nop    
    e268:	90                   	nop    
    e269:	90                   	nop    
    e26a:	90                   	nop    
    e26b:	90                   	nop    
    e26c:	90                   	nop    
    e26d:	90                   	nop    
    e26e:	90                   	nop    
    e26f:	90                   	nop    
    e270:	90                   	nop    
    e271:	90                   	nop    
    e272:	90                   	nop    
    e273:	90                   	nop    
    e274:	90                   	nop    
    e275:	90                   	nop    
    e276:	90                   	nop    
    e277:	90                   	nop    
    e278:	90                   	nop    
    e279:	90                   	nop    
    e27a:	90                   	nop    
    e27b:	90                   	nop    
    e27c:	90                   	nop    
    e27d:	90                   	nop    
    e27e:	90                   	nop    
    e27f:	90                   	nop    
    e280:	90                   	nop    
    e281:	90                   	nop    
    e282:	90                   	nop    
    e283:	90                   	nop    
    e284:	90                   	nop    
    e285:	90                   	nop    
    e286:	90                   	nop    
    e287:	90                   	nop    
    e288:	90                   	nop    
    e289:	90                   	nop    
    e28a:	90                   	nop    
    e28b:	90                   	nop    
    e28c:	90                   	nop    
    e28d:	90                   	nop    
    e28e:	90                   	nop    
    e28f:	90                   	nop    
    e290:	90                   	nop    
    e291:	90                   	nop    
    e292:	90                   	nop    
    e293:	90                   	nop    
    e294:	90                   	nop    
    e295:	90                   	nop    
    e296:	90                   	nop    
    e297:	90                   	nop    
    e298:	90                   	nop    
    e299:	90                   	nop    
    e29a:	90                   	nop    
    e29b:	90                   	nop    
    e29c:	90                   	nop    
    e29d:	90                   	nop    
    e29e:	90                   	nop    
    e29f:	90                   	nop    
    e2a0:	90                   	nop    
    e2a1:	90                   	nop    
    e2a2:	90                   	nop    
    e2a3:	90                   	nop    
    e2a4:	90                   	nop    
    e2a5:	90                   	nop    
    e2a6:	90                   	nop    
    e2a7:	90                   	nop    
    e2a8:	90                   	nop    
    e2a9:	90                   	nop    
    e2aa:	90                   	nop    
    e2ab:	90                   	nop    
    e2ac:	90                   	nop    
    e2ad:	90                   	nop    
    e2ae:	90                   	nop    
    e2af:	90                   	nop    
    e2b0:	90                   	nop    
    e2b1:	90                   	nop    
    e2b2:	90                   	nop    
    e2b3:	90                   	nop    
    e2b4:	90                   	nop    
    e2b5:	90                   	nop    
    e2b6:	90                   	nop    
    e2b7:	90                   	nop    
    e2b8:	90                   	nop    
    e2b9:	90                   	nop    
    e2ba:	90                   	nop    
    e2bb:	90                   	nop    
    e2bc:	90                   	nop    
    e2bd:	90                   	nop    
    e2be:	90                   	nop    
    e2bf:	90                   	nop    
    e2c0:	90                   	nop    
    e2c1:	90                   	nop    
    e2c2:	90                   	nop    
    e2c3:	90                   	nop    
    e2c4:	90                   	nop    
    e2c5:	90                   	nop    
    e2c6:	90                   	nop    
    e2c7:	90                   	nop    
    e2c8:	90                   	nop    
    e2c9:	90                   	nop    
    e2ca:	90                   	nop    
    e2cb:	90                   	nop    
    e2cc:	90                   	nop    
    e2cd:	90                   	nop    
    e2ce:	90                   	nop    
    e2cf:	90                   	nop    
    e2d0:	90                   	nop    
    e2d1:	90                   	nop    
    e2d2:	90                   	nop    
    e2d3:	90                   	nop    
    e2d4:	90                   	nop    
    e2d5:	90                   	nop    
    e2d6:	90                   	nop    
    e2d7:	90                   	nop    
    e2d8:	90                   	nop    
    e2d9:	90                   	nop    
    e2da:	90                   	nop    
    e2db:	90                   	nop    
    e2dc:	90                   	nop    
    e2dd:	90                   	nop    
    e2de:	90                   	nop    
    e2df:	90                   	nop    
    e2e0:	90                   	nop    
    e2e1:	90                   	nop    
    e2e2:	90                   	nop    
    e2e3:	90                   	nop    
    e2e4:	90                   	nop    
    e2e5:	90                   	nop    
    e2e6:	90                   	nop    
    e2e7:	90                   	nop    
    e2e8:	90                   	nop    
    e2e9:	90                   	nop    
    e2ea:	90                   	nop    
    e2eb:	90                   	nop    
    e2ec:	90                   	nop    
    e2ed:	90                   	nop    
    e2ee:	90                   	nop    
    e2ef:	90                   	nop    
    e2f0:	90                   	nop    
    e2f1:	90                   	nop    
    e2f2:	90                   	nop    
    e2f3:	90                   	nop    
    e2f4:	90                   	nop    
    e2f5:	90                   	nop    
    e2f6:	90                   	nop    
    e2f7:	90                   	nop    
    e2f8:	90                   	nop    
    e2f9:	90                   	nop    
    e2fa:	90                   	nop    
    e2fb:	90                   	nop    
    e2fc:	90                   	nop    
    e2fd:	90                   	nop    
    e2fe:	90                   	nop    
    e2ff:	90                   	nop    
    e300:	90                   	nop    
    e301:	90                   	nop    
    e302:	90                   	nop    
    e303:	90                   	nop    
    e304:	90                   	nop    
    e305:	90                   	nop    
    e306:	90                   	nop    
    e307:	90                   	nop    
    e308:	90                   	nop    
    e309:	90                   	nop    
    e30a:	90                   	nop    
    e30b:	90                   	nop    
    e30c:	90                   	nop    
    e30d:	90                   	nop    
    e30e:	90                   	nop    
    e30f:	90                   	nop    
    e310:	90                   	nop    
    e311:	90                   	nop    
    e312:	90                   	nop    
    e313:	90                   	nop    
    e314:	90                   	nop    
    e315:	90                   	nop    
    e316:	90                   	nop    
    e317:	90                   	nop    
    e318:	90                   	nop    
    e319:	90                   	nop    
    e31a:	90                   	nop    
    e31b:	90                   	nop    
    e31c:	90                   	nop    
    e31d:	90                   	nop    
    e31e:	90                   	nop    
    e31f:	90                   	nop    
    e320:	90                   	nop    
    e321:	90                   	nop    
    e322:	90                   	nop    
    e323:	90                   	nop    
    e324:	90                   	nop    
    e325:	90                   	nop    
    e326:	90                   	nop    
    e327:	90                   	nop    
    e328:	90                   	nop    
    e329:	90                   	nop    
    e32a:	90                   	nop    
    e32b:	90                   	nop    
    e32c:	90                   	nop    
    e32d:	90                   	nop    
    e32e:	90                   	nop    
    e32f:	90                   	nop    
    e330:	90                   	nop    
    e331:	90                   	nop    
    e332:	90                   	nop    
    e333:	90                   	nop    
    e334:	90                   	nop    
    e335:	90                   	nop    
    e336:	90                   	nop    
    e337:	90                   	nop    
    e338:	90                   	nop    
    e339:	90                   	nop    
    e33a:	90                   	nop    
    e33b:	90                   	nop    
    e33c:	90                   	nop    
    e33d:	90                   	nop    
    e33e:	90                   	nop    
    e33f:	90                   	nop    
    e340:	90                   	nop    
    e341:	90                   	nop    
    e342:	90                   	nop    
    e343:	90                   	nop    
    e344:	90                   	nop    
    e345:	90                   	nop    
    e346:	90                   	nop    
    e347:	90                   	nop    
    e348:	90                   	nop    
    e349:	90                   	nop    
    e34a:	90                   	nop    
    e34b:	90                   	nop    
    e34c:	90                   	nop    
    e34d:	90                   	nop    
    e34e:	90                   	nop    
    e34f:	90                   	nop    
    e350:	90                   	nop    
    e351:	90                   	nop    
    e352:	90                   	nop    
    e353:	90                   	nop    
    e354:	90                   	nop    
    e355:	90                   	nop    
    e356:	90                   	nop    
    e357:	90                   	nop    
    e358:	90                   	nop    
    e359:	90                   	nop    
    e35a:	90                   	nop    
    e35b:	90                   	nop    
    e35c:	90                   	nop    
    e35d:	90                   	nop    
    e35e:	90                   	nop    
    e35f:	90                   	nop    
    e360:	90                   	nop    
    e361:	90                   	nop    
    e362:	90                   	nop    
    e363:	90                   	nop    
    e364:	90                   	nop    
    e365:	90                   	nop    
    e366:	90                   	nop    
    e367:	90                   	nop    
    e368:	90                   	nop    
    e369:	90                   	nop    
    e36a:	90                   	nop    
    e36b:	90                   	nop    
    e36c:	90                   	nop    
    e36d:	90                   	nop    
    e36e:	90                   	nop    
    e36f:	90                   	nop    
    e370:	90                   	nop    
    e371:	90                   	nop    
    e372:	90                   	nop    
    e373:	90                   	nop    
    e374:	90                   	nop    
    e375:	90                   	nop    
    e376:	90                   	nop    
    e377:	90                   	nop    
    e378:	90                   	nop    
    e379:	90                   	nop    
    e37a:	90                   	nop    
    e37b:	90                   	nop    
    e37c:	90                   	nop    
    e37d:	90                   	nop    
    e37e:	90                   	nop    
    e37f:	90                   	nop    
    e380:	90                   	nop    
    e381:	90                   	nop    
    e382:	90                   	nop    
    e383:	90                   	nop    
    e384:	90                   	nop    
    e385:	90                   	nop    
    e386:	90                   	nop    
    e387:	90                   	nop    
    e388:	90                   	nop    
    e389:	90                   	nop    
    e38a:	90                   	nop    
    e38b:	90                   	nop    
    e38c:	90                   	nop    
    e38d:	90                   	nop    
    e38e:	90                   	nop    
    e38f:	90                   	nop    
    e390:	90                   	nop    
    e391:	90                   	nop    
    e392:	90                   	nop    
    e393:	90                   	nop    
    e394:	90                   	nop    
    e395:	90                   	nop    
    e396:	90                   	nop    
    e397:	90                   	nop    
    e398:	90                   	nop    
    e399:	90                   	nop    
    e39a:	90                   	nop    
    e39b:	90                   	nop    
    e39c:	90                   	nop    
    e39d:	90                   	nop    
    e39e:	90                   	nop    
    e39f:	90                   	nop    
    e3a0:	90                   	nop    
    e3a1:	90                   	nop    
    e3a2:	90                   	nop    
    e3a3:	90                   	nop    
    e3a4:	90                   	nop    
    e3a5:	90                   	nop    
    e3a6:	90                   	nop    
    e3a7:	90                   	nop    
    e3a8:	90                   	nop    
    e3a9:	90                   	nop    
    e3aa:	90                   	nop    
    e3ab:	90                   	nop    
    e3ac:	90                   	nop    
    e3ad:	90                   	nop    
    e3ae:	90                   	nop    
    e3af:	90                   	nop    
    e3b0:	90                   	nop    
    e3b1:	90                   	nop    
    e3b2:	90                   	nop    
    e3b3:	90                   	nop    
    e3b4:	90                   	nop    
    e3b5:	90                   	nop    
    e3b6:	90                   	nop    
    e3b7:	90                   	nop    
    e3b8:	90                   	nop    
    e3b9:	90                   	nop    
    e3ba:	90                   	nop    
    e3bb:	90                   	nop    
    e3bc:	90                   	nop    
    e3bd:	90                   	nop    
    e3be:	90                   	nop    
    e3bf:	90                   	nop    
    e3c0:	90                   	nop    
    e3c1:	90                   	nop    
    e3c2:	90                   	nop    
    e3c3:	90                   	nop    
    e3c4:	90                   	nop    
    e3c5:	90                   	nop    
    e3c6:	90                   	nop    
    e3c7:	90                   	nop    
    e3c8:	90                   	nop    
    e3c9:	90                   	nop    
    e3ca:	90                   	nop    
    e3cb:	90                   	nop    
    e3cc:	90                   	nop    
    e3cd:	90                   	nop    
    e3ce:	90                   	nop    
    e3cf:	90                   	nop    
    e3d0:	90                   	nop    
    e3d1:	90                   	nop    
    e3d2:	90                   	nop    
    e3d3:	90                   	nop    
    e3d4:	90                   	nop    
    e3d5:	90                   	nop    
    e3d6:	90                   	nop    
    e3d7:	90                   	nop    
    e3d8:	90                   	nop    
    e3d9:	90                   	nop    
    e3da:	90                   	nop    
    e3db:	90                   	nop    
    e3dc:	90                   	nop    
    e3dd:	90                   	nop    
    e3de:	90                   	nop    
    e3df:	90                   	nop    
    e3e0:	90                   	nop    
    e3e1:	90                   	nop    
    e3e2:	90                   	nop    
    e3e3:	90                   	nop    
    e3e4:	90                   	nop    
    e3e5:	90                   	nop    
    e3e6:	90                   	nop    
    e3e7:	90                   	nop    
    e3e8:	90                   	nop    
    e3e9:	90                   	nop    
    e3ea:	90                   	nop    
    e3eb:	90                   	nop    
    e3ec:	90                   	nop    
    e3ed:	90                   	nop    
    e3ee:	90                   	nop    
    e3ef:	90                   	nop    
    e3f0:	90                   	nop    
    e3f1:	90                   	nop    
    e3f2:	90                   	nop    
    e3f3:	90                   	nop    
    e3f4:	90                   	nop    
    e3f5:	90                   	nop    
    e3f6:	90                   	nop    
    e3f7:	90                   	nop    
    e3f8:	90                   	nop    
    e3f9:	90                   	nop    
    e3fa:	90                   	nop    
    e3fb:	90                   	nop    
    e3fc:	90                   	nop    
    e3fd:	90                   	nop    
    e3fe:	90                   	nop    
    e3ff:	90                   	nop    
    e400:	90                   	nop    
    e401:	90                   	nop    
    e402:	90                   	nop    
    e403:	90                   	nop    
    e404:	90                   	nop    
    e405:	90                   	nop    
    e406:	90                   	nop    
    e407:	90                   	nop    
    e408:	90                   	nop    
    e409:	90                   	nop    
    e40a:	90                   	nop    
    e40b:	90                   	nop    
    e40c:	90                   	nop    
    e40d:	90                   	nop    
    e40e:	90                   	nop    
    e40f:	90                   	nop    
    e410:	90                   	nop    
    e411:	90                   	nop    
    e412:	90                   	nop    
    e413:	90                   	nop    
    e414:	90                   	nop    
    e415:	90                   	nop    
    e416:	90                   	nop    
    e417:	90                   	nop    
    e418:	90                   	nop    
    e419:	90                   	nop    
    e41a:	90                   	nop    
    e41b:	90                   	nop    
    e41c:	90                   	nop    
    e41d:	90                   	nop    
    e41e:	90                   	nop    
    e41f:	90                   	nop    
    e420:	90                   	nop    
    e421:	90                   	nop    
    e422:	90                   	nop    
    e423:	90                   	nop    
    e424:	90                   	nop    
    e425:	90                   	nop    
    e426:	90                   	nop    
    e427:	90                   	nop    
    e428:	90                   	nop    
    e429:	90                   	nop    
    e42a:	90                   	nop    
    e42b:	90                   	nop    
    e42c:	90                   	nop    
    e42d:	90                   	nop    
    e42e:	90                   	nop    
    e42f:	90                   	nop    
    e430:	90                   	nop    
    e431:	90                   	nop    
    e432:	90                   	nop    
    e433:	90                   	nop    
    e434:	90                   	nop    
    e435:	90                   	nop    
    e436:	90                   	nop    
    e437:	90                   	nop    
    e438:	90                   	nop    
    e439:	90                   	nop    
    e43a:	90                   	nop    
    e43b:	90                   	nop    
    e43c:	90                   	nop    
    e43d:	90                   	nop    
    e43e:	90                   	nop    
    e43f:	90                   	nop    
    e440:	90                   	nop    
    e441:	90                   	nop    
    e442:	90                   	nop    
    e443:	90                   	nop    
    e444:	90                   	nop    
    e445:	90                   	nop    
    e446:	90                   	nop    
    e447:	90                   	nop    
    e448:	90                   	nop    
    e449:	90                   	nop    
    e44a:	90                   	nop    
    e44b:	90                   	nop    
    e44c:	90                   	nop    
    e44d:	90                   	nop    
    e44e:	90                   	nop    
    e44f:	90                   	nop    
    e450:	90                   	nop    
    e451:	90                   	nop    
    e452:	90                   	nop    
    e453:	90                   	nop    
    e454:	90                   	nop    
    e455:	90                   	nop    
    e456:	90                   	nop    
    e457:	90                   	nop    
    e458:	90                   	nop    
    e459:	90                   	nop    
    e45a:	90                   	nop    
    e45b:	90                   	nop    
    e45c:	90                   	nop    
    e45d:	90                   	nop    
    e45e:	90                   	nop    
    e45f:	90                   	nop    
    e460:	90                   	nop    
    e461:	90                   	nop    
    e462:	90                   	nop    
    e463:	90                   	nop    
    e464:	90                   	nop    
    e465:	90                   	nop    
    e466:	90                   	nop    
    e467:	90                   	nop    
    e468:	90                   	nop    
    e469:	90                   	nop    
    e46a:	90                   	nop    
    e46b:	90                   	nop    
    e46c:	90                   	nop    
    e46d:	90                   	nop    
    e46e:	90                   	nop    
    e46f:	90                   	nop    
    e470:	90                   	nop    
    e471:	90                   	nop    
    e472:	90                   	nop    
    e473:	90                   	nop    
    e474:	90                   	nop    
    e475:	90                   	nop    
    e476:	90                   	nop    
    e477:	90                   	nop    
    e478:	90                   	nop    
    e479:	90                   	nop    
    e47a:	90                   	nop    
    e47b:	90                   	nop    
    e47c:	90                   	nop    
    e47d:	90                   	nop    
    e47e:	90                   	nop    
    e47f:	90                   	nop    
    e480:	90                   	nop    
    e481:	90                   	nop    
    e482:	90                   	nop    
    e483:	90                   	nop    
    e484:	90                   	nop    
    e485:	90                   	nop    
    e486:	90                   	nop    
    e487:	90                   	nop    
    e488:	90                   	nop    
    e489:	90                   	nop    
    e48a:	90                   	nop    
    e48b:	90                   	nop    
    e48c:	90                   	nop    
    e48d:	90                   	nop    
    e48e:	90                   	nop    
    e48f:	90                   	nop    
    e490:	90                   	nop    
    e491:	90                   	nop    
    e492:	90                   	nop    
    e493:	90                   	nop    
    e494:	90                   	nop    
    e495:	90                   	nop    
    e496:	90                   	nop    
    e497:	90                   	nop    
    e498:	90                   	nop    
    e499:	90                   	nop    
    e49a:	90                   	nop    
    e49b:	90                   	nop    
    e49c:	90                   	nop    
    e49d:	90                   	nop    
    e49e:	90                   	nop    
    e49f:	90                   	nop    
    e4a0:	90                   	nop    
    e4a1:	90                   	nop    
    e4a2:	90                   	nop    
    e4a3:	90                   	nop    
    e4a4:	90                   	nop    
    e4a5:	90                   	nop    
    e4a6:	90                   	nop    
    e4a7:	90                   	nop    
    e4a8:	90                   	nop    
    e4a9:	90                   	nop    
    e4aa:	90                   	nop    
    e4ab:	90                   	nop    
    e4ac:	90                   	nop    
    e4ad:	90                   	nop    
    e4ae:	90                   	nop    
    e4af:	90                   	nop    
    e4b0:	90                   	nop    
    e4b1:	90                   	nop    
    e4b2:	90                   	nop    
    e4b3:	90                   	nop    
    e4b4:	90                   	nop    
    e4b5:	90                   	nop    
    e4b6:	90                   	nop    
    e4b7:	90                   	nop    
    e4b8:	90                   	nop    
    e4b9:	90                   	nop    
    e4ba:	90                   	nop    
    e4bb:	90                   	nop    
    e4bc:	90                   	nop    
    e4bd:	90                   	nop    
    e4be:	90                   	nop    
    e4bf:	90                   	nop    
    e4c0:	90                   	nop    
    e4c1:	90                   	nop    
    e4c2:	90                   	nop    
    e4c3:	90                   	nop    
    e4c4:	90                   	nop    
    e4c5:	90                   	nop    
    e4c6:	90                   	nop    
    e4c7:	90                   	nop    
    e4c8:	90                   	nop    
    e4c9:	90                   	nop    
    e4ca:	90                   	nop    
    e4cb:	90                   	nop    
    e4cc:	90                   	nop    
    e4cd:	90                   	nop    
    e4ce:	90                   	nop    
    e4cf:	90                   	nop    
    e4d0:	90                   	nop    
    e4d1:	90                   	nop    
    e4d2:	90                   	nop    
    e4d3:	90                   	nop    
    e4d4:	90                   	nop    
    e4d5:	90                   	nop    
    e4d6:	90                   	nop    
    e4d7:	90                   	nop    
    e4d8:	90                   	nop    
    e4d9:	90                   	nop    
    e4da:	90                   	nop    
    e4db:	90                   	nop    
    e4dc:	90                   	nop    
    e4dd:	90                   	nop    
    e4de:	90                   	nop    
    e4df:	90                   	nop    
    e4e0:	90                   	nop    
    e4e1:	90                   	nop    
    e4e2:	90                   	nop    
    e4e3:	90                   	nop    
    e4e4:	90                   	nop    
    e4e5:	90                   	nop    
    e4e6:	90                   	nop    
    e4e7:	90                   	nop    
    e4e8:	90                   	nop    
    e4e9:	90                   	nop    
    e4ea:	90                   	nop    
    e4eb:	90                   	nop    
    e4ec:	90                   	nop    
    e4ed:	90                   	nop    
    e4ee:	90                   	nop    
    e4ef:	90                   	nop    
    e4f0:	90                   	nop    
    e4f1:	90                   	nop    
    e4f2:	90                   	nop    
    e4f3:	90                   	nop    
    e4f4:	90                   	nop    
    e4f5:	90                   	nop    
    e4f6:	90                   	nop    
    e4f7:	90                   	nop    
    e4f8:	90                   	nop    
    e4f9:	90                   	nop    
    e4fa:	90                   	nop    
    e4fb:	90                   	nop    
    e4fc:	90                   	nop    
    e4fd:	90                   	nop    
    e4fe:	90                   	nop    
    e4ff:	90                   	nop    
    e500:	90                   	nop    
    e501:	90                   	nop    
    e502:	90                   	nop    
    e503:	90                   	nop    
    e504:	90                   	nop    
    e505:	90                   	nop    
    e506:	90                   	nop    
    e507:	90                   	nop    
    e508:	90                   	nop    
    e509:	90                   	nop    
    e50a:	90                   	nop    
    e50b:	90                   	nop    
    e50c:	90                   	nop    
    e50d:	90                   	nop    
    e50e:	90                   	nop    
    e50f:	90                   	nop    
    e510:	90                   	nop    
    e511:	90                   	nop    
    e512:	90                   	nop    
    e513:	90                   	nop    
    e514:	90                   	nop    
    e515:	90                   	nop    
    e516:	90                   	nop    
    e517:	90                   	nop    
    e518:	90                   	nop    
    e519:	90                   	nop    
    e51a:	90                   	nop    
    e51b:	90                   	nop    
    e51c:	90                   	nop    
    e51d:	90                   	nop    
    e51e:	90                   	nop    
    e51f:	90                   	nop    
    e520:	90                   	nop    
    e521:	90                   	nop    
    e522:	90                   	nop    
    e523:	90                   	nop    
    e524:	90                   	nop    
    e525:	90                   	nop    
    e526:	90                   	nop    
    e527:	90                   	nop    
    e528:	90                   	nop    
    e529:	90                   	nop    
    e52a:	90                   	nop    
    e52b:	90                   	nop    
    e52c:	90                   	nop    
    e52d:	90                   	nop    
    e52e:	90                   	nop    
    e52f:	90                   	nop    
    e530:	90                   	nop    
    e531:	90                   	nop    
    e532:	90                   	nop    
    e533:	90                   	nop    
    e534:	90                   	nop    
    e535:	90                   	nop    
    e536:	90                   	nop    
    e537:	90                   	nop    
    e538:	90                   	nop    
    e539:	90                   	nop    
    e53a:	90                   	nop    
    e53b:	90                   	nop    
    e53c:	90                   	nop    
    e53d:	90                   	nop    
    e53e:	90                   	nop    
    e53f:	90                   	nop    
    e540:	90                   	nop    
    e541:	90                   	nop    
    e542:	90                   	nop    
    e543:	90                   	nop    
    e544:	90                   	nop    
    e545:	90                   	nop    
    e546:	90                   	nop    
    e547:	90                   	nop    
    e548:	90                   	nop    
    e549:	90                   	nop    
    e54a:	90                   	nop    
    e54b:	90                   	nop    
    e54c:	90                   	nop    
    e54d:	90                   	nop    
    e54e:	90                   	nop    
    e54f:	90                   	nop    
    e550:	90                   	nop    
    e551:	90                   	nop    
    e552:	90                   	nop    
    e553:	90                   	nop    
    e554:	90                   	nop    
    e555:	90                   	nop    
    e556:	90                   	nop    
    e557:	90                   	nop    
    e558:	90                   	nop    
    e559:	90                   	nop    
    e55a:	90                   	nop    
    e55b:	90                   	nop    
    e55c:	90                   	nop    
    e55d:	90                   	nop    
    e55e:	90                   	nop    
    e55f:	90                   	nop    
    e560:	90                   	nop    
    e561:	90                   	nop    
    e562:	90                   	nop    
    e563:	90                   	nop    
    e564:	90                   	nop    
    e565:	90                   	nop    
    e566:	90                   	nop    
    e567:	90                   	nop    
    e568:	90                   	nop    
    e569:	90                   	nop    
    e56a:	90                   	nop    
    e56b:	90                   	nop    
    e56c:	90                   	nop    
    e56d:	90                   	nop    
    e56e:	90                   	nop    
    e56f:	90                   	nop    
    e570:	90                   	nop    
    e571:	90                   	nop    
    e572:	90                   	nop    
    e573:	90                   	nop    
    e574:	90                   	nop    
    e575:	90                   	nop    
    e576:	90                   	nop    
    e577:	90                   	nop    
    e578:	90                   	nop    
    e579:	90                   	nop    
    e57a:	90                   	nop    
    e57b:	90                   	nop    
    e57c:	90                   	nop    
    e57d:	90                   	nop    
    e57e:	90                   	nop    
    e57f:	90                   	nop    
    e580:	90                   	nop    
    e581:	90                   	nop    
    e582:	90                   	nop    
    e583:	90                   	nop    
    e584:	90                   	nop    
    e585:	90                   	nop    
    e586:	90                   	nop    
    e587:	90                   	nop    
    e588:	90                   	nop    
    e589:	90                   	nop    
    e58a:	90                   	nop    
    e58b:	90                   	nop    
    e58c:	90                   	nop    
    e58d:	90                   	nop    
    e58e:	90                   	nop    
    e58f:	90                   	nop    
    e590:	90                   	nop    
    e591:	90                   	nop    
    e592:	90                   	nop    
    e593:	90                   	nop    
    e594:	90                   	nop    
    e595:	90                   	nop    
    e596:	90                   	nop    
    e597:	90                   	nop    
    e598:	90                   	nop    
    e599:	90                   	nop    
    e59a:	90                   	nop    
    e59b:	90                   	nop    
    e59c:	90                   	nop    
    e59d:	90                   	nop    
    e59e:	90                   	nop    
    e59f:	90                   	nop    
    e5a0:	90                   	nop    
    e5a1:	90                   	nop    
    e5a2:	90                   	nop    
    e5a3:	90                   	nop    
    e5a4:	90                   	nop    
    e5a5:	90                   	nop    
    e5a6:	90                   	nop    
    e5a7:	90                   	nop    
    e5a8:	90                   	nop    
    e5a9:	90                   	nop    
    e5aa:	90                   	nop    
    e5ab:	90                   	nop    
    e5ac:	90                   	nop    
    e5ad:	90                   	nop    
    e5ae:	90                   	nop    
    e5af:	90                   	nop    
    e5b0:	90                   	nop    
    e5b1:	90                   	nop    
    e5b2:	90                   	nop    
    e5b3:	90                   	nop    
    e5b4:	90                   	nop    
    e5b5:	90                   	nop    
    e5b6:	90                   	nop    
    e5b7:	90                   	nop    
    e5b8:	90                   	nop    
    e5b9:	90                   	nop    
    e5ba:	90                   	nop    
    e5bb:	90                   	nop    
    e5bc:	90                   	nop    
    e5bd:	90                   	nop    
    e5be:	90                   	nop    
    e5bf:	90                   	nop    
    e5c0:	90                   	nop    
    e5c1:	90                   	nop    
    e5c2:	90                   	nop    
    e5c3:	90                   	nop    
    e5c4:	90                   	nop    
    e5c5:	90                   	nop    
    e5c6:	90                   	nop    
    e5c7:	90                   	nop    
    e5c8:	90                   	nop    
    e5c9:	90                   	nop    
    e5ca:	90                   	nop    
    e5cb:	90                   	nop    
    e5cc:	90                   	nop    
    e5cd:	90                   	nop    
    e5ce:	90                   	nop    
    e5cf:	90                   	nop    
    e5d0:	90                   	nop    
    e5d1:	90                   	nop    
    e5d2:	90                   	nop    
    e5d3:	90                   	nop    
    e5d4:	90                   	nop    
    e5d5:	90                   	nop    
    e5d6:	90                   	nop    
    e5d7:	90                   	nop    
    e5d8:	90                   	nop    
    e5d9:	90                   	nop    
    e5da:	90                   	nop    
    e5db:	90                   	nop    
    e5dc:	90                   	nop    
    e5dd:	90                   	nop    
    e5de:	90                   	nop    
    e5df:	90                   	nop    
    e5e0:	90                   	nop    
    e5e1:	90                   	nop    
    e5e2:	90                   	nop    
    e5e3:	90                   	nop    
    e5e4:	90                   	nop    
    e5e5:	90                   	nop    
    e5e6:	90                   	nop    
    e5e7:	90                   	nop    
    e5e8:	90                   	nop    
    e5e9:	90                   	nop    
    e5ea:	90                   	nop    
    e5eb:	90                   	nop    
    e5ec:	90                   	nop    
    e5ed:	90                   	nop    
    e5ee:	90                   	nop    
    e5ef:	90                   	nop    
    e5f0:	90                   	nop    
    e5f1:	90                   	nop    
    e5f2:	90                   	nop    
    e5f3:	90                   	nop    
    e5f4:	90                   	nop    
    e5f5:	90                   	nop    
    e5f6:	90                   	nop    
    e5f7:	90                   	nop    
    e5f8:	90                   	nop    
    e5f9:	90                   	nop    
    e5fa:	90                   	nop    
    e5fb:	90                   	nop    
    e5fc:	90                   	nop    
    e5fd:	90                   	nop    
    e5fe:	90                   	nop    
    e5ff:	90                   	nop    
    e600:	90                   	nop    
    e601:	90                   	nop    
    e602:	90                   	nop    
    e603:	90                   	nop    
    e604:	90                   	nop    
    e605:	90                   	nop    
    e606:	90                   	nop    
    e607:	90                   	nop    
    e608:	90                   	nop    
    e609:	90                   	nop    
    e60a:	90                   	nop    
    e60b:	90                   	nop    
    e60c:	90                   	nop    
    e60d:	90                   	nop    
    e60e:	90                   	nop    
    e60f:	90                   	nop    
    e610:	90                   	nop    
    e611:	90                   	nop    
    e612:	90                   	nop    
    e613:	90                   	nop    
    e614:	90                   	nop    
    e615:	90                   	nop    
    e616:	90                   	nop    
    e617:	90                   	nop    
    e618:	90                   	nop    
    e619:	90                   	nop    
    e61a:	90                   	nop    
    e61b:	90                   	nop    
    e61c:	90                   	nop    
    e61d:	90                   	nop    
    e61e:	90                   	nop    
    e61f:	90                   	nop    
    e620:	90                   	nop    
    e621:	90                   	nop    
    e622:	90                   	nop    
    e623:	90                   	nop    
    e624:	90                   	nop    
    e625:	90                   	nop    
    e626:	90                   	nop    
    e627:	90                   	nop    
    e628:	90                   	nop    
    e629:	90                   	nop    
    e62a:	90                   	nop    
    e62b:	90                   	nop    
    e62c:	90                   	nop    
    e62d:	90                   	nop    
    e62e:	90                   	nop    
    e62f:	90                   	nop    
    e630:	90                   	nop    
    e631:	90                   	nop    
    e632:	90                   	nop    
    e633:	90                   	nop    
    e634:	90                   	nop    
    e635:	90                   	nop    
    e636:	90                   	nop    
    e637:	90                   	nop    
    e638:	90                   	nop    
    e639:	90                   	nop    
    e63a:	90                   	nop    
    e63b:	90                   	nop    
    e63c:	90                   	nop    
    e63d:	90                   	nop    
    e63e:	90                   	nop    
    e63f:	90                   	nop    
    e640:	90                   	nop    
    e641:	90                   	nop    
    e642:	90                   	nop    
    e643:	90                   	nop    
    e644:	90                   	nop    
    e645:	90                   	nop    
    e646:	90                   	nop    
    e647:	90                   	nop    
    e648:	90                   	nop    
    e649:	90                   	nop    
    e64a:	90                   	nop    
    e64b:	90                   	nop    
    e64c:	90                   	nop    
    e64d:	90                   	nop    
    e64e:	90                   	nop    
    e64f:	90                   	nop    
    e650:	90                   	nop    
    e651:	90                   	nop    
    e652:	90                   	nop    
    e653:	90                   	nop    
    e654:	90                   	nop    
    e655:	90                   	nop    
    e656:	90                   	nop    
    e657:	90                   	nop    
    e658:	90                   	nop    
    e659:	90                   	nop    
    e65a:	90                   	nop    
    e65b:	90                   	nop    
    e65c:	90                   	nop    
    e65d:	90                   	nop    
    e65e:	90                   	nop    
    e65f:	90                   	nop    
    e660:	90                   	nop    
    e661:	90                   	nop    
    e662:	90                   	nop    
    e663:	90                   	nop    
    e664:	90                   	nop    
    e665:	90                   	nop    
    e666:	90                   	nop    
    e667:	90                   	nop    
    e668:	90                   	nop    
    e669:	90                   	nop    
    e66a:	90                   	nop    
    e66b:	90                   	nop    
    e66c:	90                   	nop    
    e66d:	90                   	nop    
    e66e:	90                   	nop    
    e66f:	90                   	nop    
    e670:	90                   	nop    
    e671:	90                   	nop    
    e672:	90                   	nop    
    e673:	90                   	nop    
    e674:	90                   	nop    
    e675:	90                   	nop    
    e676:	90                   	nop    
    e677:	90                   	nop    
    e678:	90                   	nop    
    e679:	90                   	nop    
    e67a:	90                   	nop    
    e67b:	90                   	nop    
    e67c:	90                   	nop    
    e67d:	90                   	nop    
    e67e:	90                   	nop    
    e67f:	90                   	nop    
    e680:	90                   	nop    
    e681:	90                   	nop    
    e682:	90                   	nop    
    e683:	90                   	nop    
    e684:	90                   	nop    
    e685:	90                   	nop    
    e686:	90                   	nop    
    e687:	90                   	nop    
    e688:	90                   	nop    
    e689:	90                   	nop    
    e68a:	90                   	nop    
    e68b:	90                   	nop    
    e68c:	90                   	nop    
    e68d:	90                   	nop    
    e68e:	90                   	nop    
    e68f:	90                   	nop    
    e690:	90                   	nop    
    e691:	90                   	nop    
    e692:	90                   	nop    
    e693:	90                   	nop    
    e694:	90                   	nop    
    e695:	90                   	nop    
    e696:	90                   	nop    
    e697:	90                   	nop    
    e698:	90                   	nop    
    e699:	90                   	nop    
    e69a:	90                   	nop    
    e69b:	90                   	nop    
    e69c:	90                   	nop    
    e69d:	90                   	nop    
    e69e:	90                   	nop    
    e69f:	90                   	nop    
    e6a0:	90                   	nop    
    e6a1:	90                   	nop    
    e6a2:	90                   	nop    
    e6a3:	90                   	nop    
    e6a4:	90                   	nop    
    e6a5:	90                   	nop    
    e6a6:	90                   	nop    
    e6a7:	90                   	nop    
    e6a8:	90                   	nop    
    e6a9:	90                   	nop    
    e6aa:	90                   	nop    
    e6ab:	90                   	nop    
    e6ac:	90                   	nop    
    e6ad:	90                   	nop    
    e6ae:	90                   	nop    
    e6af:	90                   	nop    
    e6b0:	90                   	nop    
    e6b1:	90                   	nop    
    e6b2:	90                   	nop    
    e6b3:	90                   	nop    
    e6b4:	90                   	nop    
    e6b5:	90                   	nop    
    e6b6:	90                   	nop    
    e6b7:	90                   	nop    
    e6b8:	90                   	nop    
    e6b9:	90                   	nop    
    e6ba:	90                   	nop    
    e6bb:	90                   	nop    
    e6bc:	90                   	nop    
    e6bd:	90                   	nop    
    e6be:	90                   	nop    
    e6bf:	90                   	nop    
    e6c0:	90                   	nop    
    e6c1:	90                   	nop    
    e6c2:	90                   	nop    
    e6c3:	90                   	nop    
    e6c4:	90                   	nop    
    e6c5:	90                   	nop    
    e6c6:	90                   	nop    
    e6c7:	90                   	nop    
    e6c8:	90                   	nop    
    e6c9:	90                   	nop    
    e6ca:	90                   	nop    
    e6cb:	90                   	nop    
    e6cc:	90                   	nop    
    e6cd:	90                   	nop    
    e6ce:	90                   	nop    
    e6cf:	90                   	nop    
    e6d0:	90                   	nop    
    e6d1:	90                   	nop    
    e6d2:	90                   	nop    
    e6d3:	90                   	nop    
    e6d4:	90                   	nop    
    e6d5:	90                   	nop    
    e6d6:	90                   	nop    
    e6d7:	90                   	nop    
    e6d8:	90                   	nop    
    e6d9:	90                   	nop    
    e6da:	90                   	nop    
    e6db:	90                   	nop    
    e6dc:	90                   	nop    
    e6dd:	90                   	nop    
    e6de:	90                   	nop    
    e6df:	90                   	nop    
    e6e0:	90                   	nop    
    e6e1:	90                   	nop    
    e6e2:	90                   	nop    
    e6e3:	90                   	nop    
    e6e4:	90                   	nop    
    e6e5:	90                   	nop    
    e6e6:	90                   	nop    
    e6e7:	90                   	nop    
    e6e8:	90                   	nop    
    e6e9:	90                   	nop    
    e6ea:	90                   	nop    
    e6eb:	90                   	nop    
    e6ec:	90                   	nop    
    e6ed:	90                   	nop    
    e6ee:	90                   	nop    
    e6ef:	90                   	nop    
    e6f0:	90                   	nop    
    e6f1:	90                   	nop    
    e6f2:	90                   	nop    
    e6f3:	90                   	nop    
    e6f4:	90                   	nop    
    e6f5:	90                   	nop    
    e6f6:	90                   	nop    
    e6f7:	90                   	nop    
    e6f8:	90                   	nop    
    e6f9:	90                   	nop    
    e6fa:	90                   	nop    
    e6fb:	90                   	nop    
    e6fc:	90                   	nop    
    e6fd:	90                   	nop    
    e6fe:	90                   	nop    
    e6ff:	90                   	nop    
    e700:	90                   	nop    
    e701:	90                   	nop    
    e702:	90                   	nop    
    e703:	90                   	nop    
    e704:	90                   	nop    
    e705:	90                   	nop    
    e706:	90                   	nop    
    e707:	90                   	nop    
    e708:	90                   	nop    
    e709:	90                   	nop    
    e70a:	90                   	nop    
    e70b:	90                   	nop    
    e70c:	90                   	nop    
    e70d:	90                   	nop    
    e70e:	90                   	nop    
    e70f:	90                   	nop    
    e710:	90                   	nop    
    e711:	90                   	nop    
    e712:	90                   	nop    
    e713:	90                   	nop    
    e714:	90                   	nop    
    e715:	90                   	nop    
    e716:	90                   	nop    
    e717:	90                   	nop    
    e718:	90                   	nop    
    e719:	90                   	nop    
    e71a:	90                   	nop    
    e71b:	90                   	nop    
    e71c:	90                   	nop    
    e71d:	90                   	nop    
    e71e:	90                   	nop    
    e71f:	90                   	nop    
    e720:	90                   	nop    
    e721:	90                   	nop    
    e722:	90                   	nop    
    e723:	90                   	nop    
    e724:	90                   	nop    
    e725:	90                   	nop    
    e726:	90                   	nop    
    e727:	90                   	nop    
    e728:	90                   	nop    
    e729:	90                   	nop    
    e72a:	90                   	nop    
    e72b:	90                   	nop    
    e72c:	90                   	nop    
    e72d:	90                   	nop    
    e72e:	90                   	nop    
    e72f:	90                   	nop    
    e730:	90                   	nop    
    e731:	90                   	nop    
    e732:	90                   	nop    
    e733:	90                   	nop    
    e734:	90                   	nop    
    e735:	90                   	nop    
    e736:	90                   	nop    
    e737:	90                   	nop    
    e738:	90                   	nop    
    e739:	90                   	nop    
    e73a:	90                   	nop    
    e73b:	90                   	nop    
    e73c:	90                   	nop    
    e73d:	90                   	nop    
    e73e:	90                   	nop    
    e73f:	90                   	nop    
    e740:	90                   	nop    
    e741:	90                   	nop    
    e742:	90                   	nop    
    e743:	90                   	nop    
    e744:	90                   	nop    
    e745:	90                   	nop    
    e746:	90                   	nop    
    e747:	90                   	nop    
    e748:	90                   	nop    
    e749:	90                   	nop    
    e74a:	90                   	nop    
    e74b:	90                   	nop    
    e74c:	90                   	nop    
    e74d:	90                   	nop    
    e74e:	90                   	nop    
    e74f:	90                   	nop    
    e750:	90                   	nop    
    e751:	90                   	nop    
    e752:	90                   	nop    
    e753:	90                   	nop    
    e754:	90                   	nop    
    e755:	90                   	nop    
    e756:	90                   	nop    
    e757:	90                   	nop    
    e758:	90                   	nop    
    e759:	90                   	nop    
    e75a:	90                   	nop    
    e75b:	90                   	nop    
    e75c:	90                   	nop    
    e75d:	90                   	nop    
    e75e:	90                   	nop    
    e75f:	90                   	nop    
    e760:	90                   	nop    
    e761:	90                   	nop    
    e762:	90                   	nop    
    e763:	90                   	nop    
    e764:	90                   	nop    
    e765:	90                   	nop    
    e766:	90                   	nop    
    e767:	90                   	nop    
    e768:	90                   	nop    
    e769:	90                   	nop    
    e76a:	90                   	nop    
    e76b:	90                   	nop    
    e76c:	90                   	nop    
    e76d:	90                   	nop    
    e76e:	90                   	nop    
    e76f:	90                   	nop    
    e770:	90                   	nop    
    e771:	90                   	nop    
    e772:	90                   	nop    
    e773:	90                   	nop    
    e774:	90                   	nop    
    e775:	90                   	nop    
    e776:	90                   	nop    
    e777:	90                   	nop    
    e778:	90                   	nop    
    e779:	90                   	nop    
    e77a:	90                   	nop    
    e77b:	90                   	nop    
    e77c:	90                   	nop    
    e77d:	90                   	nop    
    e77e:	90                   	nop    
    e77f:	90                   	nop    
    e780:	90                   	nop    
    e781:	90                   	nop    
    e782:	90                   	nop    
    e783:	90                   	nop    
    e784:	90                   	nop    
    e785:	90                   	nop    
    e786:	90                   	nop    
    e787:	90                   	nop    
    e788:	90                   	nop    
    e789:	90                   	nop    
    e78a:	90                   	nop    
    e78b:	90                   	nop    
    e78c:	90                   	nop    
    e78d:	90                   	nop    
    e78e:	90                   	nop    
    e78f:	90                   	nop    
    e790:	90                   	nop    
    e791:	90                   	nop    
    e792:	90                   	nop    
    e793:	90                   	nop    
    e794:	90                   	nop    
    e795:	90                   	nop    
    e796:	90                   	nop    
    e797:	90                   	nop    
    e798:	90                   	nop    
    e799:	90                   	nop    
    e79a:	90                   	nop    
    e79b:	90                   	nop    
    e79c:	90                   	nop    
    e79d:	90                   	nop    
    e79e:	90                   	nop    
    e79f:	90                   	nop    
    e7a0:	90                   	nop    
    e7a1:	90                   	nop    
    e7a2:	90                   	nop    
    e7a3:	90                   	nop    
    e7a4:	90                   	nop    
    e7a5:	90                   	nop    
    e7a6:	90                   	nop    
    e7a7:	90                   	nop    
    e7a8:	90                   	nop    
    e7a9:	90                   	nop    
    e7aa:	90                   	nop    
    e7ab:	90                   	nop    
    e7ac:	90                   	nop    
    e7ad:	90                   	nop    
    e7ae:	90                   	nop    
    e7af:	90                   	nop    
    e7b0:	90                   	nop    
    e7b1:	90                   	nop    
    e7b2:	90                   	nop    
    e7b3:	90                   	nop    
    e7b4:	90                   	nop    
    e7b5:	90                   	nop    
    e7b6:	90                   	nop    
    e7b7:	90                   	nop    
    e7b8:	90                   	nop    
    e7b9:	90                   	nop    
    e7ba:	90                   	nop    
    e7bb:	90                   	nop    
    e7bc:	90                   	nop    
    e7bd:	90                   	nop    
    e7be:	90                   	nop    
    e7bf:	90                   	nop    
    e7c0:	90                   	nop    
    e7c1:	90                   	nop    
    e7c2:	90                   	nop    
    e7c3:	90                   	nop    
    e7c4:	90                   	nop    
    e7c5:	90                   	nop    
    e7c6:	90                   	nop    
    e7c7:	90                   	nop    
    e7c8:	90                   	nop    
    e7c9:	90                   	nop    
    e7ca:	90                   	nop    
    e7cb:	90                   	nop    
    e7cc:	90                   	nop    
    e7cd:	90                   	nop    
    e7ce:	90                   	nop    
    e7cf:	90                   	nop    
    e7d0:	90                   	nop    
    e7d1:	90                   	nop    
    e7d2:	90                   	nop    
    e7d3:	90                   	nop    
    e7d4:	90                   	nop    
    e7d5:	90                   	nop    
    e7d6:	90                   	nop    
    e7d7:	90                   	nop    
    e7d8:	90                   	nop    
    e7d9:	90                   	nop    
    e7da:	90                   	nop    
    e7db:	90                   	nop    
    e7dc:	90                   	nop    
    e7dd:	90                   	nop    
    e7de:	90                   	nop    
    e7df:	90                   	nop    
    e7e0:	90                   	nop    
    e7e1:	90                   	nop    
    e7e2:	90                   	nop    
    e7e3:	90                   	nop    
    e7e4:	90                   	nop    
    e7e5:	90                   	nop    
    e7e6:	90                   	nop    
    e7e7:	90                   	nop    
    e7e8:	90                   	nop    
    e7e9:	90                   	nop    
    e7ea:	90                   	nop    
    e7eb:	90                   	nop    
    e7ec:	90                   	nop    
    e7ed:	90                   	nop    
    e7ee:	90                   	nop    
    e7ef:	90                   	nop    
    e7f0:	90                   	nop    
    e7f1:	90                   	nop    
    e7f2:	90                   	nop    
    e7f3:	90                   	nop    
    e7f4:	90                   	nop    
    e7f5:	90                   	nop    
    e7f6:	90                   	nop    
    e7f7:	90                   	nop    
    e7f8:	90                   	nop    
    e7f9:	90                   	nop    
    e7fa:	90                   	nop    
    e7fb:	90                   	nop    
    e7fc:	90                   	nop    
    e7fd:	90                   	nop    
    e7fe:	90                   	nop    
    e7ff:	90                   	nop    
    e800:	90                   	nop    
    e801:	90                   	nop    
    e802:	90                   	nop    
    e803:	90                   	nop    
    e804:	90                   	nop    
    e805:	90                   	nop    
    e806:	90                   	nop    
    e807:	90                   	nop    
    e808:	90                   	nop    
    e809:	90                   	nop    
    e80a:	90                   	nop    
    e80b:	90                   	nop    
    e80c:	90                   	nop    
    e80d:	90                   	nop    
    e80e:	90                   	nop    
    e80f:	90                   	nop    
    e810:	90                   	nop    
    e811:	90                   	nop    
    e812:	90                   	nop    
    e813:	90                   	nop    
    e814:	90                   	nop    
    e815:	90                   	nop    
    e816:	90                   	nop    
    e817:	90                   	nop    
    e818:	90                   	nop    
    e819:	90                   	nop    
    e81a:	90                   	nop    
    e81b:	90                   	nop    
    e81c:	90                   	nop    
    e81d:	90                   	nop    
    e81e:	90                   	nop    
    e81f:	90                   	nop    
    e820:	90                   	nop    
    e821:	90                   	nop    
    e822:	90                   	nop    
    e823:	90                   	nop    
    e824:	90                   	nop    
    e825:	90                   	nop    
    e826:	90                   	nop    
    e827:	90                   	nop    
    e828:	90                   	nop    
    e829:	90                   	nop    
    e82a:	90                   	nop    
    e82b:	90                   	nop    
    e82c:	90                   	nop    
    e82d:	90                   	nop    
    e82e:	90                   	nop    
    e82f:	90                   	nop    
    e830:	90                   	nop    
    e831:	90                   	nop    
    e832:	90                   	nop    
    e833:	90                   	nop    
    e834:	90                   	nop    
    e835:	90                   	nop    
    e836:	90                   	nop    
    e837:	90                   	nop    
    e838:	90                   	nop    
    e839:	90                   	nop    
    e83a:	90                   	nop    
    e83b:	90                   	nop    
    e83c:	90                   	nop    
    e83d:	90                   	nop    
    e83e:	90                   	nop    
    e83f:	90                   	nop    
    e840:	90                   	nop    
    e841:	90                   	nop    
    e842:	90                   	nop    
    e843:	90                   	nop    
    e844:	90                   	nop    
    e845:	90                   	nop    
    e846:	90                   	nop    
    e847:	90                   	nop    
    e848:	90                   	nop    
    e849:	90                   	nop    
    e84a:	90                   	nop    
    e84b:	90                   	nop    
    e84c:	90                   	nop    
    e84d:	90                   	nop    
    e84e:	90                   	nop    
    e84f:	90                   	nop    
    e850:	90                   	nop    
    e851:	90                   	nop    
    e852:	90                   	nop    
    e853:	90                   	nop    
    e854:	90                   	nop    
    e855:	90                   	nop    
    e856:	90                   	nop    
    e857:	90                   	nop    
    e858:	90                   	nop    
    e859:	90                   	nop    
    e85a:	90                   	nop    
    e85b:	90                   	nop    
    e85c:	90                   	nop    
    e85d:	90                   	nop    
    e85e:	90                   	nop    
    e85f:	90                   	nop    
    e860:	90                   	nop    
    e861:	90                   	nop    
    e862:	90                   	nop    
    e863:	90                   	nop    
    e864:	90                   	nop    
    e865:	90                   	nop    
    e866:	90                   	nop    
    e867:	90                   	nop    
    e868:	90                   	nop    
    e869:	90                   	nop    
    e86a:	90                   	nop    
    e86b:	90                   	nop    
    e86c:	90                   	nop    
    e86d:	90                   	nop    
    e86e:	90                   	nop    
    e86f:	90                   	nop    
    e870:	90                   	nop    
    e871:	90                   	nop    
    e872:	90                   	nop    
    e873:	90                   	nop    
    e874:	90                   	nop    
    e875:	90                   	nop    
    e876:	90                   	nop    
    e877:	90                   	nop    
    e878:	90                   	nop    
    e879:	90                   	nop    
    e87a:	90                   	nop    
    e87b:	90                   	nop    
    e87c:	90                   	nop    
    e87d:	90                   	nop    
    e87e:	90                   	nop    
    e87f:	90                   	nop    
    e880:	90                   	nop    
    e881:	90                   	nop    
    e882:	90                   	nop    
    e883:	90                   	nop    
    e884:	90                   	nop    
    e885:	90                   	nop    
    e886:	90                   	nop    
    e887:	90                   	nop    
    e888:	90                   	nop    
    e889:	90                   	nop    
    e88a:	90                   	nop    
    e88b:	90                   	nop    
    e88c:	90                   	nop    
    e88d:	90                   	nop    
    e88e:	90                   	nop    
    e88f:	90                   	nop    
    e890:	90                   	nop    
    e891:	90                   	nop    
    e892:	90                   	nop    
    e893:	90                   	nop    
    e894:	90                   	nop    
    e895:	90                   	nop    
    e896:	90                   	nop    
    e897:	90                   	nop    
    e898:	90                   	nop    
    e899:	90                   	nop    
    e89a:	90                   	nop    
    e89b:	90                   	nop    
    e89c:	90                   	nop    
    e89d:	90                   	nop    
    e89e:	90                   	nop    
    e89f:	90                   	nop    
    e8a0:	90                   	nop    
    e8a1:	90                   	nop    
    e8a2:	90                   	nop    
    e8a3:	90                   	nop    
    e8a4:	90                   	nop    
    e8a5:	90                   	nop    
    e8a6:	90                   	nop    
    e8a7:	90                   	nop    
    e8a8:	90                   	nop    
    e8a9:	90                   	nop    
    e8aa:	90                   	nop    
    e8ab:	90                   	nop    
    e8ac:	90                   	nop    
    e8ad:	90                   	nop    
    e8ae:	90                   	nop    
    e8af:	90                   	nop    
    e8b0:	90                   	nop    
    e8b1:	90                   	nop    
    e8b2:	90                   	nop    
    e8b3:	90                   	nop    
    e8b4:	90                   	nop    
    e8b5:	90                   	nop    
    e8b6:	90                   	nop    
    e8b7:	90                   	nop    
    e8b8:	90                   	nop    
    e8b9:	90                   	nop    
    e8ba:	90                   	nop    
    e8bb:	90                   	nop    
    e8bc:	90                   	nop    
    e8bd:	90                   	nop    
    e8be:	90                   	nop    
    e8bf:	90                   	nop    
    e8c0:	90                   	nop    
    e8c1:	90                   	nop    
    e8c2:	90                   	nop    
    e8c3:	90                   	nop    
    e8c4:	90                   	nop    
    e8c5:	90                   	nop    
    e8c6:	90                   	nop    
    e8c7:	90                   	nop    
    e8c8:	90                   	nop    
    e8c9:	90                   	nop    
    e8ca:	90                   	nop    
    e8cb:	90                   	nop    
    e8cc:	90                   	nop    
    e8cd:	90                   	nop    
    e8ce:	90                   	nop    
    e8cf:	90                   	nop    
    e8d0:	90                   	nop    
    e8d1:	90                   	nop    
    e8d2:	90                   	nop    
    e8d3:	90                   	nop    
    e8d4:	90                   	nop    
    e8d5:	90                   	nop    
    e8d6:	90                   	nop    
    e8d7:	90                   	nop    
    e8d8:	90                   	nop    
    e8d9:	90                   	nop    
    e8da:	90                   	nop    
    e8db:	90                   	nop    
    e8dc:	90                   	nop    
    e8dd:	90                   	nop    
    e8de:	90                   	nop    
    e8df:	90                   	nop    
    e8e0:	90                   	nop    
    e8e1:	90                   	nop    
    e8e2:	90                   	nop    
    e8e3:	90                   	nop    
    e8e4:	90                   	nop    
    e8e5:	90                   	nop    
    e8e6:	90                   	nop    
    e8e7:	90                   	nop    
    e8e8:	90                   	nop    
    e8e9:	90                   	nop    
    e8ea:	90                   	nop    
    e8eb:	90                   	nop    
    e8ec:	90                   	nop    
    e8ed:	90                   	nop    
    e8ee:	90                   	nop    
    e8ef:	90                   	nop    
    e8f0:	90                   	nop    
    e8f1:	90                   	nop    
    e8f2:	90                   	nop    
    e8f3:	90                   	nop    
    e8f4:	90                   	nop    
    e8f5:	90                   	nop    
    e8f6:	90                   	nop    
    e8f7:	90                   	nop    
    e8f8:	90                   	nop    
    e8f9:	90                   	nop    
    e8fa:	90                   	nop    
    e8fb:	90                   	nop    
    e8fc:	90                   	nop    
    e8fd:	90                   	nop    
    e8fe:	90                   	nop    
    e8ff:	90                   	nop    
    e900:	90                   	nop    
    e901:	90                   	nop    
    e902:	90                   	nop    
    e903:	90                   	nop    
    e904:	90                   	nop    
    e905:	90                   	nop    
    e906:	90                   	nop    
    e907:	90                   	nop    
    e908:	90                   	nop    
    e909:	90                   	nop    
    e90a:	90                   	nop    
    e90b:	90                   	nop    
    e90c:	90                   	nop    
    e90d:	90                   	nop    
    e90e:	90                   	nop    
    e90f:	90                   	nop    
    e910:	90                   	nop    
    e911:	90                   	nop    
    e912:	90                   	nop    
    e913:	90                   	nop    
    e914:	90                   	nop    
    e915:	90                   	nop    
    e916:	90                   	nop    
    e917:	90                   	nop    
    e918:	90                   	nop    
    e919:	90                   	nop    
    e91a:	90                   	nop    
    e91b:	90                   	nop    
    e91c:	90                   	nop    
    e91d:	90                   	nop    
    e91e:	90                   	nop    
    e91f:	90                   	nop    
    e920:	90                   	nop    
    e921:	90                   	nop    
    e922:	90                   	nop    
    e923:	90                   	nop    
    e924:	90                   	nop    
    e925:	90                   	nop    
    e926:	90                   	nop    
    e927:	90                   	nop    
    e928:	90                   	nop    
    e929:	90                   	nop    
    e92a:	90                   	nop    
    e92b:	90                   	nop    
    e92c:	90                   	nop    
    e92d:	90                   	nop    
    e92e:	90                   	nop    
    e92f:	90                   	nop    
    e930:	90                   	nop    
    e931:	90                   	nop    
    e932:	90                   	nop    
    e933:	90                   	nop    
    e934:	90                   	nop    
    e935:	90                   	nop    
    e936:	90                   	nop    
    e937:	90                   	nop    
    e938:	90                   	nop    
    e939:	90                   	nop    
    e93a:	90                   	nop    
    e93b:	90                   	nop    
    e93c:	90                   	nop    
    e93d:	90                   	nop    
    e93e:	90                   	nop    
    e93f:	90                   	nop    
    e940:	90                   	nop    
    e941:	90                   	nop    
    e942:	90                   	nop    
    e943:	90                   	nop    
    e944:	90                   	nop    
    e945:	90                   	nop    
    e946:	90                   	nop    
    e947:	90                   	nop    
    e948:	90                   	nop    
    e949:	90                   	nop    
    e94a:	90                   	nop    
    e94b:	90                   	nop    
    e94c:	90                   	nop    
    e94d:	90                   	nop    
    e94e:	90                   	nop    
    e94f:	90                   	nop    
    e950:	90                   	nop    
    e951:	90                   	nop    
    e952:	90                   	nop    
    e953:	90                   	nop    
    e954:	90                   	nop    
    e955:	90                   	nop    
    e956:	90                   	nop    
    e957:	90                   	nop    
    e958:	90                   	nop    
    e959:	90                   	nop    
    e95a:	90                   	nop    
    e95b:	90                   	nop    
    e95c:	90                   	nop    
    e95d:	90                   	nop    
    e95e:	90                   	nop    
    e95f:	90                   	nop    
    e960:	90                   	nop    
    e961:	90                   	nop    
    e962:	90                   	nop    
    e963:	90                   	nop    
    e964:	90                   	nop    
    e965:	90                   	nop    
    e966:	90                   	nop    
    e967:	90                   	nop    
    e968:	90                   	nop    
    e969:	90                   	nop    
    e96a:	90                   	nop    
    e96b:	90                   	nop    
    e96c:	90                   	nop    
    e96d:	90                   	nop    
    e96e:	90                   	nop    
    e96f:	90                   	nop    
    e970:	90                   	nop    
    e971:	90                   	nop    
    e972:	90                   	nop    
    e973:	90                   	nop    
    e974:	90                   	nop    
    e975:	90                   	nop    
    e976:	90                   	nop    
    e977:	90                   	nop    
    e978:	90                   	nop    
    e979:	90                   	nop    
    e97a:	90                   	nop    
    e97b:	90                   	nop    
    e97c:	90                   	nop    
    e97d:	90                   	nop    
    e97e:	90                   	nop    
    e97f:	90                   	nop    
    e980:	90                   	nop    
    e981:	90                   	nop    
    e982:	90                   	nop    
    e983:	90                   	nop    
    e984:	90                   	nop    
    e985:	90                   	nop    
    e986:	90                   	nop    
    e987:	90                   	nop    
    e988:	90                   	nop    
    e989:	90                   	nop    
    e98a:	90                   	nop    
    e98b:	90                   	nop    
    e98c:	90                   	nop    
    e98d:	90                   	nop    
    e98e:	90                   	nop    
    e98f:	90                   	nop    
    e990:	90                   	nop    
    e991:	90                   	nop    
    e992:	90                   	nop    
    e993:	90                   	nop    
    e994:	90                   	nop    
    e995:	90                   	nop    
    e996:	90                   	nop    
    e997:	90                   	nop    
    e998:	90                   	nop    
    e999:	90                   	nop    
    e99a:	90                   	nop    
    e99b:	90                   	nop    
    e99c:	90                   	nop    
    e99d:	90                   	nop    
    e99e:	90                   	nop    
    e99f:	90                   	nop    
    e9a0:	90                   	nop    
    e9a1:	90                   	nop    
    e9a2:	90                   	nop    
    e9a3:	90                   	nop    
    e9a4:	90                   	nop    
    e9a5:	90                   	nop    
    e9a6:	90                   	nop    
    e9a7:	90                   	nop    
    e9a8:	90                   	nop    
    e9a9:	90                   	nop    
    e9aa:	90                   	nop    
    e9ab:	90                   	nop    
    e9ac:	90                   	nop    
    e9ad:	90                   	nop    
    e9ae:	90                   	nop    
    e9af:	90                   	nop    
    e9b0:	90                   	nop    
    e9b1:	90                   	nop    
    e9b2:	90                   	nop    
    e9b3:	90                   	nop    
    e9b4:	90                   	nop    
    e9b5:	90                   	nop    
    e9b6:	90                   	nop    
    e9b7:	90                   	nop    
    e9b8:	90                   	nop    
    e9b9:	90                   	nop    
    e9ba:	90                   	nop    
    e9bb:	90                   	nop    
    e9bc:	90                   	nop    
    e9bd:	90                   	nop    
    e9be:	90                   	nop    
    e9bf:	90                   	nop    
    e9c0:	90                   	nop    
    e9c1:	90                   	nop    
    e9c2:	90                   	nop    
    e9c3:	90                   	nop    
    e9c4:	90                   	nop    
    e9c5:	90                   	nop    
    e9c6:	90                   	nop    
    e9c7:	90                   	nop    
    e9c8:	90                   	nop    
    e9c9:	90                   	nop    
    e9ca:	90                   	nop    
    e9cb:	90                   	nop    
    e9cc:	90                   	nop    
    e9cd:	90                   	nop    
    e9ce:	90                   	nop    
    e9cf:	90                   	nop    
    e9d0:	90                   	nop    
    e9d1:	90                   	nop    
    e9d2:	90                   	nop    
    e9d3:	90                   	nop    
    e9d4:	90                   	nop    
    e9d5:	90                   	nop    
    e9d6:	90                   	nop    
    e9d7:	90                   	nop    
    e9d8:	90                   	nop    
    e9d9:	90                   	nop    
    e9da:	90                   	nop    
    e9db:	90                   	nop    
    e9dc:	90                   	nop    
    e9dd:	90                   	nop    
    e9de:	90                   	nop    
    e9df:	90                   	nop    
    e9e0:	90                   	nop    
    e9e1:	90                   	nop    
    e9e2:	90                   	nop    
    e9e3:	90                   	nop    
    e9e4:	90                   	nop    
    e9e5:	90                   	nop    
    e9e6:	90                   	nop    
    e9e7:	90                   	nop    
    e9e8:	90                   	nop    
    e9e9:	90                   	nop    
    e9ea:	90                   	nop    
    e9eb:	90                   	nop    
    e9ec:	90                   	nop    
    e9ed:	90                   	nop    
    e9ee:	90                   	nop    
    e9ef:	90                   	nop    
    e9f0:	90                   	nop    
    e9f1:	90                   	nop    
    e9f2:	90                   	nop    
    e9f3:	90                   	nop    
    e9f4:	90                   	nop    
    e9f5:	90                   	nop    
    e9f6:	90                   	nop    
    e9f7:	90                   	nop    
    e9f8:	90                   	nop    
    e9f9:	90                   	nop    
    e9fa:	90                   	nop    
    e9fb:	90                   	nop    
    e9fc:	90                   	nop    
    e9fd:	90                   	nop    
    e9fe:	90                   	nop    
    e9ff:	90                   	nop    
    ea00:	90                   	nop    
    ea01:	90                   	nop    
    ea02:	90                   	nop    
    ea03:	90                   	nop    
    ea04:	90                   	nop    
    ea05:	90                   	nop    
    ea06:	90                   	nop    
    ea07:	90                   	nop    
    ea08:	90                   	nop    
    ea09:	90                   	nop    
    ea0a:	90                   	nop    
    ea0b:	90                   	nop    
    ea0c:	90                   	nop    
    ea0d:	90                   	nop    
    ea0e:	90                   	nop    
    ea0f:	90                   	nop    
    ea10:	90                   	nop    
    ea11:	90                   	nop    
    ea12:	90                   	nop    
    ea13:	90                   	nop    
    ea14:	90                   	nop    
    ea15:	90                   	nop    
    ea16:	90                   	nop    
    ea17:	90                   	nop    
    ea18:	90                   	nop    
    ea19:	90                   	nop    
    ea1a:	90                   	nop    
    ea1b:	90                   	nop    
    ea1c:	90                   	nop    
    ea1d:	90                   	nop    
    ea1e:	90                   	nop    
    ea1f:	90                   	nop    
    ea20:	90                   	nop    
    ea21:	90                   	nop    
    ea22:	90                   	nop    
    ea23:	90                   	nop    
    ea24:	90                   	nop    
    ea25:	90                   	nop    
    ea26:	90                   	nop    
    ea27:	90                   	nop    
    ea28:	90                   	nop    
    ea29:	90                   	nop    
    ea2a:	90                   	nop    
    ea2b:	90                   	nop    
    ea2c:	90                   	nop    
    ea2d:	90                   	nop    
    ea2e:	90                   	nop    
    ea2f:	90                   	nop    
    ea30:	90                   	nop    
    ea31:	90                   	nop    
    ea32:	90                   	nop    
    ea33:	90                   	nop    
    ea34:	90                   	nop    
    ea35:	90                   	nop    
    ea36:	90                   	nop    
    ea37:	90                   	nop    
    ea38:	90                   	nop    
    ea39:	90                   	nop    
    ea3a:	90                   	nop    
    ea3b:	90                   	nop    
    ea3c:	90                   	nop    
    ea3d:	90                   	nop    
    ea3e:	90                   	nop    
    ea3f:	90                   	nop    
    ea40:	90                   	nop    
    ea41:	90                   	nop    
    ea42:	90                   	nop    
    ea43:	90                   	nop    
    ea44:	90                   	nop    
    ea45:	90                   	nop    
    ea46:	90                   	nop    
    ea47:	90                   	nop    
    ea48:	90                   	nop    
    ea49:	90                   	nop    
    ea4a:	90                   	nop    
    ea4b:	90                   	nop    
    ea4c:	90                   	nop    
    ea4d:	90                   	nop    
    ea4e:	90                   	nop    
    ea4f:	90                   	nop    
    ea50:	90                   	nop    
    ea51:	90                   	nop    
    ea52:	90                   	nop    
    ea53:	90                   	nop    
    ea54:	90                   	nop    
    ea55:	90                   	nop    
    ea56:	90                   	nop    
    ea57:	90                   	nop    
    ea58:	90                   	nop    
    ea59:	90                   	nop    
    ea5a:	90                   	nop    
    ea5b:	90                   	nop    
    ea5c:	90                   	nop    
    ea5d:	90                   	nop    
    ea5e:	90                   	nop    
    ea5f:	90                   	nop    
    ea60:	90                   	nop    
    ea61:	90                   	nop    
    ea62:	90                   	nop    
    ea63:	90                   	nop    
    ea64:	90                   	nop    
    ea65:	90                   	nop    
    ea66:	90                   	nop    
    ea67:	90                   	nop    
    ea68:	90                   	nop    
    ea69:	90                   	nop    
    ea6a:	90                   	nop    
    ea6b:	90                   	nop    
    ea6c:	90                   	nop    
    ea6d:	90                   	nop    
    ea6e:	90                   	nop    
    ea6f:	90                   	nop    
    ea70:	90                   	nop    
    ea71:	90                   	nop    
    ea72:	90                   	nop    
    ea73:	90                   	nop    
    ea74:	90                   	nop    
    ea75:	90                   	nop    
    ea76:	90                   	nop    
    ea77:	90                   	nop    
    ea78:	90                   	nop    
    ea79:	90                   	nop    
    ea7a:	90                   	nop    
    ea7b:	90                   	nop    
    ea7c:	90                   	nop    
    ea7d:	90                   	nop    
    ea7e:	90                   	nop    
    ea7f:	90                   	nop    
    ea80:	90                   	nop    
    ea81:	90                   	nop    
    ea82:	90                   	nop    
    ea83:	90                   	nop    
    ea84:	90                   	nop    
    ea85:	90                   	nop    
    ea86:	90                   	nop    
    ea87:	90                   	nop    
    ea88:	90                   	nop    
    ea89:	90                   	nop    
    ea8a:	90                   	nop    
    ea8b:	90                   	nop    
    ea8c:	90                   	nop    
    ea8d:	90                   	nop    
    ea8e:	90                   	nop    
    ea8f:	90                   	nop    
    ea90:	90                   	nop    
    ea91:	90                   	nop    
    ea92:	90                   	nop    
    ea93:	90                   	nop    
    ea94:	90                   	nop    
    ea95:	90                   	nop    
    ea96:	90                   	nop    
    ea97:	90                   	nop    
    ea98:	90                   	nop    
    ea99:	90                   	nop    
    ea9a:	90                   	nop    
    ea9b:	90                   	nop    
    ea9c:	90                   	nop    
    ea9d:	90                   	nop    
    ea9e:	90                   	nop    
    ea9f:	90                   	nop    
    eaa0:	90                   	nop    
    eaa1:	90                   	nop    
    eaa2:	90                   	nop    
    eaa3:	90                   	nop    
    eaa4:	90                   	nop    
    eaa5:	90                   	nop    
    eaa6:	90                   	nop    
    eaa7:	90                   	nop    
    eaa8:	90                   	nop    
    eaa9:	90                   	nop    
    eaaa:	90                   	nop    
    eaab:	90                   	nop    
    eaac:	90                   	nop    
    eaad:	90                   	nop    
    eaae:	90                   	nop    
    eaaf:	90                   	nop    
    eab0:	90                   	nop    
    eab1:	90                   	nop    
    eab2:	90                   	nop    
    eab3:	90                   	nop    
    eab4:	90                   	nop    
    eab5:	90                   	nop    
    eab6:	90                   	nop    
    eab7:	90                   	nop    
    eab8:	90                   	nop    
    eab9:	90                   	nop    
    eaba:	90                   	nop    
    eabb:	90                   	nop    
    eabc:	90                   	nop    
    eabd:	90                   	nop    
    eabe:	90                   	nop    
    eabf:	90                   	nop    
    eac0:	90                   	nop    
    eac1:	90                   	nop    
    eac2:	90                   	nop    
    eac3:	90                   	nop    
    eac4:	90                   	nop    
    eac5:	90                   	nop    
    eac6:	90                   	nop    
    eac7:	90                   	nop    
    eac8:	90                   	nop    
    eac9:	90                   	nop    
    eaca:	90                   	nop    
    eacb:	90                   	nop    
    eacc:	90                   	nop    
    eacd:	90                   	nop    
    eace:	90                   	nop    
    eacf:	90                   	nop    
    ead0:	90                   	nop    
    ead1:	90                   	nop    
    ead2:	90                   	nop    
    ead3:	90                   	nop    
    ead4:	90                   	nop    
    ead5:	90                   	nop    
    ead6:	90                   	nop    
    ead7:	90                   	nop    
    ead8:	90                   	nop    
    ead9:	90                   	nop    
    eada:	90                   	nop    
    eadb:	90                   	nop    
    eadc:	90                   	nop    
    eadd:	90                   	nop    
    eade:	90                   	nop    
    eadf:	90                   	nop    
    eae0:	90                   	nop    
    eae1:	90                   	nop    
    eae2:	90                   	nop    
    eae3:	90                   	nop    
    eae4:	90                   	nop    
    eae5:	90                   	nop    
    eae6:	90                   	nop    
    eae7:	90                   	nop    
    eae8:	90                   	nop    
    eae9:	90                   	nop    
    eaea:	90                   	nop    
    eaeb:	90                   	nop    
    eaec:	90                   	nop    
    eaed:	90                   	nop    
    eaee:	90                   	nop    
    eaef:	90                   	nop    
    eaf0:	90                   	nop    
    eaf1:	90                   	nop    
    eaf2:	90                   	nop    
    eaf3:	90                   	nop    
    eaf4:	90                   	nop    
    eaf5:	90                   	nop    
    eaf6:	90                   	nop    
    eaf7:	90                   	nop    
    eaf8:	90                   	nop    
    eaf9:	90                   	nop    
    eafa:	90                   	nop    
    eafb:	90                   	nop    
    eafc:	90                   	nop    
    eafd:	90                   	nop    
    eafe:	90                   	nop    
    eaff:	90                   	nop    
    eb00:	90                   	nop    
    eb01:	90                   	nop    
    eb02:	90                   	nop    
    eb03:	90                   	nop    
    eb04:	90                   	nop    
    eb05:	90                   	nop    
    eb06:	90                   	nop    
    eb07:	90                   	nop    
    eb08:	90                   	nop    
    eb09:	90                   	nop    
    eb0a:	90                   	nop    
    eb0b:	90                   	nop    
    eb0c:	90                   	nop    
    eb0d:	90                   	nop    
    eb0e:	90                   	nop    
    eb0f:	90                   	nop    
    eb10:	90                   	nop    
    eb11:	90                   	nop    
    eb12:	90                   	nop    
    eb13:	90                   	nop    
    eb14:	90                   	nop    
    eb15:	90                   	nop    
    eb16:	90                   	nop    
    eb17:	90                   	nop    
    eb18:	90                   	nop    
    eb19:	90                   	nop    
    eb1a:	90                   	nop    
    eb1b:	90                   	nop    
    eb1c:	90                   	nop    
    eb1d:	90                   	nop    
    eb1e:	90                   	nop    
    eb1f:	90                   	nop    
    eb20:	90                   	nop    
    eb21:	90                   	nop    
    eb22:	90                   	nop    
    eb23:	90                   	nop    
    eb24:	90                   	nop    
    eb25:	90                   	nop    
    eb26:	90                   	nop    
    eb27:	90                   	nop    
    eb28:	90                   	nop    
    eb29:	90                   	nop    
    eb2a:	90                   	nop    
    eb2b:	90                   	nop    
    eb2c:	90                   	nop    
    eb2d:	90                   	nop    
    eb2e:	90                   	nop    
    eb2f:	90                   	nop    
    eb30:	90                   	nop    
    eb31:	90                   	nop    
    eb32:	90                   	nop    
    eb33:	90                   	nop    
    eb34:	90                   	nop    
    eb35:	90                   	nop    
    eb36:	90                   	nop    
    eb37:	90                   	nop    
    eb38:	90                   	nop    
    eb39:	90                   	nop    
    eb3a:	90                   	nop    
    eb3b:	90                   	nop    
    eb3c:	90                   	nop    
    eb3d:	90                   	nop    
    eb3e:	90                   	nop    
    eb3f:	90                   	nop    
    eb40:	90                   	nop    
    eb41:	90                   	nop    
    eb42:	90                   	nop    
    eb43:	90                   	nop    
    eb44:	90                   	nop    
    eb45:	90                   	nop    
    eb46:	90                   	nop    
    eb47:	90                   	nop    
    eb48:	90                   	nop    
    eb49:	90                   	nop    
    eb4a:	90                   	nop    
    eb4b:	90                   	nop    
    eb4c:	90                   	nop    
    eb4d:	90                   	nop    
    eb4e:	90                   	nop    
    eb4f:	90                   	nop    
    eb50:	90                   	nop    
    eb51:	90                   	nop    
    eb52:	90                   	nop    
    eb53:	90                   	nop    
    eb54:	90                   	nop    
    eb55:	90                   	nop    
    eb56:	90                   	nop    
    eb57:	90                   	nop    
    eb58:	90                   	nop    
    eb59:	90                   	nop    
    eb5a:	90                   	nop    
    eb5b:	90                   	nop    
    eb5c:	90                   	nop    
    eb5d:	90                   	nop    
    eb5e:	90                   	nop    
    eb5f:	90                   	nop    
    eb60:	90                   	nop    
    eb61:	90                   	nop    
    eb62:	90                   	nop    
    eb63:	90                   	nop    
    eb64:	90                   	nop    
    eb65:	90                   	nop    
    eb66:	90                   	nop    
    eb67:	90                   	nop    
    eb68:	90                   	nop    
    eb69:	90                   	nop    
    eb6a:	90                   	nop    
    eb6b:	90                   	nop    
    eb6c:	90                   	nop    
    eb6d:	90                   	nop    
    eb6e:	90                   	nop    
    eb6f:	90                   	nop    
    eb70:	90                   	nop    
    eb71:	90                   	nop    
    eb72:	90                   	nop    
    eb73:	90                   	nop    
    eb74:	90                   	nop    
    eb75:	90                   	nop    
    eb76:	90                   	nop    
    eb77:	90                   	nop    
    eb78:	90                   	nop    
    eb79:	90                   	nop    
    eb7a:	90                   	nop    
    eb7b:	90                   	nop    
    eb7c:	90                   	nop    
    eb7d:	90                   	nop    
    eb7e:	90                   	nop    
    eb7f:	90                   	nop    
    eb80:	90                   	nop    
    eb81:	90                   	nop    
    eb82:	90                   	nop    
    eb83:	90                   	nop    
    eb84:	90                   	nop    
    eb85:	90                   	nop    
    eb86:	90                   	nop    
    eb87:	90                   	nop    
    eb88:	90                   	nop    
    eb89:	90                   	nop    
    eb8a:	90                   	nop    
    eb8b:	90                   	nop    
    eb8c:	90                   	nop    
    eb8d:	90                   	nop    
    eb8e:	90                   	nop    
    eb8f:	90                   	nop    
    eb90:	90                   	nop    
    eb91:	90                   	nop    
    eb92:	90                   	nop    
    eb93:	90                   	nop    
    eb94:	90                   	nop    
    eb95:	90                   	nop    
    eb96:	90                   	nop    
    eb97:	90                   	nop    
    eb98:	90                   	nop    
    eb99:	90                   	nop    
    eb9a:	90                   	nop    
    eb9b:	90                   	nop    
    eb9c:	90                   	nop    
    eb9d:	90                   	nop    
    eb9e:	90                   	nop    
    eb9f:	90                   	nop    
    eba0:	90                   	nop    
    eba1:	90                   	nop    
    eba2:	90                   	nop    
    eba3:	90                   	nop    
    eba4:	90                   	nop    
    eba5:	90                   	nop    
    eba6:	90                   	nop    
    eba7:	90                   	nop    
    eba8:	90                   	nop    
    eba9:	90                   	nop    
    ebaa:	90                   	nop    
    ebab:	90                   	nop    
    ebac:	90                   	nop    
    ebad:	90                   	nop    
    ebae:	90                   	nop    
    ebaf:	90                   	nop    
    ebb0:	90                   	nop    
    ebb1:	90                   	nop    
    ebb2:	90                   	nop    
    ebb3:	90                   	nop    
    ebb4:	90                   	nop    
    ebb5:	90                   	nop    
    ebb6:	90                   	nop    
    ebb7:	90                   	nop    
    ebb8:	90                   	nop    
    ebb9:	90                   	nop    
    ebba:	90                   	nop    
    ebbb:	90                   	nop    
    ebbc:	90                   	nop    
    ebbd:	90                   	nop    
    ebbe:	90                   	nop    
    ebbf:	90                   	nop    
    ebc0:	90                   	nop    
    ebc1:	90                   	nop    
    ebc2:	90                   	nop    
    ebc3:	90                   	nop    
    ebc4:	90                   	nop    
    ebc5:	90                   	nop    
    ebc6:	90                   	nop    
    ebc7:	90                   	nop    
    ebc8:	90                   	nop    
    ebc9:	90                   	nop    
    ebca:	90                   	nop    
    ebcb:	90                   	nop    
    ebcc:	90                   	nop    
    ebcd:	90                   	nop    
    ebce:	90                   	nop    
    ebcf:	90                   	nop    
    ebd0:	90                   	nop    
    ebd1:	90                   	nop    
    ebd2:	90                   	nop    
    ebd3:	90                   	nop    
    ebd4:	90                   	nop    
    ebd5:	90                   	nop    
    ebd6:	90                   	nop    
    ebd7:	90                   	nop    
    ebd8:	90                   	nop    
    ebd9:	90                   	nop    
    ebda:	90                   	nop    
    ebdb:	90                   	nop    
    ebdc:	90                   	nop    
    ebdd:	90                   	nop    
    ebde:	90                   	nop    
    ebdf:	90                   	nop    
    ebe0:	90                   	nop    
    ebe1:	90                   	nop    
    ebe2:	90                   	nop    
    ebe3:	90                   	nop    
    ebe4:	90                   	nop    
    ebe5:	90                   	nop    
    ebe6:	90                   	nop    
    ebe7:	90                   	nop    
    ebe8:	90                   	nop    
    ebe9:	90                   	nop    
    ebea:	90                   	nop    
    ebeb:	90                   	nop    
    ebec:	90                   	nop    
    ebed:	90                   	nop    
    ebee:	90                   	nop    
    ebef:	90                   	nop    
    ebf0:	90                   	nop    
    ebf1:	90                   	nop    
    ebf2:	90                   	nop    
    ebf3:	90                   	nop    
    ebf4:	90                   	nop    
    ebf5:	90                   	nop    
    ebf6:	90                   	nop    
    ebf7:	90                   	nop    
    ebf8:	90                   	nop    
    ebf9:	90                   	nop    
    ebfa:	90                   	nop    
    ebfb:	90                   	nop    
    ebfc:	90                   	nop    
    ebfd:	90                   	nop    
    ebfe:	90                   	nop    
    ebff:	90                   	nop    
    ec00:	90                   	nop    
    ec01:	90                   	nop    
    ec02:	90                   	nop    
    ec03:	90                   	nop    
    ec04:	90                   	nop    
    ec05:	90                   	nop    
    ec06:	90                   	nop    
    ec07:	90                   	nop    
    ec08:	90                   	nop    
    ec09:	90                   	nop    
    ec0a:	90                   	nop    
    ec0b:	90                   	nop    
    ec0c:	90                   	nop    
    ec0d:	90                   	nop    
    ec0e:	90                   	nop    
    ec0f:	90                   	nop    
    ec10:	90                   	nop    
    ec11:	90                   	nop    
    ec12:	90                   	nop    
    ec13:	90                   	nop    
    ec14:	90                   	nop    
    ec15:	90                   	nop    
    ec16:	90                   	nop    
    ec17:	90                   	nop    
    ec18:	90                   	nop    
    ec19:	90                   	nop    
    ec1a:	90                   	nop    
    ec1b:	90                   	nop    
    ec1c:	90                   	nop    
    ec1d:	90                   	nop    
    ec1e:	90                   	nop    
    ec1f:	90                   	nop    
    ec20:	90                   	nop    
    ec21:	90                   	nop    
    ec22:	90                   	nop    
    ec23:	90                   	nop    
    ec24:	90                   	nop    
    ec25:	90                   	nop    
    ec26:	90                   	nop    
    ec27:	90                   	nop    
    ec28:	90                   	nop    
    ec29:	90                   	nop    
    ec2a:	90                   	nop    
    ec2b:	90                   	nop    
    ec2c:	90                   	nop    
    ec2d:	90                   	nop    
    ec2e:	90                   	nop    
    ec2f:	90                   	nop    
    ec30:	90                   	nop    
    ec31:	90                   	nop    
    ec32:	90                   	nop    
    ec33:	90                   	nop    
    ec34:	90                   	nop    
    ec35:	90                   	nop    
    ec36:	90                   	nop    
    ec37:	90                   	nop    
    ec38:	90                   	nop    
    ec39:	90                   	nop    
    ec3a:	90                   	nop    
    ec3b:	90                   	nop    
    ec3c:	90                   	nop    
    ec3d:	90                   	nop    
    ec3e:	90                   	nop    
    ec3f:	90                   	nop    
    ec40:	90                   	nop    
    ec41:	90                   	nop    
    ec42:	90                   	nop    
    ec43:	90                   	nop    
    ec44:	90                   	nop    
    ec45:	90                   	nop    
    ec46:	90                   	nop    
    ec47:	90                   	nop    
    ec48:	90                   	nop    
    ec49:	90                   	nop    
    ec4a:	90                   	nop    
    ec4b:	90                   	nop    
    ec4c:	90                   	nop    
    ec4d:	90                   	nop    
    ec4e:	90                   	nop    
    ec4f:	90                   	nop    
    ec50:	90                   	nop    
    ec51:	90                   	nop    
    ec52:	90                   	nop    
    ec53:	90                   	nop    
    ec54:	90                   	nop    
    ec55:	90                   	nop    
    ec56:	90                   	nop    
    ec57:	90                   	nop    
    ec58:	90                   	nop    
    ec59:	90                   	nop    
    ec5a:	90                   	nop    
    ec5b:	90                   	nop    
    ec5c:	90                   	nop    
    ec5d:	90                   	nop    
    ec5e:	90                   	nop    
    ec5f:	90                   	nop    
    ec60:	90                   	nop    
    ec61:	90                   	nop    
    ec62:	90                   	nop    
    ec63:	90                   	nop    
    ec64:	90                   	nop    
    ec65:	90                   	nop    
    ec66:	90                   	nop    
    ec67:	90                   	nop    
    ec68:	90                   	nop    
    ec69:	90                   	nop    
    ec6a:	90                   	nop    
    ec6b:	90                   	nop    
    ec6c:	90                   	nop    
    ec6d:	90                   	nop    
    ec6e:	90                   	nop    
    ec6f:	90                   	nop    
    ec70:	90                   	nop    
    ec71:	90                   	nop    
    ec72:	90                   	nop    
    ec73:	90                   	nop    
    ec74:	90                   	nop    
    ec75:	90                   	nop    
    ec76:	90                   	nop    
    ec77:	90                   	nop    
    ec78:	90                   	nop    
    ec79:	90                   	nop    
    ec7a:	90                   	nop    
    ec7b:	90                   	nop    
    ec7c:	90                   	nop    
    ec7d:	90                   	nop    
    ec7e:	90                   	nop    
    ec7f:	90                   	nop    
    ec80:	90                   	nop    
    ec81:	90                   	nop    
    ec82:	90                   	nop    
    ec83:	90                   	nop    
    ec84:	90                   	nop    
    ec85:	90                   	nop    
    ec86:	90                   	nop    
    ec87:	90                   	nop    
    ec88:	90                   	nop    
    ec89:	90                   	nop    
    ec8a:	90                   	nop    
    ec8b:	90                   	nop    
    ec8c:	90                   	nop    
    ec8d:	90                   	nop    
    ec8e:	90                   	nop    
    ec8f:	90                   	nop    
    ec90:	90                   	nop    
    ec91:	90                   	nop    
    ec92:	90                   	nop    
    ec93:	90                   	nop    
    ec94:	90                   	nop    
    ec95:	90                   	nop    
    ec96:	90                   	nop    
    ec97:	90                   	nop    
    ec98:	90                   	nop    
    ec99:	90                   	nop    
    ec9a:	90                   	nop    
    ec9b:	90                   	nop    
    ec9c:	90                   	nop    
    ec9d:	90                   	nop    
    ec9e:	90                   	nop    
    ec9f:	90                   	nop    
    eca0:	90                   	nop    
    eca1:	90                   	nop    
    eca2:	90                   	nop    
    eca3:	90                   	nop    
    eca4:	90                   	nop    
    eca5:	90                   	nop    
    eca6:	90                   	nop    
    eca7:	90                   	nop    
    eca8:	90                   	nop    
    eca9:	90                   	nop    
    ecaa:	90                   	nop    
    ecab:	90                   	nop    
    ecac:	90                   	nop    
    ecad:	90                   	nop    
    ecae:	90                   	nop    
    ecaf:	90                   	nop    
    ecb0:	90                   	nop    
    ecb1:	90                   	nop    
    ecb2:	90                   	nop    
    ecb3:	90                   	nop    
    ecb4:	90                   	nop    
    ecb5:	90                   	nop    
    ecb6:	90                   	nop    
    ecb7:	90                   	nop    
    ecb8:	90                   	nop    
    ecb9:	90                   	nop    
    ecba:	90                   	nop    
    ecbb:	90                   	nop    
    ecbc:	90                   	nop    
    ecbd:	90                   	nop    
    ecbe:	90                   	nop    
    ecbf:	90                   	nop    
    ecc0:	90                   	nop    
    ecc1:	90                   	nop    
    ecc2:	90                   	nop    
    ecc3:	90                   	nop    
    ecc4:	90                   	nop    
    ecc5:	90                   	nop    
    ecc6:	90                   	nop    
    ecc7:	90                   	nop    
    ecc8:	90                   	nop    
    ecc9:	90                   	nop    
    ecca:	90                   	nop    
    eccb:	90                   	nop    
    eccc:	90                   	nop    
    eccd:	90                   	nop    
    ecce:	90                   	nop    
    eccf:	90                   	nop    
    ecd0:	90                   	nop    
    ecd1:	90                   	nop    
    ecd2:	90                   	nop    
    ecd3:	90                   	nop    
    ecd4:	90                   	nop    
    ecd5:	90                   	nop    
    ecd6:	90                   	nop    
    ecd7:	90                   	nop    
    ecd8:	90                   	nop    
    ecd9:	90                   	nop    
    ecda:	90                   	nop    
    ecdb:	90                   	nop    
    ecdc:	90                   	nop    
    ecdd:	90                   	nop    
    ecde:	90                   	nop    
    ecdf:	90                   	nop    
    ece0:	90                   	nop    
    ece1:	90                   	nop    
    ece2:	90                   	nop    
    ece3:	90                   	nop    
    ece4:	90                   	nop    
    ece5:	90                   	nop    
    ece6:	90                   	nop    
    ece7:	90                   	nop    
    ece8:	90                   	nop    
    ece9:	90                   	nop    
    ecea:	90                   	nop    
    eceb:	90                   	nop    
    ecec:	90                   	nop    
    eced:	90                   	nop    
    ecee:	90                   	nop    
    ecef:	90                   	nop    
    ecf0:	90                   	nop    
    ecf1:	90                   	nop    
    ecf2:	90                   	nop    
    ecf3:	90                   	nop    
    ecf4:	90                   	nop    
    ecf5:	90                   	nop    
    ecf6:	90                   	nop    
    ecf7:	90                   	nop    
    ecf8:	90                   	nop    
    ecf9:	90                   	nop    
    ecfa:	90                   	nop    
    ecfb:	90                   	nop    
    ecfc:	90                   	nop    
    ecfd:	90                   	nop    
    ecfe:	90                   	nop    
    ecff:	90                   	nop    
    ed00:	90                   	nop    
    ed01:	90                   	nop    
    ed02:	90                   	nop    
    ed03:	90                   	nop    
    ed04:	90                   	nop    
    ed05:	90                   	nop    
    ed06:	90                   	nop    
    ed07:	90                   	nop    
    ed08:	90                   	nop    
    ed09:	90                   	nop    
    ed0a:	90                   	nop    
    ed0b:	90                   	nop    
    ed0c:	90                   	nop    
    ed0d:	90                   	nop    
    ed0e:	90                   	nop    
    ed0f:	90                   	nop    
    ed10:	90                   	nop    
    ed11:	90                   	nop    
    ed12:	90                   	nop    
    ed13:	90                   	nop    
    ed14:	90                   	nop    
    ed15:	90                   	nop    
    ed16:	90                   	nop    
    ed17:	90                   	nop    
    ed18:	90                   	nop    
    ed19:	90                   	nop    
    ed1a:	90                   	nop    
    ed1b:	90                   	nop    
    ed1c:	90                   	nop    
    ed1d:	90                   	nop    
    ed1e:	90                   	nop    
    ed1f:	90                   	nop    
    ed20:	90                   	nop    
    ed21:	90                   	nop    
    ed22:	90                   	nop    
    ed23:	90                   	nop    
    ed24:	90                   	nop    
    ed25:	90                   	nop    
    ed26:	90                   	nop    
    ed27:	90                   	nop    
    ed28:	90                   	nop    
    ed29:	90                   	nop    
    ed2a:	90                   	nop    
    ed2b:	90                   	nop    
    ed2c:	90                   	nop    
    ed2d:	90                   	nop    
    ed2e:	90                   	nop    
    ed2f:	90                   	nop    
    ed30:	90                   	nop    
    ed31:	90                   	nop    
    ed32:	90                   	nop    
    ed33:	90                   	nop    
    ed34:	90                   	nop    
    ed35:	90                   	nop    
    ed36:	90                   	nop    
    ed37:	90                   	nop    
    ed38:	90                   	nop    
    ed39:	90                   	nop    
    ed3a:	90                   	nop    
    ed3b:	90                   	nop    
    ed3c:	90                   	nop    
    ed3d:	90                   	nop    
    ed3e:	90                   	nop    
    ed3f:	90                   	nop    
    ed40:	90                   	nop    
    ed41:	90                   	nop    
    ed42:	90                   	nop    
    ed43:	90                   	nop    
    ed44:	90                   	nop    
    ed45:	90                   	nop    
    ed46:	90                   	nop    
    ed47:	90                   	nop    
    ed48:	90                   	nop    
    ed49:	90                   	nop    
    ed4a:	90                   	nop    
    ed4b:	90                   	nop    
    ed4c:	90                   	nop    
    ed4d:	90                   	nop    
    ed4e:	90                   	nop    
    ed4f:	90                   	nop    
    ed50:	90                   	nop    
    ed51:	90                   	nop    
    ed52:	90                   	nop    
    ed53:	90                   	nop    
    ed54:	90                   	nop    
    ed55:	90                   	nop    
    ed56:	90                   	nop    
    ed57:	90                   	nop    
    ed58:	90                   	nop    
    ed59:	90                   	nop    
    ed5a:	90                   	nop    
    ed5b:	90                   	nop    
    ed5c:	90                   	nop    
    ed5d:	90                   	nop    
    ed5e:	90                   	nop    
    ed5f:	90                   	nop    
    ed60:	90                   	nop    
    ed61:	90                   	nop    
    ed62:	90                   	nop    
    ed63:	90                   	nop    
    ed64:	90                   	nop    
    ed65:	90                   	nop    
    ed66:	90                   	nop    
    ed67:	90                   	nop    
    ed68:	90                   	nop    
    ed69:	90                   	nop    
    ed6a:	90                   	nop    
    ed6b:	90                   	nop    
    ed6c:	90                   	nop    
    ed6d:	90                   	nop    
    ed6e:	90                   	nop    
    ed6f:	90                   	nop    
    ed70:	90                   	nop    
    ed71:	90                   	nop    
    ed72:	90                   	nop    
    ed73:	90                   	nop    
    ed74:	90                   	nop    
    ed75:	90                   	nop    
    ed76:	90                   	nop    
    ed77:	90                   	nop    
    ed78:	90                   	nop    
    ed79:	90                   	nop    
    ed7a:	90                   	nop    
    ed7b:	90                   	nop    
    ed7c:	90                   	nop    
    ed7d:	90                   	nop    
    ed7e:	90                   	nop    
    ed7f:	90                   	nop    
    ed80:	90                   	nop    
    ed81:	90                   	nop    
    ed82:	90                   	nop    
    ed83:	90                   	nop    
    ed84:	90                   	nop    
    ed85:	90                   	nop    
    ed86:	90                   	nop    
    ed87:	90                   	nop    
    ed88:	90                   	nop    
    ed89:	90                   	nop    
    ed8a:	90                   	nop    
    ed8b:	90                   	nop    
    ed8c:	90                   	nop    
    ed8d:	90                   	nop    
    ed8e:	90                   	nop    
    ed8f:	90                   	nop    
    ed90:	90                   	nop    
    ed91:	90                   	nop    
    ed92:	90                   	nop    
    ed93:	90                   	nop    
    ed94:	90                   	nop    
    ed95:	90                   	nop    
    ed96:	90                   	nop    
    ed97:	90                   	nop    
    ed98:	90                   	nop    
    ed99:	90                   	nop    
    ed9a:	90                   	nop    
    ed9b:	90                   	nop    
    ed9c:	90                   	nop    
    ed9d:	90                   	nop    
    ed9e:	90                   	nop    
    ed9f:	90                   	nop    
    eda0:	90                   	nop    
    eda1:	90                   	nop    
    eda2:	90                   	nop    
    eda3:	90                   	nop    
    eda4:	90                   	nop    
    eda5:	90                   	nop    
    eda6:	90                   	nop    
    eda7:	90                   	nop    
    eda8:	90                   	nop    
    eda9:	90                   	nop    
    edaa:	90                   	nop    
    edab:	90                   	nop    
    edac:	90                   	nop    
    edad:	90                   	nop    
    edae:	90                   	nop    
    edaf:	90                   	nop    
    edb0:	90                   	nop    
    edb1:	90                   	nop    
    edb2:	90                   	nop    
    edb3:	90                   	nop    
    edb4:	90                   	nop    
    edb5:	90                   	nop    
    edb6:	90                   	nop    
    edb7:	90                   	nop    
    edb8:	90                   	nop    
    edb9:	90                   	nop    
    edba:	90                   	nop    
    edbb:	90                   	nop    
    edbc:	90                   	nop    
    edbd:	90                   	nop    
    edbe:	90                   	nop    
    edbf:	90                   	nop    
    edc0:	90                   	nop    
    edc1:	90                   	nop    
    edc2:	90                   	nop    
    edc3:	90                   	nop    
    edc4:	90                   	nop    
    edc5:	90                   	nop    
    edc6:	90                   	nop    
    edc7:	90                   	nop    
    edc8:	90                   	nop    
    edc9:	90                   	nop    
    edca:	90                   	nop    
    edcb:	90                   	nop    
    edcc:	90                   	nop    
    edcd:	90                   	nop    
    edce:	90                   	nop    
    edcf:	90                   	nop    
    edd0:	90                   	nop    
    edd1:	90                   	nop    
    edd2:	90                   	nop    
    edd3:	90                   	nop    
    edd4:	90                   	nop    
    edd5:	90                   	nop    
    edd6:	90                   	nop    
    edd7:	90                   	nop    
    edd8:	90                   	nop    
    edd9:	90                   	nop    
    edda:	90                   	nop    
    eddb:	90                   	nop    
    eddc:	90                   	nop    
    eddd:	90                   	nop    
    edde:	90                   	nop    
    eddf:	90                   	nop    
    ede0:	90                   	nop    
    ede1:	90                   	nop    
    ede2:	90                   	nop    
    ede3:	90                   	nop    
    ede4:	90                   	nop    
    ede5:	90                   	nop    
    ede6:	90                   	nop    
    ede7:	90                   	nop    
    ede8:	90                   	nop    
    ede9:	90                   	nop    
    edea:	90                   	nop    
    edeb:	90                   	nop    
    edec:	90                   	nop    
    eded:	90                   	nop    
    edee:	90                   	nop    
    edef:	90                   	nop    
    edf0:	90                   	nop    
    edf1:	90                   	nop    
    edf2:	90                   	nop    
    edf3:	90                   	nop    
    edf4:	90                   	nop    
    edf5:	90                   	nop    
    edf6:	90                   	nop    
    edf7:	90                   	nop    
    edf8:	90                   	nop    
    edf9:	90                   	nop    
    edfa:	90                   	nop    
    edfb:	90                   	nop    
    edfc:	90                   	nop    
    edfd:	90                   	nop    
    edfe:	90                   	nop    
    edff:	90                   	nop    
    ee00:	90                   	nop    
    ee01:	90                   	nop    
    ee02:	90                   	nop    
    ee03:	90                   	nop    
    ee04:	90                   	nop    
    ee05:	90                   	nop    
    ee06:	90                   	nop    
    ee07:	90                   	nop    
    ee08:	90                   	nop    
    ee09:	90                   	nop    
    ee0a:	90                   	nop    
    ee0b:	90                   	nop    
    ee0c:	90                   	nop    
    ee0d:	90                   	nop    
    ee0e:	90                   	nop    
    ee0f:	90                   	nop    
    ee10:	90                   	nop    
    ee11:	90                   	nop    
    ee12:	90                   	nop    
    ee13:	90                   	nop    
    ee14:	90                   	nop    
    ee15:	90                   	nop    
    ee16:	90                   	nop    
    ee17:	90                   	nop    
    ee18:	90                   	nop    
    ee19:	90                   	nop    
    ee1a:	90                   	nop    
    ee1b:	90                   	nop    
    ee1c:	90                   	nop    
    ee1d:	90                   	nop    
    ee1e:	90                   	nop    
    ee1f:	90                   	nop    
    ee20:	90                   	nop    
    ee21:	90                   	nop    
    ee22:	90                   	nop    
    ee23:	90                   	nop    
    ee24:	90                   	nop    
    ee25:	90                   	nop    
    ee26:	90                   	nop    
    ee27:	90                   	nop    
    ee28:	90                   	nop    
    ee29:	90                   	nop    
    ee2a:	90                   	nop    
    ee2b:	90                   	nop    
    ee2c:	90                   	nop    
    ee2d:	90                   	nop    
    ee2e:	90                   	nop    
    ee2f:	90                   	nop    
    ee30:	90                   	nop    
    ee31:	90                   	nop    
    ee32:	90                   	nop    
    ee33:	90                   	nop    
    ee34:	90                   	nop    
    ee35:	90                   	nop    
    ee36:	90                   	nop    
    ee37:	90                   	nop    
    ee38:	90                   	nop    
    ee39:	90                   	nop    
    ee3a:	90                   	nop    
    ee3b:	90                   	nop    
    ee3c:	90                   	nop    
    ee3d:	90                   	nop    
    ee3e:	90                   	nop    
    ee3f:	90                   	nop    
    ee40:	90                   	nop    
    ee41:	90                   	nop    
    ee42:	90                   	nop    
    ee43:	90                   	nop    
    ee44:	90                   	nop    
    ee45:	90                   	nop    
    ee46:	90                   	nop    
    ee47:	90                   	nop    
    ee48:	90                   	nop    
    ee49:	90                   	nop    
    ee4a:	90                   	nop    
    ee4b:	90                   	nop    
    ee4c:	90                   	nop    
    ee4d:	90                   	nop    
    ee4e:	90                   	nop    
    ee4f:	90                   	nop    
    ee50:	90                   	nop    
    ee51:	90                   	nop    
    ee52:	90                   	nop    
    ee53:	90                   	nop    
    ee54:	90                   	nop    
    ee55:	90                   	nop    
    ee56:	90                   	nop    
    ee57:	90                   	nop    
    ee58:	90                   	nop    
    ee59:	90                   	nop    
    ee5a:	90                   	nop    
    ee5b:	90                   	nop    
    ee5c:	90                   	nop    
    ee5d:	90                   	nop    
    ee5e:	90                   	nop    
    ee5f:	90                   	nop    
    ee60:	90                   	nop    
    ee61:	90                   	nop    
    ee62:	90                   	nop    
    ee63:	90                   	nop    
    ee64:	90                   	nop    
    ee65:	90                   	nop    
    ee66:	90                   	nop    
    ee67:	90                   	nop    
    ee68:	90                   	nop    
    ee69:	90                   	nop    
    ee6a:	90                   	nop    
    ee6b:	90                   	nop    
    ee6c:	90                   	nop    
    ee6d:	90                   	nop    
    ee6e:	90                   	nop    
    ee6f:	90                   	nop    
    ee70:	90                   	nop    
    ee71:	90                   	nop    
    ee72:	90                   	nop    
    ee73:	90                   	nop    
    ee74:	90                   	nop    
    ee75:	90                   	nop    
    ee76:	90                   	nop    
    ee77:	90                   	nop    
    ee78:	90                   	nop    
    ee79:	90                   	nop    
    ee7a:	90                   	nop    
    ee7b:	90                   	nop    
    ee7c:	90                   	nop    
    ee7d:	90                   	nop    
    ee7e:	90                   	nop    
    ee7f:	90                   	nop    
    ee80:	90                   	nop    
    ee81:	90                   	nop    
    ee82:	90                   	nop    
    ee83:	90                   	nop    
    ee84:	90                   	nop    
    ee85:	90                   	nop    
    ee86:	90                   	nop    
    ee87:	90                   	nop    
    ee88:	90                   	nop    
    ee89:	90                   	nop    
    ee8a:	90                   	nop    
    ee8b:	90                   	nop    
    ee8c:	90                   	nop    
    ee8d:	90                   	nop    
    ee8e:	90                   	nop    
    ee8f:	90                   	nop    
    ee90:	90                   	nop    
    ee91:	90                   	nop    
    ee92:	90                   	nop    
    ee93:	90                   	nop    
    ee94:	90                   	nop    
    ee95:	90                   	nop    
    ee96:	90                   	nop    
    ee97:	90                   	nop    
    ee98:	90                   	nop    
    ee99:	90                   	nop    
    ee9a:	90                   	nop    
    ee9b:	90                   	nop    
    ee9c:	90                   	nop    
    ee9d:	90                   	nop    
    ee9e:	90                   	nop    
    ee9f:	90                   	nop    
    eea0:	90                   	nop    
    eea1:	90                   	nop    
    eea2:	90                   	nop    
    eea3:	90                   	nop    
    eea4:	90                   	nop    
    eea5:	90                   	nop    
    eea6:	90                   	nop    
    eea7:	90                   	nop    
    eea8:	90                   	nop    
    eea9:	90                   	nop    
    eeaa:	90                   	nop    
    eeab:	90                   	nop    
    eeac:	90                   	nop    
    eead:	90                   	nop    
    eeae:	90                   	nop    
    eeaf:	90                   	nop    
    eeb0:	90                   	nop    
    eeb1:	90                   	nop    
    eeb2:	90                   	nop    
    eeb3:	90                   	nop    
    eeb4:	90                   	nop    
    eeb5:	90                   	nop    
    eeb6:	90                   	nop    
    eeb7:	90                   	nop    
    eeb8:	90                   	nop    
    eeb9:	90                   	nop    
    eeba:	90                   	nop    
    eebb:	90                   	nop    
    eebc:	90                   	nop    
    eebd:	90                   	nop    
    eebe:	90                   	nop    
    eebf:	90                   	nop    
    eec0:	90                   	nop    
    eec1:	90                   	nop    
    eec2:	90                   	nop    
    eec3:	90                   	nop    
    eec4:	90                   	nop    
    eec5:	90                   	nop    
    eec6:	90                   	nop    
    eec7:	90                   	nop    
    eec8:	90                   	nop    
    eec9:	90                   	nop    
    eeca:	90                   	nop    
    eecb:	90                   	nop    
    eecc:	90                   	nop    
    eecd:	90                   	nop    
    eece:	90                   	nop    
    eecf:	90                   	nop    
    eed0:	90                   	nop    
    eed1:	90                   	nop    
    eed2:	90                   	nop    
    eed3:	90                   	nop    
    eed4:	90                   	nop    
    eed5:	90                   	nop    
    eed6:	90                   	nop    
    eed7:	90                   	nop    
    eed8:	90                   	nop    
    eed9:	90                   	nop    
    eeda:	90                   	nop    
    eedb:	90                   	nop    
    eedc:	90                   	nop    
    eedd:	90                   	nop    
    eede:	90                   	nop    
    eedf:	90                   	nop    
    eee0:	90                   	nop    
    eee1:	90                   	nop    
    eee2:	90                   	nop    
    eee3:	90                   	nop    
    eee4:	90                   	nop    
    eee5:	90                   	nop    
    eee6:	90                   	nop    
    eee7:	90                   	nop    
    eee8:	90                   	nop    
    eee9:	90                   	nop    
    eeea:	90                   	nop    
    eeeb:	90                   	nop    
    eeec:	90                   	nop    
    eeed:	90                   	nop    
    eeee:	90                   	nop    
    eeef:	90                   	nop    
    eef0:	90                   	nop    
    eef1:	90                   	nop    
    eef2:	90                   	nop    
    eef3:	90                   	nop    
    eef4:	90                   	nop    
    eef5:	90                   	nop    
    eef6:	90                   	nop    
    eef7:	90                   	nop    
    eef8:	90                   	nop    
    eef9:	90                   	nop    
    eefa:	90                   	nop    
    eefb:	90                   	nop    
    eefc:	90                   	nop    
    eefd:	90                   	nop    
    eefe:	90                   	nop    
    eeff:	90                   	nop    
    ef00:	90                   	nop    
    ef01:	90                   	nop    
    ef02:	90                   	nop    
    ef03:	90                   	nop    
    ef04:	90                   	nop    
    ef05:	90                   	nop    
    ef06:	90                   	nop    
    ef07:	90                   	nop    
    ef08:	90                   	nop    
    ef09:	90                   	nop    
    ef0a:	90                   	nop    
    ef0b:	90                   	nop    
    ef0c:	90                   	nop    
    ef0d:	90                   	nop    
    ef0e:	90                   	nop    
    ef0f:	90                   	nop    
    ef10:	90                   	nop    
    ef11:	90                   	nop    
    ef12:	90                   	nop    
    ef13:	90                   	nop    
    ef14:	90                   	nop    
    ef15:	90                   	nop    
    ef16:	90                   	nop    
    ef17:	90                   	nop    
    ef18:	90                   	nop    
    ef19:	90                   	nop    
    ef1a:	90                   	nop    
    ef1b:	90                   	nop    
    ef1c:	90                   	nop    
    ef1d:	90                   	nop    
    ef1e:	90                   	nop    
    ef1f:	90                   	nop    
    ef20:	90                   	nop    
    ef21:	90                   	nop    
    ef22:	90                   	nop    
    ef23:	90                   	nop    
    ef24:	90                   	nop    
    ef25:	90                   	nop    
    ef26:	90                   	nop    
    ef27:	90                   	nop    
    ef28:	90                   	nop    
    ef29:	90                   	nop    
    ef2a:	90                   	nop    
    ef2b:	90                   	nop    
    ef2c:	90                   	nop    
    ef2d:	90                   	nop    
    ef2e:	90                   	nop    
    ef2f:	90                   	nop    
    ef30:	90                   	nop    
    ef31:	90                   	nop    
    ef32:	90                   	nop    
    ef33:	90                   	nop    
    ef34:	90                   	nop    
    ef35:	90                   	nop    
    ef36:	90                   	nop    
    ef37:	90                   	nop    
    ef38:	90                   	nop    
    ef39:	90                   	nop    
    ef3a:	90                   	nop    
    ef3b:	90                   	nop    
    ef3c:	90                   	nop    
    ef3d:	90                   	nop    
    ef3e:	90                   	nop    
    ef3f:	90                   	nop    
    ef40:	90                   	nop    
    ef41:	90                   	nop    
    ef42:	90                   	nop    
    ef43:	90                   	nop    
    ef44:	90                   	nop    
    ef45:	90                   	nop    
    ef46:	90                   	nop    
    ef47:	90                   	nop    
    ef48:	90                   	nop    
    ef49:	90                   	nop    
    ef4a:	90                   	nop    
    ef4b:	90                   	nop    
    ef4c:	90                   	nop    
    ef4d:	90                   	nop    
    ef4e:	90                   	nop    
    ef4f:	90                   	nop    
    ef50:	90                   	nop    
    ef51:	90                   	nop    
    ef52:	90                   	nop    
    ef53:	90                   	nop    
    ef54:	90                   	nop    
    ef55:	90                   	nop    
    ef56:	90                   	nop    
    ef57:	90                   	nop    
    ef58:	90                   	nop    
    ef59:	90                   	nop    
    ef5a:	90                   	nop    
    ef5b:	90                   	nop    
    ef5c:	90                   	nop    
    ef5d:	90                   	nop    
    ef5e:	90                   	nop    
    ef5f:	90                   	nop    
    ef60:	90                   	nop    
    ef61:	90                   	nop    
    ef62:	90                   	nop    
    ef63:	90                   	nop    
    ef64:	90                   	nop    
    ef65:	90                   	nop    
    ef66:	90                   	nop    
    ef67:	90                   	nop    
    ef68:	90                   	nop    
    ef69:	90                   	nop    
    ef6a:	90                   	nop    
    ef6b:	90                   	nop    
    ef6c:	90                   	nop    
    ef6d:	90                   	nop    
    ef6e:	90                   	nop    
    ef6f:	90                   	nop    
    ef70:	90                   	nop    
    ef71:	90                   	nop    
    ef72:	90                   	nop    
    ef73:	90                   	nop    
    ef74:	90                   	nop    
    ef75:	90                   	nop    
    ef76:	90                   	nop    
    ef77:	90                   	nop    
    ef78:	90                   	nop    
    ef79:	90                   	nop    
    ef7a:	90                   	nop    
    ef7b:	90                   	nop    
    ef7c:	90                   	nop    
    ef7d:	90                   	nop    
    ef7e:	90                   	nop    
    ef7f:	90                   	nop    
    ef80:	90                   	nop    
    ef81:	90                   	nop    
    ef82:	90                   	nop    
    ef83:	90                   	nop    
    ef84:	90                   	nop    
    ef85:	90                   	nop    
    ef86:	90                   	nop    
    ef87:	90                   	nop    
    ef88:	90                   	nop    
    ef89:	90                   	nop    
    ef8a:	90                   	nop    
    ef8b:	90                   	nop    
    ef8c:	90                   	nop    
    ef8d:	90                   	nop    
    ef8e:	90                   	nop    
    ef8f:	90                   	nop    
    ef90:	90                   	nop    
    ef91:	90                   	nop    
    ef92:	90                   	nop    
    ef93:	90                   	nop    
    ef94:	90                   	nop    
    ef95:	90                   	nop    
    ef96:	90                   	nop    
    ef97:	90                   	nop    
    ef98:	90                   	nop    
    ef99:	90                   	nop    
    ef9a:	90                   	nop    
    ef9b:	90                   	nop    
    ef9c:	90                   	nop    
    ef9d:	90                   	nop    
    ef9e:	90                   	nop    
    ef9f:	90                   	nop    
    efa0:	90                   	nop    
    efa1:	90                   	nop    
    efa2:	90                   	nop    
    efa3:	90                   	nop    
    efa4:	90                   	nop    
    efa5:	90                   	nop    
    efa6:	90                   	nop    
    efa7:	90                   	nop    
    efa8:	90                   	nop    
    efa9:	90                   	nop    
    efaa:	90                   	nop    
    efab:	90                   	nop    
    efac:	90                   	nop    
    efad:	90                   	nop    
    efae:	90                   	nop    
    efaf:	90                   	nop    
    efb0:	90                   	nop    
    efb1:	90                   	nop    
    efb2:	90                   	nop    
    efb3:	90                   	nop    
    efb4:	90                   	nop    
    efb5:	90                   	nop    
    efb6:	90                   	nop    
    efb7:	90                   	nop    
    efb8:	90                   	nop    
    efb9:	90                   	nop    
    efba:	90                   	nop    
    efbb:	90                   	nop    
    efbc:	90                   	nop    
    efbd:	90                   	nop    
    efbe:	90                   	nop    
    efbf:	90                   	nop    
    efc0:	90                   	nop    
    efc1:	90                   	nop    
    efc2:	90                   	nop    
    efc3:	90                   	nop    
    efc4:	90                   	nop    
    efc5:	90                   	nop    
    efc6:	90                   	nop    
    efc7:	90                   	nop    
    efc8:	90                   	nop    
    efc9:	90                   	nop    
    efca:	90                   	nop    
    efcb:	90                   	nop    
    efcc:	90                   	nop    
    efcd:	90                   	nop    
    efce:	90                   	nop    
    efcf:	90                   	nop    
    efd0:	90                   	nop    
    efd1:	90                   	nop    
    efd2:	90                   	nop    
    efd3:	90                   	nop    
    efd4:	90                   	nop    
    efd5:	90                   	nop    
    efd6:	90                   	nop    
    efd7:	90                   	nop    
    efd8:	90                   	nop    
    efd9:	90                   	nop    
    efda:	90                   	nop    
    efdb:	90                   	nop    
    efdc:	90                   	nop    
    efdd:	90                   	nop    
    efde:	90                   	nop    
    efdf:	90                   	nop    
    efe0:	90                   	nop    
    efe1:	90                   	nop    
    efe2:	90                   	nop    
    efe3:	90                   	nop    
    efe4:	90                   	nop    
    efe5:	90                   	nop    
    efe6:	90                   	nop    
    efe7:	90                   	nop    
    efe8:	90                   	nop    
    efe9:	90                   	nop    
    efea:	90                   	nop    
    efeb:	90                   	nop    
    efec:	90                   	nop    
    efed:	90                   	nop    
    efee:	90                   	nop    
    efef:	90                   	nop    
    eff0:	90                   	nop    
    eff1:	90                   	nop    
    eff2:	90                   	nop    
    eff3:	90                   	nop    
    eff4:	90                   	nop    
    eff5:	90                   	nop    
    eff6:	90                   	nop    
    eff7:	90                   	nop    
    eff8:	90                   	nop    
    eff9:	90                   	nop    
    effa:	90                   	nop    
    effb:	90                   	nop    
    effc:	90                   	nop    
    effd:	90                   	nop    
    effe:	90                   	nop    
    efff:	90                   	nop    
Disassembly of section .vmxdata:

000000000000f000 <__runtimetss>:
	...

0000000000010000 <__runtime_pdpt>:
	...

0000000000011000 <__runtime_pdts>:
	...

0000000000015000 <__runtime_reachregion>:
	...

0000000000025000 <__runtime_v86_pagedir>:
	...

0000000000026000 <__runtime_v86_pagetables>:
	...

0000000000426000 <__runtime_v86_idt>:
	...

0000000000427000 <__runtime_v86_gdt>:
	...

0000000000428000 <__runtime_v86_tss>:
	...

000000000042c000 <__runtime_v86_ldt>:
	...

000000000042d000 <__runtime_v86_ring0stack>:
	...

0000000000431000 <__limbo_gdt>:
	...

0000000000433000 <__limbo_tss>:
	...

0000000000434000 <__ept_pml4_table>:
	...

0000000000435000 <__ept_pdp_table>:
	...

0000000000436000 <__ept_pd_tables>:
	...

000000000043a000 <__ept_p_tables>:
	...

0000000000c3a000 <__msr_area_host>:
	...

0000000000c3c000 <__msr_area_guest>:
	...

0000000000c3e000 <__shadow_pdp_table>:
	...

0000000000c3f000 <__shadow_pd_tables>:
	...

0000000000c43000 <__shadow_p_tables>:
	...

0000000001443000 <__shadow_npae_pd_table>:
	...

0000000001444000 <__shadow_npae_p_tables>:
	...

0000000001844000 <__shadow_alg0_area>:
	...
Disassembly of section .stack:

0000000001944000 <runtime_stack>:
	...
